

HI-TECH Software PIC PRO Macro Assembler V9.83 build 10920 
                                                                                               Sat Dec 24 02:14:08 2022

HI-TECH Software Omniscient Code Generator (PRO mode) build 10920
     1                           	processor	16F887
     2                           	opt	pw 120
     3                           	opt	pm
     4                           	psect	config,global,class=CONFIG,delta=2
     5                           	psect	strings,global,class=STRING,delta=2
     6                           	psect	cinit,global,class=CODE,delta=2
     7                           	psect	bssBANK1,global,class=BANK1,space=1,delta=1
     8                           	psect	cstackBANK1,global,class=BANK1,space=1,delta=1
     9                           	psect	cstackCOMMON,global,class=COMMON,space=1,delta=1
    10                           	psect	cstackBANK0,global,class=BANK0,space=1,delta=1
    11                           	psect	maintext,global,class=CODE,delta=2
    12                           	psect	text648,local,class=CODE,delta=2
    13                           	psect	text649,local,class=CODE,delta=2
    14                           	psect	text650,local,class=CODE,delta=2
    15                           	psect	text651,local,class=CODE,delta=2
    16                           	psect	text653,local,class=CODE,delta=2
    17                           	psect	text655,local,class=CODE,delta=2
    18                           	psect	text658,local,class=CODE,delta=2
    19                           	psect	text664,local,class=CODE,delta=2
    20                           	psect	text666,local,class=CODE,delta=2
    21                           	psect	text671,local,class=CODE,delta=2
    22                           	psect	text675,local,class=CODE,delta=2
    23                           	psect	text677,local,class=CODE,delta=2
    24                           	psect	text678,local,class=CODE,delta=2
    25                           	psect	text682,local,class=CODE,delta=2
    26                           	psect	text683,local,class=CODE,delta=2
    27                           	psect	text684,local,class=CODE,delta=2
    28                           	psect	text685,local,class=CODE,delta=2
    29                           	psect	intentry,global,class=CODE,delta=2
    30                           	psect	functab,global,reloc=256,class=CODE,delta=2
    31                           	psect	pa_nodes,global,class=CODE,delta=2
    32                           	dabs	1,0x7E,2
    33  000A                     	;#
    34                           
    35                           	psect	config
    36  2007  E3C2               	dw	58306	;#
    37                           
    38                           	psect	strings
    39  1000                     __pstrings:	
    40  1000                     stringtab:	
    41                           ;	global	stringdir,stringtab,__stringbase
    42                           
    43  1000                     stringcode:	
    44                           ;	String table - string pointers are 1 byte each
    45                           
    46  1000                     stringdir:	
    47  1000  3010               	movlw	high stringdir
    48  1001  008A               	movwf	10
    49  1002  0804               	movf	4,w
    50  1003  0A84               	incf	4,f
    51  1004  0782               	addwf	2,f
    52  1005                     __stringbase:	
    53  1005  3400               	retlw	0
    54  1006                     __npowers_:	
    55  1006  3400               	retlw	0
    56  1007  3480               	retlw	128
    57  1008  343F               	retlw	63
    58  1009  34CD               	retlw	205
    59  100A  34CC               	retlw	204
    60  100B  343D               	retlw	61
    61  100C  34D7               	retlw	215
    62  100D  3423               	retlw	35
    63  100E  343C               	retlw	60
    64  100F  3412               	retlw	18
    65  1010  3483               	retlw	131
    66  1011  343A               	retlw	58
    67  1012  34B7               	retlw	183
    68  1013  34D1               	retlw	209
    69  1014  3438               	retlw	56
    70  1015  34C6               	retlw	198
    71  1016  3427               	retlw	39
    72  1017  3437               	retlw	55
    73  1018  3438               	retlw	56
    74  1019  3486               	retlw	134
    75  101A  3435               	retlw	53
    76  101B  34C0               	retlw	192
    77  101C  34D6               	retlw	214
    78  101D  3433               	retlw	51
    79  101E  34CC               	retlw	204
    80  101F  342B               	retlw	43
    81  1020  3432               	retlw	50
    82  1021  3470               	retlw	112
    83  1022  3489               	retlw	137
    84  1023  3430               	retlw	48
    85  1024  34E7               	retlw	231
    86  1025  34DB               	retlw	219
    87  1026  342E               	retlw	46
    88  1027  34E5               	retlw	229
    89  1028  343C               	retlw	60
    90  1029  341E               	retlw	30
    91  102A  3442               	retlw	66
    92  102B  34A2               	retlw	162
    93  102C  340D               	retlw	13
    94  102D                     __powers_:	
    95  102D  3400               	retlw	0
    96  102E  3480               	retlw	128
    97  102F  343F               	retlw	63
    98  1030  3400               	retlw	0
    99  1031  3420               	retlw	32
   100  1032  3441               	retlw	65
   101  1033  3400               	retlw	0
   102  1034  34C8               	retlw	200
   103  1035  3442               	retlw	66
   104  1036  3400               	retlw	0
   105  1037  347A               	retlw	122
   106  1038  3444               	retlw	68
   107  1039  3440               	retlw	64
   108  103A  341C               	retlw	28
   109  103B  3446               	retlw	70
   110  103C  3450               	retlw	80
   111  103D  34C3               	retlw	195
   112  103E  3447               	retlw	71
   113  103F  3424               	retlw	36
   114  1040  3474               	retlw	116
   115  1041  3449               	retlw	73
   116  1042  3497               	retlw	151
   117  1043  3418               	retlw	24
   118  1044  344B               	retlw	75
   119  1045  34BC               	retlw	188
   120  1046  34BE               	retlw	190
   121  1047  344C               	retlw	76
   122  1048  346B               	retlw	107
   123  1049  346E               	retlw	110
   124  104A  344E               	retlw	78
   125  104B  3403               	retlw	3
   126  104C  3415               	retlw	21
   127  104D  3450               	retlw	80
   128  104E  3479               	retlw	121
   129  104F  34AD               	retlw	173
   130  1050  3460               	retlw	96
   131  1051  34F3               	retlw	243
   132  1052  3449               	retlw	73
   133  1053  3471               	retlw	113
   134  1054                     _dpowers:	
   135  1054  3401               	retlw	1
   136  1055  3400               	retlw	0
   137  1056  3400               	retlw	0
   138  1057  3400               	retlw	0
   139  1058  340A               	retlw	10
   140  1059  3400               	retlw	0
   141  105A  3400               	retlw	0
   142  105B  3400               	retlw	0
   143  105C  3464               	retlw	100
   144  105D  3400               	retlw	0
   145  105E  3400               	retlw	0
   146  105F  3400               	retlw	0
   147  1060  34E8               	retlw	232
   148  1061  3403               	retlw	3
   149  1062  3400               	retlw	0
   150  1063  3400               	retlw	0
   151  1064  3410               	retlw	16
   152  1065  3427               	retlw	39
   153  1066  3400               	retlw	0
   154  1067  3400               	retlw	0
   155  1068  34A0               	retlw	160
   156  1069  3486               	retlw	134
   157  106A  3401               	retlw	1
   158  106B  3400               	retlw	0
   159  106C  3440               	retlw	64
   160  106D  3442               	retlw	66
   161  106E  340F               	retlw	15
   162  106F  3400               	retlw	0
   163  1070  3480               	retlw	128
   164  1071  3496               	retlw	150
   165  1072  3498               	retlw	152
   166  1073  3400               	retlw	0
   167  1074  3400               	retlw	0
   168  1075  34E1               	retlw	225
   169  1076  34F5               	retlw	245
   170  1077  3405               	retlw	5
   171  1078  3400               	retlw	0
   172  1079  34CA               	retlw	202
   173  107A  349A               	retlw	154
   174  107B  343B               	retlw	59
   175  0015                     _CCPR1	set	21
   176  001B                     _CCPR2	set	27
   177  0017                     _CCP1CON	set	23
   178  001D                     _CCP2CON	set	29
   179  000F                     _TMR1H	set	15
   180  000E                     _TMR1L	set	14
   181  0019                     _TXREG	set	25
   182  0062                     _CCP1IF	set	98
   183  0068                     _CCP2IF	set	104
   184  00C4                     _CREN	set	196
   185  005F                     _GIE	set	95
   186  005E                     _PEIE	set	94
   187  0065                     _RCIF	set	101
   188  0041                     _RD1	set	65
   189  0042                     _RD2	set	66
   190  0043                     _RD3	set	67
   191  0044                     _RD4	set	68
   192  0045                     _RD5	set	69
   193  0046                     _RD6	set	70
   194  0047                     _RD7	set	71
   195  0049                     _RE1	set	73
   196  00C6                     _RX9	set	198
   197  00C7                     _SPEN	set	199
   198  0084                     _T1CKPS0	set	132
   199  0085                     _T1CKPS1	set	133
   200  0082                     _T1SYNC	set	130
   201  0081                     _TMR1CS	set	129
   202  0086                     _TMR1GE	set	134
   203  0080                     _TMR1ON	set	128
   204  0064                     _TXIF	set	100
   205  0099                     _SPBRG	set	153
   206  009A                     _SPBRGH	set	154
   207  04C2                     _BRGH	set	1218
   208  0462                     _CCP1IE	set	1122
   209  0468                     _CCP2IE	set	1128
   210  0465                     _RCIE	set	1125
   211  04C4                     _SYNC	set	1220
   212  0439                     _TRISC1	set	1081
   213  043A                     _TRISC2	set	1082
   214  0441                     _TRISD1	set	1089
   215  0442                     _TRISD2	set	1090
   216  0443                     _TRISD3	set	1091
   217  0444                     _TRISD4	set	1092
   218  0445                     _TRISD5	set	1093
   219  0446                     _TRISD6	set	1094
   220  0447                     _TRISD7	set	1095
   221  0449                     _TRISE1	set	1097
   222  04C6                     _TX9	set	1222
   223  04C5                     _TXEN	set	1221
   224  0188                     _ANSEL	set	392
   225  0189                     _ANSELH	set	393
   226  0C3B                     _BRG16	set	3131
   227  107C                     STR_1:	
   228  107C  3478               	retlw	120	;'x'
   229  107D  3475               	retlw	117	;'u'
   230  107E  346E               	retlw	110	;'n'
   231  107F  3467               	retlw	103	;'g'
   232  1080  343A               	retlw	58	;':'
   233  1081  3420               	retlw	32	;' '
   234  1082  3425               	retlw	37	;'%'
   235  1083  3430               	retlw	48	;'0'
   236  1084  3435               	retlw	53	;'5'
   237  1085  3475               	retlw	117	;'u'
   238  1086  3400               	retlw	0
   239  1087                     STR_2:	
   240  1087  3464               	retlw	100	;'d'
   241  1088  343A               	retlw	58	;':'
   242  1089  3420               	retlw	32	;' '
   243  108A  3425               	retlw	37	;'%'
   244  108B  3435               	retlw	53	;'5'
   245  108C  342E               	retlw	46	;'.'
   246  108D  3432               	retlw	50	;'2'
   247  108E  3466               	retlw	102	;'f'
   248  108F  3400               	retlw	0
   249  1090                     STR_3:	
   250  1090  3464               	retlw	100	;'d'
   251  1091  343A               	retlw	58	;':'
   252  1092  3425               	retlw	37	;'%'
   253  1093  3435               	retlw	53	;'5'
   254  1094  342E               	retlw	46	;'.'
   255  1095  3432               	retlw	50	;'2'
   256  1096  3466               	retlw	102	;'f'
   257  1097  3400               	retlw	0
   258                           
   259                           	psect	cinit
   260  1509                     start_initialization:	
   261                           
   262                           ; Clear objects allocated to BANK1
   263  1509  1683               	bsf	3,5	;RP0=1, select bank1
   264  150A  01C2               	clrf	__pbssBANK1& (0+127)
   265  150B  01C3               	clrf	(__pbssBANK1+1)& (0+127)
   266  150C  01C4               	clrf	(__pbssBANK1+2)& (0+127)
   267  150D  01C5               	clrf	(__pbssBANK1+3)& (0+127)
   268  150E  01C6               	clrf	(__pbssBANK1+4)& (0+127)
   269  150F  01C7               	clrf	(__pbssBANK1+5)& (0+127)
   270  1510  01C8               	clrf	(__pbssBANK1+6)& (0+127)
   271  1511  01C9               	clrf	(__pbssBANK1+7)& (0+127)
   272  1512  01CA               	clrf	(__pbssBANK1+8)& (0+127)
   273  1513  01CB               	clrf	(__pbssBANK1+9)& (0+127)
   274  1514  01CC               	clrf	(__pbssBANK1+10)& (0+127)
   275  1515                     end_of_initialization:	
   276                           ;End of C runtime variable initialization code
   277                           
   278  1515  0183               	clrf	3
   279  1516  160A  118A  2F06   	ljmp	_main	;jump to C main() function
   280                           
   281                           	psect	bssBANK1
   282  00C2                     __pbssBANK1:	
   283  00C2                     _d:	
   284  00C2                     	ds	3
   285  00C5                     _count1:	
   286  00C5                     	ds	2
   287  00C7                     _count2:	
   288  00C7                     	ds	2
   289  00C9                     _xung:	
   290  00C9                     	ds	4
   291                           
   292                           	psect	cstackBANK1
   293  00A0                     __pcstackBANK1:	
   294  00A0                     __doprnt$3208:	
   295                           
   296                           ; 4 bytes @ 0x0
   297  00A0                     	ds	4
   298  00A4                     __doprnt@integ:	
   299                           
   300                           ; 3 bytes @ 0x4
   301  00A4                     	ds	3
   302  00A7                     __doprnt@_val:	
   303                           
   304                           ; 4 bytes @ 0x7
   305  00A7                     	ds	4
   306  00AB                     __doprnt@flag:	
   307                           
   308                           ; 2 bytes @ 0xB
   309  00AB                     	ds	2
   310  00AD                     __doprnt@exp:	
   311                           
   312                           ; 2 bytes @ 0xD
   313  00AD                     	ds	2
   314  00AF                     __doprnt@width:	
   315                           
   316                           ; 2 bytes @ 0xF
   317  00AF                     	ds	2
   318  00B1                     __doprnt@fval:	
   319                           
   320                           ; 3 bytes @ 0x11
   321  00B1                     	ds	3
   322  00B4                     __doprnt@prec:	
   323                           
   324                           ; 2 bytes @ 0x14
   325  00B4                     	ds	2
   326  00B6                     __doprnt@c:	
   327                           
   328                           ; 1 bytes @ 0x16
   329  00B6                     	ds	1
   330  00B7                     __doprnt@pb:	
   331                           
   332                           ; 1 bytes @ 0x17
   333  00B7                     	ds	1
   334  00B8                     main@data_tx:	
   335                           
   336                           ; 10 bytes @ 0x18
   337  00B8                     	ds	10
   338                           
   339                           	psect	cstackCOMMON
   340  0070                     __pcstackCOMMON:	
   341  0070                     ?_lcd_init:	
   342  0070                     ?_tx:	
   343                           ; 0 bytes @ 0x0
   344                           
   345  0070                     ?_rx:	
   346                           ; 0 bytes @ 0x0
   347                           
   348  0070                     ?_send_string:	
   349                           ; 0 bytes @ 0x0
   350                           
   351  0070                     ?_lcd_putc:	
   352                           ; 0 bytes @ 0x0
   353                           
   354  0070                     ?_isprint:	
   355                           ; 0 bytes @ 0x0
   356                           
   357  0070                     ?_isdigit:	
   358                           ; 1 bit 
   359                           
   360  0070                     ?_main:	
   361                           ; 1 bit 
   362                           
   363  0070                     ?_ngat:	
   364                           ; 0 bytes @ 0x0
   365                           
   366  0070                     ??_ngat:	
   367                           ; 0 bytes @ 0x0
   368                           
   369  0070                     ?_send_char:	
   370                           ; 0 bytes @ 0x0
   371                           
   372  0070                     ?_lcd_busy:	
   373                           ; 0 bytes @ 0x0
   374                           
   375                           
   376                           ; 1 bytes @ 0x0
   377  0070                     	ds	2
   378  0072                     ??_tx:	
   379  0072                     ??_rx:	
   380                           ; 0 bytes @ 0x2
   381                           
   382  0072                     ?_lcd_put_byte:	
   383                           ; 0 bytes @ 0x2
   384                           
   385  0072                     ??_lcd_busy:	
   386                           ; 0 bytes @ 0x2
   387                           
   388  0072                     ??_isprint:	
   389                           ; 0 bytes @ 0x2
   390                           
   391  0072                     ??_isdigit:	
   392                           ; 0 bytes @ 0x2
   393                           
   394  0072                     ??_send_char:	
   395                           ; 0 bytes @ 0x2
   396                           
   397  0072                     ?___ftge:	
   398                           ; 0 bytes @ 0x2
   399                           
   400  0072                     ?___lbmod:	
   401                           ; 1 bit 
   402                           
   403  0072                     ?_abs:	
   404                           ; 1 bytes @ 0x2
   405                           
   406  0072                     ?___wmul:	
   407                           ; 2 bytes @ 0x2
   408                           
   409  0072                     ?___awmod:	
   410                           ; 2 bytes @ 0x2
   411                           
   412  0072                     ?___ftpack:	
   413                           ; 2 bytes @ 0x2
   414                           
   415  0072                     ?___ftneg:	
   416                           ; 3 bytes @ 0x2
   417                           
   418  0072                     ?__tdiv_to_l_:	
   419                           ; 3 bytes @ 0x2
   420                           
   421  0072                     ?__div_to_l_:	
   422                           ; 4 bytes @ 0x2
   423                           
   424  0072                     ?___lldiv:	
   425                           ; 4 bytes @ 0x2
   426                           
   427  0072                     send_char@data:	
   428                           ; 4 bytes @ 0x2
   429                           
   430  0072                     lcd_put_byte@b:	
   431                           ; 1 bytes @ 0x2
   432                           
   433  0072                     _isdigit$3718:	
   434                           ; 1 bytes @ 0x2
   435                           
   436  0072                     _isprint$3721:	
   437                           ; 1 bytes @ 0x2
   438                           
   439  0072                     ___lbmod@divisor:	
   440                           ; 1 bytes @ 0x2
   441                           
   442  0072                     abs@a:	
   443                           ; 1 bytes @ 0x2
   444                           
   445  0072                     ___wmul@multiplier:	
   446                           ; 2 bytes @ 0x2
   447                           
   448  0072                     ___awmod@divisor:	
   449                           ; 2 bytes @ 0x2
   450                           
   451  0072                     ___ftneg@f1:	
   452                           ; 2 bytes @ 0x2
   453                           
   454  0072                     ___ftge@ff1:	
   455                           ; 3 bytes @ 0x2
   456                           
   457  0072                     __tdiv_to_l_@f1:	
   458                           ; 3 bytes @ 0x2
   459                           
   460  0072                     __div_to_l_@f1:	
   461                           ; 3 bytes @ 0x2
   462                           
   463  0072                     ___ftpack@arg:	
   464                           ; 3 bytes @ 0x2
   465                           
   466  0072                     ___lldiv@divisor:	
   467                           ; 3 bytes @ 0x2
   468                           
   469                           
   470                           ; 4 bytes @ 0x2
   471  0072                     	ds	1
   472  0073                     ??_send_string:	
   473  0073                     ??_lcd_put_byte:	
   474                           ; 0 bytes @ 0x3
   475                           
   476  0073                     ??___lbmod:	
   477                           ; 0 bytes @ 0x3
   478                           
   479  0073                     send_string@s:	
   480                           ; 0 bytes @ 0x3
   481                           
   482  0073                     lcd_busy@busy:	
   483                           ; 1 bytes @ 0x3
   484                           
   485  0073                     isdigit@c:	
   486                           ; 1 bytes @ 0x3
   487                           
   488  0073                     isprint@c:	
   489                           ; 1 bytes @ 0x3
   490                           
   491                           
   492                           ; 1 bytes @ 0x3
   493  0073                     	ds	1
   494  0074                     ??_abs:	
   495  0074                     ___lbmod@dividend:	
   496                           ; 0 bytes @ 0x4
   497                           
   498  0074                     ___wmul@multiplicand:	
   499                           ; 1 bytes @ 0x4
   500                           
   501  0074                     ___awmod@dividend:	
   502                           ; 2 bytes @ 0x4
   503                           
   504                           
   505                           ; 2 bytes @ 0x4
   506  0074                     	ds	1
   507  0075                     ??___ftneg:	
   508  0075                     lcd_put_byte@rs:	
   509                           ; 0 bytes @ 0x5
   510                           
   511  0075                     ___lbmod@counter:	
   512                           ; 1 bytes @ 0x5
   513                           
   514  0075                     ___ftpack@exp:	
   515                           ; 1 bytes @ 0x5
   516                           
   517  0075                     ___ftge@ff2:	
   518                           ; 1 bytes @ 0x5
   519                           
   520  0075                     __tdiv_to_l_@f2:	
   521                           ; 3 bytes @ 0x5
   522                           
   523  0075                     __div_to_l_@f2:	
   524                           ; 3 bytes @ 0x5
   525                           
   526                           
   527                           ; 3 bytes @ 0x5
   528  0075                     	ds	1
   529  0076                     ??___wmul:	
   530  0076                     ??___awmod:	
   531                           ; 0 bytes @ 0x6
   532                           
   533  0076                     lcd_put_byte@temp:	
   534                           ; 0 bytes @ 0x6
   535                           
   536  0076                     ___lbmod@rem:	
   537                           ; 1 bytes @ 0x6
   538                           
   539  0076                     ___awmod@counter:	
   540                           ; 1 bytes @ 0x6
   541                           
   542  0076                     ___ftpack@sign:	
   543                           ; 1 bytes @ 0x6
   544                           
   545  0076                     ___wmul@product:	
   546                           ; 1 bytes @ 0x6
   547                           
   548  0076                     ___lldiv@dividend:	
   549                           ; 2 bytes @ 0x6
   550                           
   551                           
   552                           ; 4 bytes @ 0x6
   553  0076                     	ds	1
   554  0077                     ??_lcd_init:	
   555  0077                     ?_lcd_gotoxy:	
   556                           ; 0 bytes @ 0x7
   557                           
   558  0077                     ??___ftpack:	
   559                           ; 0 bytes @ 0x7
   560                           
   561  0077                     ?___lbdiv:	
   562                           ; 0 bytes @ 0x7
   563                           
   564  0077                     lcd_gotoxy@row:	
   565                           ; 1 bytes @ 0x7
   566                           
   567  0077                     ___lbdiv@divisor:	
   568                           ; 1 bytes @ 0x7
   569                           
   570  0077                     ___awmod@sign:	
   571                           ; 1 bytes @ 0x7
   572                           
   573                           
   574                           ; 1 bytes @ 0x7
   575  0077                     	ds	1
   576  0078                     ??_lcd_gotoxy:	
   577  0078                     ??__tdiv_to_l_:	
   578                           ; 0 bytes @ 0x8
   579                           
   580  0078                     ??___lbdiv:	
   581                           ; 0 bytes @ 0x8
   582                           
   583  0078                     ??___ftge:	
   584                           ; 0 bytes @ 0x8
   585                           
   586  0078                     ?___awdiv:	
   587                           ; 0 bytes @ 0x8
   588                           
   589  0078                     lcd_gotoxy@col:	
   590                           ; 2 bytes @ 0x8
   591                           
   592  0078                     ___lbdiv@dividend:	
   593                           ; 1 bytes @ 0x8
   594                           
   595  0078                     ___awdiv@divisor:	
   596                           ; 1 bytes @ 0x8
   597                           
   598                           
   599                           ; 2 bytes @ 0x8
   600  0078                     	ds	1
   601  0079                     lcd_gotoxy@address:	
   602  0079                     ___lbdiv@counter:	
   603                           ; 1 bytes @ 0x9
   604                           
   605                           
   606                           ; 1 bytes @ 0x9
   607  0079                     	ds	1
   608  007A                     ??_lcd_putc:	
   609  007A                     ??___llmod:	
   610                           ; 0 bytes @ 0xA
   611                           
   612  007A                     ??___lldiv:	
   613                           ; 0 bytes @ 0xA
   614                           
   615  007A                     ??___altoft:	
   616                           ; 0 bytes @ 0xA
   617                           
   618  007A                     ??___lltoft:	
   619                           ; 0 bytes @ 0xA
   620                           
   621  007A                     lcd_putc@c:	
   622                           ; 0 bytes @ 0xA
   623                           
   624  007A                     ___lbdiv@quotient:	
   625                           ; 1 bytes @ 0xA
   626                           
   627  007A                     ___llmod@counter:	
   628                           ; 1 bytes @ 0xA
   629                           
   630  007A                     ___altoft@exp:	
   631                           ; 1 bytes @ 0xA
   632                           
   633  007A                     ___lltoft@exp:	
   634                           ; 1 bytes @ 0xA
   635                           
   636  007A                     ___awdiv@dividend:	
   637                           ; 1 bytes @ 0xA
   638                           
   639                           
   640                           ; 2 bytes @ 0xA
   641  007A                     	ds	1
   642  007B                     ??_putch:	
   643  007B                     ?___bmul:	
   644                           ; 0 bytes @ 0xB
   645                           
   646  007B                     ___bmul@multiplicand:	
   647                           ; 1 bytes @ 0xB
   648                           
   649  007B                     ___altoft@sign:	
   650                           ; 1 bytes @ 0xB
   651                           
   652                           
   653                           ; 1 bytes @ 0xB
   654  007B                     	ds	1
   655  007C                     ??_printf:	
   656  007C                     ??_sprintf:	
   657                           ; 0 bytes @ 0xC
   658                           
   659  007C                     ??_fround:	
   660                           ; 0 bytes @ 0xC
   661                           
   662  007C                     ??___bmul:	
   663                           ; 0 bytes @ 0xC
   664                           
   665  007C                     ??___ftsub:	
   666                           ; 0 bytes @ 0xC
   667                           
   668  007C                     ??___awdiv:	
   669                           ; 0 bytes @ 0xC
   670                           
   671                           
   672                           	psect	cstackBANK0
   673  0020                     __pcstackBANK0:	
   674                           ; 0 bytes @ 0xC
   675                           
   676  0020                     ??__div_to_l_:	
   677  0020                     ?___altoft:	
   678                           ; 0 bytes @ 0x0
   679                           
   680  0020                     ?___lltoft:	
   681                           ; 3 bytes @ 0x0
   682                           
   683  0020                     ___bmul@product:	
   684                           ; 3 bytes @ 0x0
   685                           
   686  0020                     ___awdiv@counter:	
   687                           ; 1 bytes @ 0x0
   688                           
   689  0020                     ___lldiv@quotient:	
   690                           ; 1 bytes @ 0x0
   691                           
   692  0020                     ___altoft@c:	
   693                           ; 4 bytes @ 0x0
   694                           
   695  0020                     ___lltoft@c:	
   696                           ; 4 bytes @ 0x0
   697                           
   698  0020                     __tdiv_to_l_@quot:	
   699                           ; 4 bytes @ 0x0
   700                           
   701                           
   702                           ; 4 bytes @ 0x0
   703  0020                     	ds	1
   704  0021                     ___bmul@multiplier:	
   705  0021                     ___awdiv@sign:	
   706                           ; 1 bytes @ 0x1
   707                           
   708                           
   709                           ; 1 bytes @ 0x1
   710  0021                     	ds	1
   711  0022                     ___awdiv@quotient:	
   712                           
   713                           ; 2 bytes @ 0x2
   714  0022                     	ds	2
   715  0024                     ?___fttol:	
   716  0024                     ___lldiv@counter:	
   717                           ; 4 bytes @ 0x4
   718                           
   719  0024                     __tdiv_to_l_@cntr:	
   720                           ; 1 bytes @ 0x4
   721                           
   722  0024                     ___fttol@f1:	
   723                           ; 1 bytes @ 0x4
   724                           
   725                           
   726                           ; 3 bytes @ 0x4
   727  0024                     	ds	1
   728  0025                     ?___llmod:	
   729  0025                     __tdiv_to_l_@exp1:	
   730                           ; 4 bytes @ 0x5
   731                           
   732  0025                     ___llmod@divisor:	
   733                           ; 1 bytes @ 0x5
   734                           
   735                           
   736                           ; 4 bytes @ 0x5
   737  0025                     	ds	3
   738  0028                     ??___fttol:	
   739  0028                     __div_to_l_@quot:	
   740                           ; 0 bytes @ 0x8
   741                           
   742                           
   743                           ; 4 bytes @ 0x8
   744  0028                     	ds	1
   745  0029                     ___llmod@dividend:	
   746                           
   747                           ; 4 bytes @ 0x9
   748  0029                     	ds	2
   749  002B                     ___fttol@sign1:	
   750                           
   751                           ; 1 bytes @ 0xB
   752  002B                     	ds	1
   753  002C                     __div_to_l_@cntr:	
   754  002C                     ___fttol@lval:	
   755                           ; 1 bytes @ 0xC
   756                           
   757                           
   758                           ; 4 bytes @ 0xC
   759  002C                     	ds	1
   760  002D                     ?_putch:	
   761  002D                     putch@c:	
   762                           ; 0 bytes @ 0xD
   763                           
   764  002D                     __div_to_l_@exp1:	
   765                           ; 1 bytes @ 0xD
   766                           
   767                           
   768                           ; 1 bytes @ 0xD
   769  002D                     	ds	3
   770  0030                     ___fttol@exp1:	
   771                           
   772                           ; 1 bytes @ 0x10
   773  0030                     	ds	1
   774  0031                     ?___ftmul:	
   775  0031                     ___ftmul@f1:	
   776                           ; 3 bytes @ 0x11
   777                           
   778                           
   779                           ; 3 bytes @ 0x11
   780  0031                     	ds	3
   781  0034                     ___ftmul@f2:	
   782                           
   783                           ; 3 bytes @ 0x14
   784  0034                     	ds	3
   785  0037                     ??___ftmul:	
   786                           
   787                           ; 0 bytes @ 0x17
   788  0037                     	ds	3
   789  003A                     ___ftmul@exp:	
   790                           
   791                           ; 1 bytes @ 0x1A
   792  003A                     	ds	1
   793  003B                     ___ftmul@f3_as_product:	
   794                           
   795                           ; 3 bytes @ 0x1B
   796  003B                     	ds	3
   797  003E                     ___ftmul@cntr:	
   798                           
   799                           ; 1 bytes @ 0x1E
   800  003E                     	ds	1
   801  003F                     ___ftmul@sign:	
   802                           
   803                           ; 1 bytes @ 0x1F
   804  003F                     	ds	1
   805  0040                     ?_scale:	
   806  0040                     ?___ftadd:	
   807                           ; 3 bytes @ 0x20
   808                           
   809  0040                     ___ftadd@f1:	
   810                           ; 3 bytes @ 0x20
   811                           
   812                           
   813                           ; 3 bytes @ 0x20
   814  0040                     	ds	3
   815  0043                     ??_scale:	
   816  0043                     ___ftadd@f2:	
   817                           ; 0 bytes @ 0x23
   818                           
   819                           
   820                           ; 3 bytes @ 0x23
   821  0043                     	ds	3
   822  0046                     ??___ftadd:	
   823                           
   824                           ; 0 bytes @ 0x26
   825  0046                     	ds	1
   826  0047                     _scale$4205:	
   827                           
   828                           ; 3 bytes @ 0x27
   829  0047                     	ds	2
   830  0049                     ___ftadd@sign:	
   831                           
   832                           ; 1 bytes @ 0x29
   833  0049                     	ds	1
   834  004A                     scale@scl:	
   835  004A                     ___ftadd@exp2:	
   836                           ; 1 bytes @ 0x2A
   837                           
   838                           
   839                           ; 1 bytes @ 0x2A
   840  004A                     	ds	1
   841  004B                     ___ftadd@exp1:	
   842                           
   843                           ; 1 bytes @ 0x2B
   844  004B                     	ds	1
   845  004C                     ?_fround:	
   846  004C                     ?___ftsub:	
   847                           ; 3 bytes @ 0x2C
   848                           
   849  004C                     ___ftsub@f2:	
   850                           ; 3 bytes @ 0x2C
   851                           
   852                           
   853                           ; 3 bytes @ 0x2C
   854  004C                     	ds	3
   855  004F                     ___ftsub@f1:	
   856  004F                     _fround$4204:	
   857                           ; 3 bytes @ 0x2F
   858                           
   859                           
   860                           ; 3 bytes @ 0x2F
   861  004F                     	ds	3
   862  0052                     _fround$4203:	
   863                           
   864                           ; 3 bytes @ 0x32
   865  0052                     	ds	3
   866  0055                     fround@prec:	
   867                           
   868                           ; 1 bytes @ 0x35
   869  0055                     	ds	1
   870  0056                     ?__doprnt:	
   871  0056                     __doprnt@f:	
   872                           ; 2 bytes @ 0x36
   873                           
   874                           
   875                           ; 1 bytes @ 0x36
   876  0056                     	ds	1
   877  0057                     __doprnt@ap:	
   878                           
   879                           ; 1 bytes @ 0x37
   880  0057                     	ds	1
   881  0058                     ??__doprnt:	
   882                           
   883                           ; 0 bytes @ 0x38
   884  0058                     	ds	5
   885  005D                     ?_printf:	
   886  005D                     ?_sprintf:	
   887                           ; 2 bytes @ 0x3D
   888                           
   889  005D                     sprintf@f:	
   890                           ; 2 bytes @ 0x3D
   891                           
   892                           
   893                           ; 1 bytes @ 0x3D
   894  005D                     	ds	4
   895  0061                     printf@f:	
   896  0061                     sprintf@wh:	
   897                           ; 1 bytes @ 0x41
   898                           
   899                           
   900                           ; 1 bytes @ 0x41
   901  0061                     	ds	1
   902  0062                     printf@ap:	
   903  0062                     sprintf@ap:	
   904                           ; 1 bytes @ 0x42
   905                           
   906                           
   907                           ; 1 bytes @ 0x42
   908  0062                     	ds	1
   909  0063                     printf@pb:	
   910  0063                     sprintf@pb:	
   911                           ; 2 bytes @ 0x43
   912                           
   913                           
   914                           ; 2 bytes @ 0x43
   915  0063                     	ds	2
   916  0065                     ??_main:	
   917                           
   918                           ; 0 bytes @ 0x45
   919  0065                     	ds	3
   920                           
   921                           	psect	maintext
   922  1706                     __pmaintext:	
   923 ;;Data sizes: Strings 28, constant 118, data 0, bss 11, persistent 0 stack 0
   924 ;;Auto spaces:   Size  Autos    Used
   925 ;; COMMON          14     12      12
   926 ;; BANK0           80     72      72
   927 ;; BANK1           80     34      45
   928 ;; BANK3           96      0       0
   929 ;; BANK2           96      0       0
   930 ;;
   931 ;; Pointer list with targets:
   932 ;; ?___ftpack	float  size(1) Largest target is 2
   933 ;;		 -> ?_sprintf(BANK0[2]), ?_printf(BANK0[2]), 
   934 ;;
   935 ;; ?___lldiv	unsigned long  size(1) Largest target is 0
   936 ;;
   937 ;; ?___llmod	unsigned long  size(1) Largest target is 2
   938 ;;		 -> ?_sprintf(BANK0[2]), ?_printf(BANK0[2]), 
   939 ;;
   940 ;; ?___ftsub	float  size(1) Largest target is 0
   941 ;;
   942 ;; ?___lltoft	float  size(1) Largest target is 0
   943 ;;
   944 ;; ?__tdiv_to_l_	unsigned long  size(1) Largest target is 0
   945 ;;
   946 ;; ?__div_to_l_	unsigned long  size(1) Largest target is 0
   947 ;;
   948 ;; ?___fttol	long  size(1) Largest target is 2
   949 ;;		 -> ?_sprintf(BANK0[2]), ?_printf(BANK0[2]), 
   950 ;;
   951 ;; ?___ftneg	float  size(1) Largest target is 2
   952 ;;		 -> ?_sprintf(BANK0[2]), ?_printf(BANK0[2]), 
   953 ;;
   954 ;; ?___awmod	int  size(2) Largest target is 40
   955 ;;		 -> ?_sprintf(BANK0[2]), ?_printf(BANK0[2]), dpowers(CODE[40]), 
   956 ;;
   957 ;; ?___awdiv	int  size(1) Largest target is 0
   958 ;;
   959 ;; ?_scale	int  size(1) Largest target is 0
   960 ;;
   961 ;; ?___wmul	unsigned int  size(1) Largest target is 0
   962 ;;
   963 ;; ?_fround	unsigned int  size(1) Largest target is 0
   964 ;;
   965 ;; ?___ftmul	float  size(1) Largest target is 0
   966 ;;
   967 ;; ?___altoft	float  size(1) Largest target is 0
   968 ;;
   969 ;; ?___ftadd	float  size(1) Largest target is 2
   970 ;;		 -> ?_sprintf(BANK0[2]), ?_printf(BANK0[2]), 
   971 ;;
   972 ;; ?_abs	int  size(1) Largest target is 0
   973 ;;
   974 ;; sprintf@f	PTR const unsigned char  size(1) Largest target is 8
   975 ;;		 -> STR_3(CODE[8]), 
   976 ;;
   977 ;; ?_sprintf	int  size(1) Largest target is 10
   978 ;;		 -> NULL(NULL[0]), main@data_tx(BANK1[10]), xung(BANK1[4]), 
   979 ;;
   980 ;; sprintf@ap	PTR void [1] size(1) Largest target is 2
   981 ;;		 -> ?_sprintf(BANK0[2]), ?_printf(BANK0[2]), 
   982 ;;
   983 ;; sprintf@wh	PTR unsigned char  size(1) Largest target is 10
   984 ;;		 -> main@data_tx(BANK1[10]), 
   985 ;;
   986 ;; pb.func	PTR FTN(unsigned char ,)void  size(1) Largest target is 0
   987 ;;		 -> Absolute function(), putch(), 
   988 ;;
   989 ;; pb.ptr	PTR unsigned char  size(1) Largest target is 10
   990 ;;		 -> NULL(NULL[0]), main@data_tx(BANK1[10]), 
   991 ;;
   992 ;; printf@f	PTR const unsigned char  size(1) Largest target is 11
   993 ;;		 -> STR_2(CODE[9]), STR_1(CODE[11]), 
   994 ;;
   995 ;; ?_printf	int  size(1) Largest target is 4
   996 ;;		 -> xung(BANK1[4]), 
   997 ;;
   998 ;; printf@ap	PTR void [1] size(1) Largest target is 2
   999 ;;		 -> ?_sprintf(BANK0[2]), ?_printf(BANK0[2]), 
  1000 ;;
  1001 ;; pb.func	PTR FTN(unsigned char ,)void  size(1) Largest target is 0
  1002 ;;		 -> Absolute function(), putch(), 
  1003 ;;
  1004 ;; pb.ptr	PTR unsigned char  size(1) Largest target is 10
  1005 ;;		 -> NULL(NULL[0]), main@data_tx(BANK1[10]), 
  1006 ;;
  1007 ;; _doprnt@ap	PTR PTR void  size(1) Largest target is 2
  1008 ;;		 -> sprintf@ap(BANK0[1]), printf@ap(BANK0[1]), 
  1009 ;;
  1010 ;; _doprnt@f	PTR const unsigned char  size(1) Largest target is 11
  1011 ;;		 -> STR_3(CODE[8]), STR_2(CODE[9]), STR_1(CODE[11]), 
  1012 ;;
  1013 ;; S3144__prbuf$func	PTR FTN(unsigned char ,)void  size(1) Largest target is 0
  1014 ;;		 -> Absolute function(), putch(), 
  1015 ;;
  1016 ;; _doprnt@pb.func	PTR FTN(unsigned char ,)void  size(1) Largest target is 0
  1017 ;;		 -> Absolute function(), putch(), 
  1018 ;;
  1019 ;; S3144__prbuf$ptr	PTR unsigned char  size(1) Largest target is 10
  1020 ;;		 -> NULL(NULL[0]), main@data_tx(BANK1[10]), 
  1021 ;;
  1022 ;; _doprnt@pb.ptr	PTR unsigned char  size(1) Largest target is 10
  1023 ;;		 -> NULL(NULL[0]), main@data_tx(BANK1[10]), 
  1024 ;;
  1025 ;; _doprnt@pb	PTR struct __prbuf size(1) Largest target is 3
  1026 ;;		 -> sprintf@pb(BANK0[2]), printf@pb(BANK0[2]), 
  1027 ;;
  1028 ;; S3190$_cp	PTR const unsigned char  size(1) Largest target is 0
  1029 ;;
  1030 ;; _val._str._cp	PTR const unsigned char  size(1) Largest target is 0
  1031 ;;
  1032 ;; send_string@s	PTR const unsigned char  size(1) Largest target is 10
  1033 ;;		 -> main@data_tx(BANK1[10]), 
  1034 ;;
  1035 ;;
  1036 ;; Critical Paths under _main in COMMON
  1037 ;;
  1038 ;;   _main->___altoft
  1039 ;;   __doprnt->___awdiv
  1040 ;;   _putch->_lcd_putc
  1041 ;;   _putch->___llmod
  1042 ;;   _lcd_putc->_lcd_gotoxy
  1043 ;;   _scale->___awdiv
  1044 ;;   _scale->___bmul
  1045 ;;   _fround->___bmul
  1046 ;;   _lcd_gotoxy->_lcd_put_byte
  1047 ;;   _lcd_init->_lcd_put_byte
  1048 ;;   ___lltoft->___ftpack
  1049 ;;   ___altoft->___ftpack
  1050 ;;   ___ftmul->___altoft
  1051 ;;   ___ftmul->___awdiv
  1052 ;;   ___ftmul->___bmul
  1053 ;;   ___ftadd->___altoft
  1054 ;;   ___ftadd->___bmul
  1055 ;;   _send_string->_send_char
  1056 ;;   ___llmod->___lldiv
  1057 ;;   ___awdiv->___awmod
  1058 ;;   ___fttol->___awdiv
  1059 ;;   ___fttol->___bmul
  1060 ;;   ___lbdiv->___lbmod
  1061 ;;   ___bmul->___lbdiv
  1062 ;;
  1063 ;; Critical Paths under _ngat in COMMON
  1064 ;;
  1065 ;;   None.
  1066 ;;
  1067 ;; Critical Paths under _main in BANK0
  1068 ;;
  1069 ;;   _main->_printf
  1070 ;;   _main->_sprintf
  1071 ;;   _sprintf->__doprnt
  1072 ;;   _printf->__doprnt
  1073 ;;   __doprnt->_fround
  1074 ;;   _putch->___llmod
  1075 ;;   ___ftsub->___ftadd
  1076 ;;   _scale->___ftmul
  1077 ;;   _fround->___ftadd
  1078 ;;   ___ftmul->___fttol
  1079 ;;   ___ftadd->___ftmul
  1080 ;;   ___llmod->___lldiv
  1081 ;;   ___fttol->___awdiv
  1082 ;;
  1083 ;; Critical Paths under _ngat in BANK0
  1084 ;;
  1085 ;;   None.
  1086 ;;
  1087 ;; Critical Paths under _main in BANK1
  1088 ;;
  1089 ;;   _sprintf->__doprnt
  1090 ;;   _printf->__doprnt
  1091 ;;
  1092 ;; Critical Paths under _ngat in BANK1
  1093 ;;
  1094 ;;   None.
  1095 ;;
  1096 ;; Critical Paths under _main in BANK3
  1097 ;;
  1098 ;;   None.
  1099 ;;
  1100 ;; Critical Paths under _ngat in BANK3
  1101 ;;
  1102 ;;   None.
  1103 ;;
  1104 ;; Critical Paths under _main in BANK2
  1105 ;;
  1106 ;;   None.
  1107 ;;
  1108 ;; Critical Paths under _ngat in BANK2
  1109 ;;
  1110 ;;   None.
  1111 ;;
  1112 ;;Main: autosize = 0, tempsize = 3, incstack = 0, save=0
  1113 ;;
  1114 ;;
  1115 ;;Call Graph Tables:
  1116 ;;
  1117 ;; ---------------------------------------------------------------------------------
  1118 ;; (Depth) Function   	        Calls       Base Space   Used Autos Params    Refs
  1119 ;; ---------------------------------------------------------------------------------
  1120 ;; (0) _main                                                13    13      0   27735
  1121 ;;                                             69 BANK0      3     3      0
  1122 ;;                                             24 BANK1     10    10      0
  1123 ;;                           _lcd_init
  1124 ;;                                 _tx
  1125 ;;                                 _rx
  1126 ;;                                _abs
  1127 ;;                           ___altoft
  1128 ;;                            ___ftmul
  1129 ;;                            ___ftadd
  1130 ;;                         _lcd_gotoxy
  1131 ;;                             _printf
  1132 ;;                            _sprintf
  1133 ;;                        _send_string
  1134 ;; ---------------------------------------------------------------------------------
  1135 ;; (1) _sprintf                                              8     4      4   12547
  1136 ;;                                             61 BANK0      8     4      4
  1137 ;;                            __doprnt
  1138 ;; ---------------------------------------------------------------------------------
  1139 ;; (1) _printf                                               8     4      4   12491
  1140 ;;                                             61 BANK0      8     4      4
  1141 ;;                            __doprnt
  1142 ;; ---------------------------------------------------------------------------------
  1143 ;; (2) __doprnt                                             35    33      2   12325
  1144 ;;                                             54 BANK0      7     5      2
  1145 ;;                                              0 BANK1     24    24      0
  1146 ;;                   Absolute function
  1147 ;;                              _putch
  1148 ;;                            _isdigit
  1149 ;;                             ___wmul
  1150 ;;                             ___ftge
  1151 ;;                            ___ftneg
  1152 ;;                            ___awdiv
  1153 ;;                              _scale
  1154 ;;                            ___ftmul
  1155 ;;                             _fround
  1156 ;;                            ___ftadd
  1157 ;;                            ___fttol
  1158 ;;                         __div_to_l_
  1159 ;;                        __tdiv_to_l_
  1160 ;;                           ___lltoft
  1161 ;;                            ___ftsub
  1162 ;;                            ___lldiv
  1163 ;;                            ___llmod
  1164 ;; ---------------------------------------------------------------------------------
  1165 ;; (3) _putch                                                1     0      1     713
  1166 ;;                                             13 BANK0      1     0      1
  1167 ;;                           _lcd_putc
  1168 ;;                            ___llmod (ARG)
  1169 ;;                            ___lldiv (ARG)
  1170 ;; ---------------------------------------------------------------------------------
  1171 ;; (4) _lcd_putc                                             1     1      0     691
  1172 ;;                                             10 COMMON     1     1      0
  1173 ;;                       _lcd_put_byte
  1174 ;;                           _lcd_busy
  1175 ;;                         _lcd_gotoxy
  1176 ;;                            _isprint
  1177 ;; ---------------------------------------------------------------------------------
  1178 ;; (3) ___ftsub                                              6     0      6    1094
  1179 ;;                                             44 BANK0      6     0      6
  1180 ;;                            ___ftadd
  1181 ;;                           ___lltoft (ARG)
  1182 ;; ---------------------------------------------------------------------------------
  1183 ;; (3) _scale                                               14    11      3    1688
  1184 ;;                                             32 BANK0     11     8      3
  1185 ;;                            ___awmod
  1186 ;;                            ___awdiv
  1187 ;;                            ___ftmul
  1188 ;;                             ___bmul
  1189 ;;                            ___fttol (ARG)
  1190 ;; ---------------------------------------------------------------------------------
  1191 ;; (3) _fround                                              13    10      3    1215
  1192 ;;                                             44 BANK0     10     7      3
  1193 ;;                            ___lbmod
  1194 ;;                             ___bmul
  1195 ;;                            ___lbdiv
  1196 ;;                            ___ftmul
  1197 ;;                            ___ftadd (ARG)
  1198 ;; ---------------------------------------------------------------------------------
  1199 ;; (5) _lcd_gotoxy                                           3     2      1     313
  1200 ;;                                              7 COMMON     3     2      1
  1201 ;;                       _lcd_put_byte
  1202 ;;                           _lcd_busy
  1203 ;; ---------------------------------------------------------------------------------
  1204 ;; (1) _lcd_init                                             4     4      0     244
  1205 ;;                                              7 COMMON     3     3      0
  1206 ;;                       _lcd_put_byte
  1207 ;;                           _lcd_busy
  1208 ;; ---------------------------------------------------------------------------------
  1209 ;; (3) ___lltoft                                             5     1      4     278
  1210 ;;                                             10 COMMON     1     1      0
  1211 ;;                                              0 BANK0      4     0      4
  1212 ;;                           ___ftpack
  1213 ;; ---------------------------------------------------------------------------------
  1214 ;; (1) ___altoft                                             6     2      4     347
  1215 ;;                                             10 COMMON     2     2      0
  1216 ;;                                              0 BANK0      4     0      4
  1217 ;;                           ___ftpack
  1218 ;; ---------------------------------------------------------------------------------
  1219 ;; (4) ___ftmul                                             15     9      6     535
  1220 ;;                                             17 BANK0     15     9      6
  1221 ;;                           ___ftpack
  1222 ;;                           ___altoft (ARG)
  1223 ;;                            ___fttol (ARG)
  1224 ;;                            ___awdiv (ARG)
  1225 ;;                            ___awmod (ARG)
  1226 ;;                             ___bmul (ARG)
  1227 ;;                            ___lbdiv (ARG)
  1228 ;;                            ___lbmod (ARG)
  1229 ;; ---------------------------------------------------------------------------------
  1230 ;; (4) ___ftadd                                             12     6      6    1049
  1231 ;;                                             32 BANK0     12     6      6
  1232 ;;                           ___ftpack
  1233 ;;                            ___ftmul (ARG)
  1234 ;;                           ___altoft (ARG)
  1235 ;;                            ___lbmod (ARG)
  1236 ;;                             ___bmul (ARG)
  1237 ;;                            ___lbdiv (ARG)
  1238 ;; ---------------------------------------------------------------------------------
  1239 ;; (6) _lcd_busy                                             2     2      0      23
  1240 ;;                                              2 COMMON     2     2      0
  1241 ;; ---------------------------------------------------------------------------------
  1242 ;; (6) _lcd_put_byte                                         5     4      1     221
  1243 ;;                                              2 COMMON     5     4      1
  1244 ;; ---------------------------------------------------------------------------------
  1245 ;; (1) _send_string                                          1     1      0      67
  1246 ;;                                              3 COMMON     1     1      0
  1247 ;;                          _send_char
  1248 ;; ---------------------------------------------------------------------------------
  1249 ;; (4) ___awmod                                              6     2      4     296
  1250 ;;                                              2 COMMON     6     2      4
  1251 ;; ---------------------------------------------------------------------------------
  1252 ;; (3) ___lldiv                                             13     5      8     162
  1253 ;;                                              2 COMMON     8     0      8
  1254 ;;                                              0 BANK0      5     5      0
  1255 ;; ---------------------------------------------------------------------------------
  1256 ;; (3) ___ftge                                               6     0      6     136
  1257 ;;                                              2 COMMON     6     0      6
  1258 ;; ---------------------------------------------------------------------------------
  1259 ;; (3) ___ftneg                                              3     0      3      45
  1260 ;;                                              2 COMMON     3     0      3
  1261 ;; ---------------------------------------------------------------------------------
  1262 ;; (3) ___llmod                                              9     1      8     159
  1263 ;;                                             10 COMMON     1     1      0
  1264 ;;                                              5 BANK0      8     0      8
  1265 ;;                            ___lldiv (ARG)
  1266 ;; ---------------------------------------------------------------------------------
  1267 ;; (4) ___awdiv                                              8     4      4     300
  1268 ;;                                              8 COMMON     4     0      4
  1269 ;;                                              0 BANK0      4     4      0
  1270 ;;                            ___awmod (ARG)
  1271 ;; ---------------------------------------------------------------------------------
  1272 ;; (3) ___fttol                                             13     9      4     252
  1273 ;;                                              4 BANK0     13     9      4
  1274 ;;                           ___ftpack (ARG)
  1275 ;;                            ___awmod (ARG)
  1276 ;;                            ___awdiv (ARG)
  1277 ;;                             ___bmul (ARG)
  1278 ;; ---------------------------------------------------------------------------------
  1279 ;; (5) ___ftpack                                             8     3      5     209
  1280 ;;                                              2 COMMON     8     3      5
  1281 ;; ---------------------------------------------------------------------------------
  1282 ;; (4) ___lbmod                                              5     4      1     159
  1283 ;;                                              2 COMMON     5     4      1
  1284 ;; ---------------------------------------------------------------------------------
  1285 ;; (4) ___lbdiv                                              4     3      1     162
  1286 ;;                                              7 COMMON     4     3      1
  1287 ;;                            ___lbmod (ARG)
  1288 ;; ---------------------------------------------------------------------------------
  1289 ;; (3) ___wmul                                               6     2      4      92
  1290 ;;                                              2 COMMON     6     2      4
  1291 ;; ---------------------------------------------------------------------------------
  1292 ;; (4) ___bmul                                               3     2      1      68
  1293 ;;                                             11 COMMON     1     0      1
  1294 ;;                                              0 BANK0      2     2      0
  1295 ;;                            ___lbmod (ARG)
  1296 ;;                            ___lbdiv (ARG)
  1297 ;; ---------------------------------------------------------------------------------
  1298 ;; (3) __div_to_l_                                          20    14      6     446
  1299 ;;                                              2 COMMON     6     0      6
  1300 ;;                                              0 BANK0     14    14      0
  1301 ;; ---------------------------------------------------------------------------------
  1302 ;; (3) __tdiv_to_l_                                         15     9      6     303
  1303 ;;                                              2 COMMON     9     3      6
  1304 ;;                                              0 BANK0      6     6      0
  1305 ;; ---------------------------------------------------------------------------------
  1306 ;; (3) _isdigit                                              2     2      0      68
  1307 ;;                                              2 COMMON     2     2      0
  1308 ;; ---------------------------------------------------------------------------------
  1309 ;; (3) Absolute function(Fake)                               1     0      1       0
  1310 ;;                                              2 COMMON     1     0      1
  1311 ;; ---------------------------------------------------------------------------------
  1312 ;; (5) _isprint                                              2     2      0      68
  1313 ;;                                              2 COMMON     2     2      0
  1314 ;; ---------------------------------------------------------------------------------
  1315 ;; (2) _send_char                                            1     1      0      22
  1316 ;;                                              2 COMMON     1     1      0
  1317 ;; ---------------------------------------------------------------------------------
  1318 ;; (1) _abs                                                  4     2      2      66
  1319 ;;                                              2 COMMON     4     2      2
  1320 ;; ---------------------------------------------------------------------------------
  1321 ;; (1) _rx                                                   0     0      0       0
  1322 ;; ---------------------------------------------------------------------------------
  1323 ;; (1) _tx                                                   0     0      0       0
  1324 ;; ---------------------------------------------------------------------------------
  1325 ;; Estimated maximum stack depth 6
  1326 ;; ---------------------------------------------------------------------------------
  1327 ;; (Depth) Function   	        Calls       Base Space   Used Autos Params    Refs
  1328 ;; ---------------------------------------------------------------------------------
  1329 ;; (7) _ngat                                                 2     2      0       0
  1330 ;;                                              0 COMMON     2     2      0
  1331 ;; ---------------------------------------------------------------------------------
  1332 ;; Estimated maximum stack depth 7
  1333 ;; ---------------------------------------------------------------------------------
  1334 ;; Call Graph Graphs:
  1335 ;; _main (ROOT)
  1336 ;;   _lcd_init
  1337 ;;     _lcd_put_byte
  1338 ;;     _lcd_busy
  1339 ;;   _tx
  1340 ;;   _rx
  1341 ;;   _abs
  1342 ;;   ___altoft
  1343 ;;     ___ftpack
  1344 ;;   ___ftmul
  1345 ;;     ___ftpack
  1346 ;;     ___altoft (ARG)
  1347 ;;       ___ftpack
  1348 ;;     ___fttol (ARG)
  1349 ;;       ___ftpack (ARG)
  1350 ;;       ___awmod (ARG)
  1351 ;;       ___awdiv (ARG)
  1352 ;;         ___awmod (ARG)
  1353 ;;       ___bmul (ARG)
  1354 ;;         ___lbmod (ARG)
  1355 ;;         ___lbdiv (ARG)
  1356 ;;           ___lbmod (ARG)
  1357 ;;     ___awdiv (ARG)
  1358 ;;       ___awmod (ARG)
  1359 ;;     ___awmod (ARG)
  1360 ;;     ___bmul (ARG)
  1361 ;;       ___lbmod (ARG)
  1362 ;;       ___lbdiv (ARG)
  1363 ;;         ___lbmod (ARG)
  1364 ;;     ___lbdiv (ARG)
  1365 ;;       ___lbmod (ARG)
  1366 ;;     ___lbmod (ARG)
  1367 ;;   ___ftadd
  1368 ;;     ___ftpack
  1369 ;;     ___ftmul (ARG)
  1370 ;;       ___ftpack
  1371 ;;       ___altoft (ARG)
  1372 ;;         ___ftpack
  1373 ;;       ___fttol (ARG)
  1374 ;;         ___ftpack (ARG)
  1375 ;;         ___awmod (ARG)
  1376 ;;         ___awdiv (ARG)
  1377 ;;           ___awmod (ARG)
  1378 ;;         ___bmul (ARG)
  1379 ;;           ___lbmod (ARG)
  1380 ;;           ___lbdiv (ARG)
  1381 ;;             ___lbmod (ARG)
  1382 ;;       ___awdiv (ARG)
  1383 ;;         ___awmod (ARG)
  1384 ;;       ___awmod (ARG)
  1385 ;;       ___bmul (ARG)
  1386 ;;         ___lbmod (ARG)
  1387 ;;         ___lbdiv (ARG)
  1388 ;;           ___lbmod (ARG)
  1389 ;;       ___lbdiv (ARG)
  1390 ;;         ___lbmod (ARG)
  1391 ;;       ___lbmod (ARG)
  1392 ;;     ___altoft (ARG)
  1393 ;;       ___ftpack
  1394 ;;     ___lbmod (ARG)
  1395 ;;     ___bmul (ARG)
  1396 ;;       ___lbmod (ARG)
  1397 ;;       ___lbdiv (ARG)
  1398 ;;         ___lbmod (ARG)
  1399 ;;     ___lbdiv (ARG)
  1400 ;;       ___lbmod (ARG)
  1401 ;;   _lcd_gotoxy
  1402 ;;     _lcd_put_byte
  1403 ;;     _lcd_busy
  1404 ;;   _printf
  1405 ;;     __doprnt
  1406 ;;       Absolute function(Fake)
  1407 ;;       _putch
  1408 ;;         _lcd_putc
  1409 ;;           _lcd_put_byte
  1410 ;;           _lcd_busy
  1411 ;;           _lcd_gotoxy
  1412 ;;             _lcd_put_byte
  1413 ;;             _lcd_busy
  1414 ;;           _isprint
  1415 ;;         ___llmod (ARG)
  1416 ;;           ___lldiv (ARG)
  1417 ;;         ___lldiv (ARG)
  1418 ;;       _isdigit
  1419 ;;       ___wmul
  1420 ;;       ___ftge
  1421 ;;       ___ftneg
  1422 ;;       ___awdiv
  1423 ;;         ___awmod (ARG)
  1424 ;;       _scale
  1425 ;;         ___awmod
  1426 ;;         ___awdiv
  1427 ;;           ___awmod (ARG)
  1428 ;;         ___ftmul
  1429 ;;           ___ftpack
  1430 ;;           ___altoft (ARG)
  1431 ;;             ___ftpack
  1432 ;;           ___fttol (ARG)
  1433 ;;             ___ftpack (ARG)
  1434 ;;             ___awmod (ARG)
  1435 ;;             ___awdiv (ARG)
  1436 ;;               ___awmod (ARG)
  1437 ;;             ___bmul (ARG)
  1438 ;;               ___lbmod (ARG)
  1439 ;;               ___lbdiv (ARG)
  1440 ;;                 ___lbmod (ARG)
  1441 ;;           ___awdiv (ARG)
  1442 ;;             ___awmod (ARG)
  1443 ;;           ___awmod (ARG)
  1444 ;;           ___bmul (ARG)
  1445 ;;             ___lbmod (ARG)
  1446 ;;             ___lbdiv (ARG)
  1447 ;;               ___lbmod (ARG)
  1448 ;;           ___lbdiv (ARG)
  1449 ;;             ___lbmod (ARG)
  1450 ;;           ___lbmod (ARG)
  1451 ;;         ___bmul
  1452 ;;           ___lbmod (ARG)
  1453 ;;           ___lbdiv (ARG)
  1454 ;;             ___lbmod (ARG)
  1455 ;;         ___fttol (ARG)
  1456 ;;           ___ftpack (ARG)
  1457 ;;           ___awmod (ARG)
  1458 ;;           ___awdiv (ARG)
  1459 ;;             ___awmod (ARG)
  1460 ;;           ___bmul (ARG)
  1461 ;;             ___lbmod (ARG)
  1462 ;;             ___lbdiv (ARG)
  1463 ;;               ___lbmod (ARG)
  1464 ;;       ___ftmul
  1465 ;;         ___ftpack
  1466 ;;         ___altoft (ARG)
  1467 ;;           ___ftpack
  1468 ;;         ___fttol (ARG)
  1469 ;;           ___ftpack (ARG)
  1470 ;;           ___awmod (ARG)
  1471 ;;           ___awdiv (ARG)
  1472 ;;             ___awmod (ARG)
  1473 ;;           ___bmul (ARG)
  1474 ;;             ___lbmod (ARG)
  1475 ;;             ___lbdiv (ARG)
  1476 ;;               ___lbmod (ARG)
  1477 ;;         ___awdiv (ARG)
  1478 ;;           ___awmod (ARG)
  1479 ;;         ___awmod (ARG)
  1480 ;;         ___bmul (ARG)
  1481 ;;           ___lbmod (ARG)
  1482 ;;           ___lbdiv (ARG)
  1483 ;;             ___lbmod (ARG)
  1484 ;;         ___lbdiv (ARG)
  1485 ;;           ___lbmod (ARG)
  1486 ;;         ___lbmod (ARG)
  1487 ;;       _fround
  1488 ;;         ___lbmod
  1489 ;;         ___bmul
  1490 ;;           ___lbmod (ARG)
  1491 ;;           ___lbdiv (ARG)
  1492 ;;             ___lbmod (ARG)
  1493 ;;         ___lbdiv
  1494 ;;           ___lbmod (ARG)
  1495 ;;         ___ftmul
  1496 ;;           ___ftpack
  1497 ;;           ___altoft (ARG)
  1498 ;;             ___ftpack
  1499 ;;           ___fttol (ARG)
  1500 ;;             ___ftpack (ARG)
  1501 ;;             ___awmod (ARG)
  1502 ;;             ___awdiv (ARG)
  1503 ;;               ___awmod (ARG)
  1504 ;;             ___bmul (ARG)
  1505 ;;               ___lbmod (ARG)
  1506 ;;               ___lbdiv (ARG)
  1507 ;;                 ___lbmod (ARG)
  1508 ;;           ___awdiv (ARG)
  1509 ;;             ___awmod (ARG)
  1510 ;;           ___awmod (ARG)
  1511 ;;           ___bmul (ARG)
  1512 ;;             ___lbmod (ARG)
  1513 ;;             ___lbdiv (ARG)
  1514 ;;               ___lbmod (ARG)
  1515 ;;           ___lbdiv (ARG)
  1516 ;;             ___lbmod (ARG)
  1517 ;;           ___lbmod (ARG)
  1518 ;;         ___ftadd (ARG)
  1519 ;;           ___ftpack
  1520 ;;           ___ftmul (ARG)
  1521 ;;             ___ftpack
  1522 ;;             ___altoft (ARG)
  1523 ;;               ___ftpack
  1524 ;;             ___fttol (ARG)
  1525 ;;               ___ftpack (ARG)
  1526 ;;               ___awmod (ARG)
  1527 ;;               ___awdiv (ARG)
  1528 ;;                 ___awmod (ARG)
  1529 ;;               ___bmul (ARG)
  1530 ;;                 ___lbmod (ARG)
  1531 ;;                 ___lbdiv (ARG)
  1532 ;;                   ___lbmod (ARG)
  1533 ;;             ___awdiv (ARG)
  1534 ;;               ___awmod (ARG)
  1535 ;;             ___awmod (ARG)
  1536 ;;             ___bmul (ARG)
  1537 ;;               ___lbmod (ARG)
  1538 ;;               ___lbdiv (ARG)
  1539 ;;                 ___lbmod (ARG)
  1540 ;;             ___lbdiv (ARG)
  1541 ;;               ___lbmod (ARG)
  1542 ;;             ___lbmod (ARG)
  1543 ;;           ___altoft (ARG)
  1544 ;;             ___ftpack
  1545 ;;           ___lbmod (ARG)
  1546 ;;           ___bmul (ARG)
  1547 ;;             ___lbmod (ARG)
  1548 ;;             ___lbdiv (ARG)
  1549 ;;               ___lbmod (ARG)
  1550 ;;           ___lbdiv (ARG)
  1551 ;;             ___lbmod (ARG)
  1552 ;;       ___ftadd
  1553 ;;         ___ftpack
  1554 ;;         ___ftmul (ARG)
  1555 ;;           ___ftpack
  1556 ;;           ___altoft (ARG)
  1557 ;;             ___ftpack
  1558 ;;           ___fttol (ARG)
  1559 ;;             ___ftpack (ARG)
  1560 ;;             ___awmod (ARG)
  1561 ;;             ___awdiv (ARG)
  1562 ;;               ___awmod (ARG)
  1563 ;;             ___bmul (ARG)
  1564 ;;               ___lbmod (ARG)
  1565 ;;               ___lbdiv (ARG)
  1566 ;;                 ___lbmod (ARG)
  1567 ;;           ___awdiv (ARG)
  1568 ;;             ___awmod (ARG)
  1569 ;;           ___awmod (ARG)
  1570 ;;           ___bmul (ARG)
  1571 ;;             ___lbmod (ARG)
  1572 ;;             ___lbdiv (ARG)
  1573 ;;               ___lbmod (ARG)
  1574 ;;           ___lbdiv (ARG)
  1575 ;;             ___lbmod (ARG)
  1576 ;;           ___lbmod (ARG)
  1577 ;;         ___altoft (ARG)
  1578 ;;           ___ftpack
  1579 ;;         ___lbmod (ARG)
  1580 ;;         ___bmul (ARG)
  1581 ;;           ___lbmod (ARG)
  1582 ;;           ___lbdiv (ARG)
  1583 ;;             ___lbmod (ARG)
  1584 ;;         ___lbdiv (ARG)
  1585 ;;           ___lbmod (ARG)
  1586 ;;       ___fttol
  1587 ;;         ___ftpack (ARG)
  1588 ;;         ___awmod (ARG)
  1589 ;;         ___awdiv (ARG)
  1590 ;;           ___awmod (ARG)
  1591 ;;         ___bmul (ARG)
  1592 ;;           ___lbmod (ARG)
  1593 ;;           ___lbdiv (ARG)
  1594 ;;             ___lbmod (ARG)
  1595 ;;       __div_to_l_
  1596 ;;       __tdiv_to_l_
  1597 ;;       ___lltoft
  1598 ;;         ___ftpack
  1599 ;;       ___ftsub
  1600 ;;         ___ftadd
  1601 ;;           ___ftpack
  1602 ;;           ___ftmul (ARG)
  1603 ;;             ___ftpack
  1604 ;;             ___altoft (ARG)
  1605 ;;               ___ftpack
  1606 ;;             ___fttol (ARG)
  1607 ;;               ___ftpack (ARG)
  1608 ;;               ___awmod (ARG)
  1609 ;;               ___awdiv (ARG)
  1610 ;;                 ___awmod (ARG)
  1611 ;;               ___bmul (ARG)
  1612 ;;                 ___lbmod (ARG)
  1613 ;;                 ___lbdiv (ARG)
  1614 ;;                   ___lbmod (ARG)
  1615 ;;             ___awdiv (ARG)
  1616 ;;               ___awmod (ARG)
  1617 ;;             ___awmod (ARG)
  1618 ;;             ___bmul (ARG)
  1619 ;;               ___lbmod (ARG)
  1620 ;;               ___lbdiv (ARG)
  1621 ;;                 ___lbmod (ARG)
  1622 ;;             ___lbdiv (ARG)
  1623 ;;               ___lbmod (ARG)
  1624 ;;             ___lbmod (ARG)
  1625 ;;           ___altoft (ARG)
  1626 ;;             ___ftpack
  1627 ;;           ___lbmod (ARG)
  1628 ;;           ___bmul (ARG)
  1629 ;;             ___lbmod (ARG)
  1630 ;;             ___lbdiv (ARG)
  1631 ;;               ___lbmod (ARG)
  1632 ;;           ___lbdiv (ARG)
  1633 ;;             ___lbmod (ARG)
  1634 ;;         ___lltoft (ARG)
  1635 ;;           ___ftpack
  1636 ;;       ___lldiv
  1637 ;;       ___llmod
  1638 ;;         ___lldiv (ARG)
  1639 ;;   _sprintf
  1640 ;;     __doprnt
  1641 ;;       Absolute function(Fake)
  1642 ;;       _putch
  1643 ;;         _lcd_putc
  1644 ;;           _lcd_put_byte
  1645 ;;           _lcd_busy
  1646 ;;           _lcd_gotoxy
  1647 ;;             _lcd_put_byte
  1648 ;;             _lcd_busy
  1649 ;;           _isprint
  1650 ;;         ___llmod (ARG)
  1651 ;;           ___lldiv (ARG)
  1652 ;;         ___lldiv (ARG)
  1653 ;;       _isdigit
  1654 ;;       ___wmul
  1655 ;;       ___ftge
  1656 ;;       ___ftneg
  1657 ;;       ___awdiv
  1658 ;;         ___awmod (ARG)
  1659 ;;       _scale
  1660 ;;         ___awmod
  1661 ;;         ___awdiv
  1662 ;;           ___awmod (ARG)
  1663 ;;         ___ftmul
  1664 ;;           ___ftpack
  1665 ;;           ___altoft (ARG)
  1666 ;;             ___ftpack
  1667 ;;           ___fttol (ARG)
  1668 ;;             ___ftpack (ARG)
  1669 ;;             ___awmod (ARG)
  1670 ;;             ___awdiv (ARG)
  1671 ;;               ___awmod (ARG)
  1672 ;;             ___bmul (ARG)
  1673 ;;               ___lbmod (ARG)
  1674 ;;               ___lbdiv (ARG)
  1675 ;;                 ___lbmod (ARG)
  1676 ;;           ___awdiv (ARG)
  1677 ;;             ___awmod (ARG)
  1678 ;;           ___awmod (ARG)
  1679 ;;           ___bmul (ARG)
  1680 ;;             ___lbmod (ARG)
  1681 ;;             ___lbdiv (ARG)
  1682 ;;               ___lbmod (ARG)
  1683 ;;           ___lbdiv (ARG)
  1684 ;;             ___lbmod (ARG)
  1685 ;;           ___lbmod (ARG)
  1686 ;;         ___bmul
  1687 ;;           ___lbmod (ARG)
  1688 ;;           ___lbdiv (ARG)
  1689 ;;             ___lbmod (ARG)
  1690 ;;         ___fttol (ARG)
  1691 ;;           ___ftpack (ARG)
  1692 ;;           ___awmod (ARG)
  1693 ;;           ___awdiv (ARG)
  1694 ;;             ___awmod (ARG)
  1695 ;;           ___bmul (ARG)
  1696 ;;             ___lbmod (ARG)
  1697 ;;             ___lbdiv (ARG)
  1698 ;;               ___lbmod (ARG)
  1699 ;;       ___ftmul
  1700 ;;         ___ftpack
  1701 ;;         ___altoft (ARG)
  1702 ;;           ___ftpack
  1703 ;;         ___fttol (ARG)
  1704 ;;           ___ftpack (ARG)
  1705 ;;           ___awmod (ARG)
  1706 ;;           ___awdiv (ARG)
  1707 ;;             ___awmod (ARG)
  1708 ;;           ___bmul (ARG)
  1709 ;;             ___lbmod (ARG)
  1710 ;;             ___lbdiv (ARG)
  1711 ;;               ___lbmod (ARG)
  1712 ;;         ___awdiv (ARG)
  1713 ;;           ___awmod (ARG)
  1714 ;;         ___awmod (ARG)
  1715 ;;         ___bmul (ARG)
  1716 ;;           ___lbmod (ARG)
  1717 ;;           ___lbdiv (ARG)
  1718 ;;             ___lbmod (ARG)
  1719 ;;         ___lbdiv (ARG)
  1720 ;;           ___lbmod (ARG)
  1721 ;;         ___lbmod (ARG)
  1722 ;;       _fround
  1723 ;;         ___lbmod
  1724 ;;         ___bmul
  1725 ;;           ___lbmod (ARG)
  1726 ;;           ___lbdiv (ARG)
  1727 ;;             ___lbmod (ARG)
  1728 ;;         ___lbdiv
  1729 ;;           ___lbmod (ARG)
  1730 ;;         ___ftmul
  1731 ;;           ___ftpack
  1732 ;;           ___altoft (ARG)
  1733 ;;             ___ftpack
  1734 ;;           ___fttol (ARG)
  1735 ;;             ___ftpack (ARG)
  1736 ;;             ___awmod (ARG)
  1737 ;;             ___awdiv (ARG)
  1738 ;;               ___awmod (ARG)
  1739 ;;             ___bmul (ARG)
  1740 ;;               ___lbmod (ARG)
  1741 ;;               ___lbdiv (ARG)
  1742 ;;                 ___lbmod (ARG)
  1743 ;;           ___awdiv (ARG)
  1744 ;;             ___awmod (ARG)
  1745 ;;           ___awmod (ARG)
  1746 ;;           ___bmul (ARG)
  1747 ;;             ___lbmod (ARG)
  1748 ;;             ___lbdiv (ARG)
  1749 ;;               ___lbmod (ARG)
  1750 ;;           ___lbdiv (ARG)
  1751 ;;             ___lbmod (ARG)
  1752 ;;           ___lbmod (ARG)
  1753 ;;         ___ftadd (ARG)
  1754 ;;           ___ftpack
  1755 ;;           ___ftmul (ARG)
  1756 ;;             ___ftpack
  1757 ;;             ___altoft (ARG)
  1758 ;;               ___ftpack
  1759 ;;             ___fttol (ARG)
  1760 ;;               ___ftpack (ARG)
  1761 ;;               ___awmod (ARG)
  1762 ;;               ___awdiv (ARG)
  1763 ;;                 ___awmod (ARG)
  1764 ;;               ___bmul (ARG)
  1765 ;;                 ___lbmod (ARG)
  1766 ;;                 ___lbdiv (ARG)
  1767 ;;                   ___lbmod (ARG)
  1768 ;;             ___awdiv (ARG)
  1769 ;;               ___awmod (ARG)
  1770 ;;             ___awmod (ARG)
  1771 ;;             ___bmul (ARG)
  1772 ;;               ___lbmod (ARG)
  1773 ;;               ___lbdiv (ARG)
  1774 ;;                 ___lbmod (ARG)
  1775 ;;             ___lbdiv (ARG)
  1776 ;;               ___lbmod (ARG)
  1777 ;;             ___lbmod (ARG)
  1778 ;;           ___altoft (ARG)
  1779 ;;             ___ftpack
  1780 ;;           ___lbmod (ARG)
  1781 ;;           ___bmul (ARG)
  1782 ;;             ___lbmod (ARG)
  1783 ;;             ___lbdiv (ARG)
  1784 ;;               ___lbmod (ARG)
  1785 ;;           ___lbdiv (ARG)
  1786 ;;             ___lbmod (ARG)
  1787 ;;       ___ftadd
  1788 ;;         ___ftpack
  1789 ;;         ___ftmul (ARG)
  1790 ;;           ___ftpack
  1791 ;;           ___altoft (ARG)
  1792 ;;             ___ftpack
  1793 ;;           ___fttol (ARG)
  1794 ;;             ___ftpack (ARG)
  1795 ;;             ___awmod (ARG)
  1796 ;;             ___awdiv (ARG)
  1797 ;;               ___awmod (ARG)
  1798 ;;             ___bmul (ARG)
  1799 ;;               ___lbmod (ARG)
  1800 ;;               ___lbdiv (ARG)
  1801 ;;                 ___lbmod (ARG)
  1802 ;;           ___awdiv (ARG)
  1803 ;;             ___awmod (ARG)
  1804 ;;           ___awmod (ARG)
  1805 ;;           ___bmul (ARG)
  1806 ;;             ___lbmod (ARG)
  1807 ;;             ___lbdiv (ARG)
  1808 ;;               ___lbmod (ARG)
  1809 ;;           ___lbdiv (ARG)
  1810 ;;             ___lbmod (ARG)
  1811 ;;           ___lbmod (ARG)
  1812 ;;         ___altoft (ARG)
  1813 ;;           ___ftpack
  1814 ;;         ___lbmod (ARG)
  1815 ;;         ___bmul (ARG)
  1816 ;;           ___lbmod (ARG)
  1817 ;;           ___lbdiv (ARG)
  1818 ;;             ___lbmod (ARG)
  1819 ;;         ___lbdiv (ARG)
  1820 ;;           ___lbmod (ARG)
  1821 ;;       ___fttol
  1822 ;;         ___ftpack (ARG)
  1823 ;;         ___awmod (ARG)
  1824 ;;         ___awdiv (ARG)
  1825 ;;           ___awmod (ARG)
  1826 ;;         ___bmul (ARG)
  1827 ;;           ___lbmod (ARG)
  1828 ;;           ___lbdiv (ARG)
  1829 ;;             ___lbmod (ARG)
  1830 ;;       __div_to_l_
  1831 ;;       __tdiv_to_l_
  1832 ;;       ___lltoft
  1833 ;;         ___ftpack
  1834 ;;       ___ftsub
  1835 ;;         ___ftadd
  1836 ;;           ___ftpack
  1837 ;;           ___ftmul (ARG)
  1838 ;;             ___ftpack
  1839 ;;             ___altoft (ARG)
  1840 ;;               ___ftpack
  1841 ;;             ___fttol (ARG)
  1842 ;;               ___ftpack (ARG)
  1843 ;;               ___awmod (ARG)
  1844 ;;               ___awdiv (ARG)
  1845 ;;                 ___awmod (ARG)
  1846 ;;               ___bmul (ARG)
  1847 ;;                 ___lbmod (ARG)
  1848 ;;                 ___lbdiv (ARG)
  1849 ;;                   ___lbmod (ARG)
  1850 ;;             ___awdiv (ARG)
  1851 ;;               ___awmod (ARG)
  1852 ;;             ___awmod (ARG)
  1853 ;;             ___bmul (ARG)
  1854 ;;               ___lbmod (ARG)
  1855 ;;               ___lbdiv (ARG)
  1856 ;;                 ___lbmod (ARG)
  1857 ;;             ___lbdiv (ARG)
  1858 ;;               ___lbmod (ARG)
  1859 ;;             ___lbmod (ARG)
  1860 ;;           ___altoft (ARG)
  1861 ;;             ___ftpack
  1862 ;;           ___lbmod (ARG)
  1863 ;;           ___bmul (ARG)
  1864 ;;             ___lbmod (ARG)
  1865 ;;             ___lbdiv (ARG)
  1866 ;;               ___lbmod (ARG)
  1867 ;;           ___lbdiv (ARG)
  1868 ;;             ___lbmod (ARG)
  1869 ;;         ___lltoft (ARG)
  1870 ;;           ___ftpack
  1871 ;;       ___lldiv
  1872 ;;       ___llmod
  1873 ;;         ___lldiv (ARG)
  1874 ;;   _send_string
  1875 ;;     _send_char
  1876 ;;
  1877 ;; _ngat (ROOT)
  1878 ;;
  1879 ;; Address spaces:
  1880 ;;Name               Size   Autos  Total    Cost      Usage
  1881 ;;BITCOMMON            E      0       0       0        0.0%
  1882 ;;EEDATA             100      0       0       0        0.0%
  1883 ;;NULL                 0      0       0       0        0.0%
  1884 ;;CODE                 0      0       0       0        0.0%
  1885 ;;COMMON               E      C       C       1       85.7%
  1886 ;;BITSFR0              0      0       0       1        0.0%
  1887 ;;SFR0                 0      0       0       1        0.0%
  1888 ;;BITSFR1              0      0       0       2        0.0%
  1889 ;;SFR1                 0      0       0       2        0.0%
  1890 ;;STACK                0      0       6       2        0.0%
  1891 ;;ABS                  0      0      81       3        0.0%
  1892 ;;BITBANK0            50      0       0       4        0.0%
  1893 ;;BITSFR3              0      0       0       4        0.0%
  1894 ;;SFR3                 0      0       0       4        0.0%
  1895 ;;BANK0               50     48      48       5       90.0%
  1896 ;;BITSFR2              0      0       0       5        0.0%
  1897 ;;SFR2                 0      0       0       5        0.0%
  1898 ;;BITBANK1            50      0       0       6        0.0%
  1899 ;;BANK1               50     22      2D       7       56.3%
  1900 ;;BITBANK3            60      0       0       8        0.0%
  1901 ;;BANK3               60      0       0       9        0.0%
  1902 ;;BITBANK2            60      0       0      10        0.0%
  1903 ;;BANK2               60      0       0      11        0.0%
  1904 ;;DATA                 0      0      87      12        0.0%
  1905                           
  1906                           
  1907 ;; *************** function _main *****************
  1908 ;; Defined at:
  1909 ;;		line 21 in file "D:\TTVXL\Project TTVXL\BT n Thi 03\BT n Thi 03.c"
  1910 ;; Parameters:    Size  Location     Type
  1911 ;;		None
  1912 ;; Auto vars:     Size  Location     Type
  1913 ;;  data_tx        10   24[BANK1 ] unsigned char [10]
  1914 ;; Return value:  Size  Location     Type
  1915 ;;		None               void
  1916 ;; Registers used:
  1917 ;;		wreg, fsr0l, fsr0h, status,2, status,0, btemp+1, pclath, cstack
  1918 ;; Tracked objects:
  1919 ;;		On entry : 17F/0
  1920 ;;		On exit  : 160/0
  1921 ;;		Unchanged: 0/0
  1922 ;; Data sizes:     COMMON   BANK0   BANK1   BANK3   BANK2
  1923 ;;      Params:         0       0       0       0       0
  1924 ;;      Locals:         0       0      10       0       0
  1925 ;;      Temps:          0       3       0       0       0
  1926 ;;      Totals:         0       3      10       0       0
  1927 ;;Total ram usage:       13 bytes
  1928 ;; Hardware stack levels required when called:    7
  1929 ;; This function calls:
  1930 ;;		_lcd_init
  1931 ;;		_tx
  1932 ;;		_rx
  1933 ;;		_abs
  1934 ;;		___altoft
  1935 ;;		___ftmul
  1936 ;;		___ftadd
  1937 ;;		_lcd_gotoxy
  1938 ;;		_printf
  1939 ;;		_sprintf
  1940 ;;		_send_string
  1941 ;; This function is called by:
  1942 ;;		Startup code after reset
  1943 ;; This function uses a non-reentrant model
  1944 ;;
  1945  1706                     _main:	
  1946                           
  1947                           ;BT n Thi 03.c: 23: ANSEL = ANSELH = 0;
  1948                           
  1949                           ; Regs used in _main: [wreg-fsr0h+status,2+status,0+btemp+1+pclath+cstack]
  1950  1706  1683               	bsf	3,5	;RP0=1, select bank3
  1951  1707  1703               	bsf	3,6	;RP1=1, select bank3
  1952  1708  0189               	clrf	9	;volatile
  1953  1709  0188               	clrf	8	;volatile
  1954                           
  1955                           ;BT n Thi 03.c: 24: lcd_init();
  1956  170A  120A  118A  24C9   	fcall	_lcd_init
      +       160A  118A         
  1957                           
  1958                           ;BT n Thi 03.c: 25: TRISE1 = 0;
  1959  170F  1683               	bsf	3,5	;RP0=1, select bank1
  1960  1710  1089               	bcf	9,1
  1961                           
  1962                           ;BT n Thi 03.c: 28: TMR1CS = 0;
  1963  1711  1283               	bcf	3,5	;RP0=0, select bank0
  1964  1712  1090               	bcf	16,1
  1965                           
  1966                           ;BT n Thi 03.c: 29: T1CKPS1 = 0;T1CKPS0 = 0;
  1967  1713  1290               	bcf	16,5
  1968  1714  1210               	bcf	16,4
  1969                           
  1970                           ;BT n Thi 03.c: 30: T1SYNC = 1;
  1971  1715  1510               	bsf	16,2
  1972                           
  1973                           ;BT n Thi 03.c: 31: TMR1GE = 0;
  1974  1716  1310               	bcf	16,6
  1975                           
  1976                           ;BT n Thi 03.c: 32: TMR1H = TMR1L = 0;
  1977  1717  018E               	clrf	14	;volatile
  1978  1718  018F               	clrf	15	;volatile
  1979                           
  1980                           ;BT n Thi 03.c: 33: TMR1ON = 1;
  1981  1719  1410               	bsf	16,0
  1982                           
  1983                           ;BT n Thi 03.c: 35: TRISC2 = 1;
  1984  171A  1683               	bsf	3,5	;RP0=1, select bank1
  1985  171B  3005               	movlw	5
  1986  171C  1507               	bsf	7,2
  1987                           
  1988                           ;BT n Thi 03.c: 36: TRISC1 = 1;
  1989  171D  1487               	bsf	7,1
  1990                           
  1991                           ;BT n Thi 03.c: 38: CCP1CON = 0b00000101;
  1992  171E  1283               	bcf	3,5	;RP0=0, select bank0
  1993  171F  0097               	movwf	23	;volatile
  1994                           
  1995                           ;BT n Thi 03.c: 39: CCP2CON = 0b00000100;
  1996  1720  3004               	movlw	4
  1997  1721  009D               	movwf	29	;volatile
  1998                           
  1999                           ;BT n Thi 03.c: 41: CCP1IE = 1;
  2000  1722  1683               	bsf	3,5	;RP0=1, select bank1
  2001  1723  150C               	bsf	12,2
  2002                           
  2003                           ;BT n Thi 03.c: 42: CCP1IF = 0;
  2004  1724  1283               	bcf	3,5	;RP0=0, select bank0
  2005  1725  110C               	bcf	12,2
  2006                           
  2007                           ;BT n Thi 03.c: 43: PEIE = 1;
  2008  1726  170B               	bsf	11,6
  2009                           
  2010                           ;BT n Thi 03.c: 44: GIE = 1;
  2011  1727  178B               	bsf	11,7
  2012                           
  2013                           ;BT n Thi 03.c: 46: CCP2IE = 1;
  2014  1728  1683               	bsf	3,5	;RP0=1, select bank1
  2015  1729  140D               	bsf	13,0
  2016                           
  2017                           ;BT n Thi 03.c: 47: CCP2IF = 0;
  2018  172A  1283               	bcf	3,5	;RP0=0, select bank0
  2019  172B  100D               	bcf	13,0
  2020                           
  2021                           ;BT n Thi 03.c: 48: PEIE = 1;
  2022  172C  170B               	bsf	11,6
  2023                           
  2024                           ;BT n Thi 03.c: 49: GIE = 1;
  2025  172D  178B               	bsf	11,7
  2026                           
  2027                           ;BT n Thi 03.c: 52: tx();
  2028  172E  160A  118A  24FA   	fcall	_tx
      +       160A  118A         
  2029                           
  2030                           ;BT n Thi 03.c: 53: rx();
  2031  1733  160A  118A  252D   	fcall	_rx
      +       160A  118A         
  2032  1738                     l7633:	
  2033                           
  2034                           ;BT n Thi 03.c: 57: {
  2035                           ;BT n Thi 03.c: 58: _delay((unsigned long)((100)*(20000000/4000.0)));
  2036  1738  3003               	movlw	3
  2037  1739  00E7               	movwf	??_main+2
  2038  173A  308A               	movlw	138
  2039  173B  00E6               	movwf	??_main+1
  2040  173C  3056               	movlw	86
  2041  173D  00E5               	movwf	??_main
  2042  173E                     u4277:	
  2043  173E  0BE5               	decfsz	??_main,f
  2044  173F  2F3E               	goto	u4277
  2045  1740  0BE6               	decfsz	??_main+1,f
  2046  1741  2F3E               	goto	u4277
  2047  1742  0BE7               	decfsz	??_main+2,f
  2048  1743  2F3E               	goto	u4277
  2049  1744  2F45               	nop2
  2050                           
  2051                           ;BT n Thi 03.c: 59: RE1=1;
  2052  1745  1283               	bcf	3,5	;RP0=0, select bank0
  2053  1746  1303               	bcf	3,6	;RP1=0, select bank0
  2054  1747  3007               	movlw	7
  2055  1748  1489               	bsf	9,1
  2056                           
  2057                           ;BT n Thi 03.c: 60: _delay((unsigned long)((1)*(20000000/4000.0)));
  2058  1749  00E6               	movwf	??_main+1
  2059  174A  307D               	movlw	125
  2060  174B  00E5               	movwf	??_main
  2061  174C                     u4287:	
  2062  174C  0BE5               	decfsz	??_main,f
  2063  174D  2F4C               	goto	u4287
  2064  174E  0BE6               	decfsz	??_main+1,f
  2065  174F  2F4C               	goto	u4287
  2066                           
  2067                           ;BT n Thi 03.c: 61: RE1=0;
  2068  1750  1283               	bcf	3,5	;RP0=0, select bank0
  2069  1751  1303               	bcf	3,6	;RP1=0, select bank0
  2070  1752  1089               	bcf	9,1
  2071                           
  2072                           ;BT n Thi 03.c: 63: xung = abs(count2-count1);
  2073  1753  1683               	bsf	3,5	;RP0=1, select bank1
  2074  1754  0848               	movf	(_count2+1)^(0+128),w
  2075  1755  00F3               	movwf	?_abs+1
  2076  1756  0847               	movf	_count2^(0+128),w
  2077  1757  00F2               	movwf	?_abs
  2078  1758  0845               	movf	_count1^(0+128),w
  2079  1759  02F2               	subwf	?_abs,f
  2080  175A  0846               	movf	(_count1+1)^(0+128),w
  2081  175B  1C03               	skipc
  2082  175C  03F3               	decf	?_abs+1,f
  2083  175D  02F3               	subwf	?_abs+1,f
  2084  175E  160A  118A  24DE   	fcall	_abs
      +       160A  118A         
  2085  1763  0872               	movf	?_abs,w
  2086  1764  00C9               	movwf	_xung^(0+128)
  2087  1765  0873               	movf	?_abs+1,w
  2088  1766  00CA               	movwf	(_xung+1)^(0+128)
  2089  1767  3000               	movlw	0
  2090  1768  1BCA               	btfsc	(_xung+1)^(0+128),7
  2091  1769  30FF               	movlw	255
  2092  176A  00CB               	movwf	(_xung+2)^(0+128)
  2093  176B  00CC               	movwf	(_xung+3)^(0+128)
  2094                           
  2095                           ;BT n Thi 03.c: 64: d=(17000.0*xung*(1/5000000.0))+1;
  2096  176C  1283               	bcf	3,5	;RP0=0, select bank0
  2097  176D  3080               	movlw	128
  2098  176E  01C0               	clrf	?___ftadd
  2099  176F  00C1               	movwf	?___ftadd+1
  2100  1770  303F               	movlw	63
  2101  1771  00C2               	movwf	?___ftadd+2
  2102  1772  30D3               	movlw	211
  2103  1773  00B1               	movwf	?___ftmul
  2104  1774  305E               	movlw	94
  2105  1775  00B2               	movwf	?___ftmul+1
  2106  1776  303B               	movlw	59
  2107  1777  00B3               	movwf	?___ftmul+2
  2108  1778  1683               	bsf	3,5	;RP0=1, select bank1
  2109  1779  084C               	movf	(_xung+3)^(0+128),w
  2110  177A  1283               	bcf	3,5	;RP0=0, select bank0
  2111  177B  00A3               	movwf	?___altoft+3
  2112  177C  1683               	bsf	3,5	;RP0=1, select bank1
  2113  177D  084B               	movf	(_xung+2)^(0+128),w
  2114  177E  1283               	bcf	3,5	;RP0=0, select bank0
  2115  177F  00A2               	movwf	?___altoft+2
  2116  1780  1683               	bsf	3,5	;RP0=1, select bank1
  2117  1781  084A               	movf	(_xung+1)^(0+128),w
  2118  1782  1283               	bcf	3,5	;RP0=0, select bank0
  2119  1783  00A1               	movwf	?___altoft+1
  2120  1784  1683               	bsf	3,5	;RP0=1, select bank1
  2121  1785  0849               	movf	_xung^(0+128),w
  2122  1786  1283               	bcf	3,5	;RP0=0, select bank0
  2123  1787  00A0               	movwf	?___altoft
  2124  1788  120A  118A  2127   	fcall	___altoft
      +       160A  118A         
  2125  178D  0820               	movf	?___altoft,w
  2126  178E  00B4               	movwf	?___ftmul+3
  2127  178F  0821               	movf	?___altoft+1,w
  2128  1790  00B5               	movwf	?___ftmul+4
  2129  1791  0822               	movf	?___altoft+2,w
  2130  1792  00B6               	movwf	?___ftmul+5
  2131  1793  120A  118A  236B   	fcall	___ftmul
      +       160A  118A         
  2132  1798  0831               	movf	?___ftmul,w
  2133  1799  00C3               	movwf	?___ftadd+3
  2134  179A  0832               	movf	?___ftmul+1,w
  2135  179B  00C4               	movwf	?___ftadd+4
  2136  179C  0833               	movf	?___ftmul+2,w
  2137  179D  00C5               	movwf	?___ftadd+5
  2138  179E  120A  118A  2025   	fcall	___ftadd
      +       160A  118A         
  2139  17A3  0840               	movf	?___ftadd,w
  2140  17A4  1683               	bsf	3,5	;RP0=1, select bank1
  2141  17A5  00C2               	movwf	_d^(0+128)
  2142  17A6  1283               	bcf	3,5	;RP0=0, select bank0
  2143  17A7  0841               	movf	?___ftadd+1,w
  2144  17A8  1683               	bsf	3,5	;RP0=1, select bank1
  2145  17A9  00C3               	movwf	(_d+1)^(0+128)
  2146  17AA  1283               	bcf	3,5	;RP0=0, select bank0
  2147  17AB  0842               	movf	?___ftadd+2,w
  2148  17AC  1683               	bsf	3,5	;RP0=1, select bank1
  2149  17AD  00C4               	movwf	(_d+2)^(0+128)
  2150  17AE  3000               	movlw	0
  2151                           
  2152                           ;BT n Thi 03.c: 65: lcd_gotoxy(0,0);
  2153  17AF  01F7               	clrf	?_lcd_gotoxy
  2154  17B0  120A  118A  2482   	fcall	_lcd_gotoxy
      +       160A  118A         
  2155                           
  2156                           ;BT n Thi 03.c: 66: printf("xung: %05u",xung);
  2157  17B5  1683               	bsf	3,5	;RP0=1, select bank1
  2158  17B6  084C               	movf	(_xung+3)^(0+128),w
  2159  17B7  1283               	bcf	3,5	;RP0=0, select bank0
  2160  17B8  00E0               	movwf	?_printf+3
  2161  17B9  1683               	bsf	3,5	;RP0=1, select bank1
  2162  17BA  084B               	movf	(_xung+2)^(0+128),w
  2163  17BB  1283               	bcf	3,5	;RP0=0, select bank0
  2164  17BC  00DF               	movwf	?_printf+2
  2165  17BD  1683               	bsf	3,5	;RP0=1, select bank1
  2166  17BE  084A               	movf	(_xung+1)^(0+128),w
  2167  17BF  1283               	bcf	3,5	;RP0=0, select bank0
  2168  17C0  00DE               	movwf	?_printf+1
  2169  17C1  1683               	bsf	3,5	;RP0=1, select bank1
  2170  17C2  0849               	movf	_xung^(0+128),w
  2171  17C3  1283               	bcf	3,5	;RP0=0, select bank0
  2172  17C4  00DD               	movwf	?_printf
  2173  17C5  3077               	movlw	(STR_1-__stringbase)& (0+255)
  2174  17C6  160A  118A  24EC   	fcall	_printf
      +       160A  118A         
  2175  17CB  3000               	movlw	0
  2176                           
  2177                           ;BT n Thi 03.c: 67: lcd_gotoxy(0,1);
  2178  17CC  01F7               	clrf	?_lcd_gotoxy
  2179  17CD  0AF7               	incf	?_lcd_gotoxy,f
  2180  17CE  120A  118A  2482   	fcall	_lcd_gotoxy
      +       160A  118A         
  2181                           
  2182                           ;BT n Thi 03.c: 68: printf("d: %5.2f",d);
  2183  17D3  1683               	bsf	3,5	;RP0=1, select bank1
  2184  17D4  0842               	movf	_d^(0+128),w
  2185  17D5  1283               	bcf	3,5	;RP0=0, select bank0
  2186  17D6  00DD               	movwf	?_printf
  2187  17D7  1683               	bsf	3,5	;RP0=1, select bank1
  2188  17D8  0843               	movf	(_d+1)^(0+128),w
  2189  17D9  1283               	bcf	3,5	;RP0=0, select bank0
  2190  17DA  00DE               	movwf	?_printf+1
  2191  17DB  1683               	bsf	3,5	;RP0=1, select bank1
  2192  17DC  0844               	movf	(_d+2)^(0+128),w
  2193  17DD  1283               	bcf	3,5	;RP0=0, select bank0
  2194  17DE  00DF               	movwf	?_printf+2
  2195  17DF  3082               	movlw	(STR_2-__stringbase)& (0+255)
  2196  17E0  160A  118A  24EC   	fcall	_printf
      +       160A  118A         
  2197                           
  2198                           ;BT n Thi 03.c: 69: sprintf(data_tx,"d:%5.2f",d);
  2199  17E5  308B               	movlw	(STR_3-__stringbase)& (0+255)
  2200  17E6  00DD               	movwf	?_sprintf
  2201  17E7  1683               	bsf	3,5	;RP0=1, select bank1
  2202  17E8  0842               	movf	_d^(0+128),w
  2203  17E9  1283               	bcf	3,5	;RP0=0, select bank0
  2204  17EA  00DE               	movwf	?_sprintf+1
  2205  17EB  1683               	bsf	3,5	;RP0=1, select bank1
  2206  17EC  0843               	movf	(_d+1)^(0+128),w
  2207  17ED  1283               	bcf	3,5	;RP0=0, select bank0
  2208  17EE  00DF               	movwf	?_sprintf+2
  2209  17EF  1683               	bsf	3,5	;RP0=1, select bank1
  2210  17F0  0844               	movf	(_d+2)^(0+128),w
  2211  17F1  1283               	bcf	3,5	;RP0=0, select bank0
  2212  17F2  00E0               	movwf	?_sprintf+3
  2213  17F3  30B8               	movlw	main@data_tx& (0+255)
  2214  17F4  120A  118A  27EE   	fcall	_sprintf
      +       160A  118A         
  2215                           
  2216                           ;BT n Thi 03.c: 70: send_string(data_tx);
  2217  17F9  30B8               	movlw	main@data_tx& (0+255)
  2218  17FA  160A  118A  2519   	fcall	_send_string
      +       160A  118A         
  2219  17FF  2F38               	goto	l7633
  2220  1800                     __end_of_main:	
  2221                           
  2222                           	psect	text648
  2223  07EE                     __ptext648:	
  2224 ;; =============== function _main ends ============
  2225                           
  2226                           
  2227 ;; *************** function _sprintf *****************
  2228 ;; Defined at:
  2229 ;;		line 14 in file "C:\Program Files (x86)\HI-TECH Software\PICC\9.83\sources\sprintf.c"
  2230 ;; Parameters:    Size  Location     Type
  2231 ;;  wh              1    wreg     PTR unsigned char 
  2232 ;;		 -> main@data_tx(10), 
  2233 ;;  f               1   61[BANK0 ] PTR const unsigned char 
  2234 ;;		 -> STR_3(8), 
  2235 ;; Auto vars:     Size  Location     Type
  2236 ;;  wh              1   65[BANK0 ] PTR unsigned char 
  2237 ;;		 -> main@data_tx(10), 
  2238 ;;  pb              2   67[BANK0 ] struct __prbuf
  2239 ;;  ap              1   66[BANK0 ] PTR void [1]
  2240 ;;		 -> ?_sprintf(2), ?_printf(2), 
  2241 ;; Return value:  Size  Location     Type
  2242 ;;                  2   61[BANK0 ] int 
  2243 ;; Registers used:
  2244 ;;		wreg, fsr0l, fsr0h, status,2, status,0, btemp+1, pclath, cstack
  2245 ;; Tracked objects:
  2246 ;;		On entry : 60/0
  2247 ;;		On exit  : 160/0
  2248 ;;		Unchanged: 0/0
  2249 ;; Data sizes:     COMMON   BANK0   BANK1   BANK3   BANK2
  2250 ;;      Params:         0       4       0       0       0
  2251 ;;      Locals:         0       4       0       0       0
  2252 ;;      Temps:          0       0       0       0       0
  2253 ;;      Totals:         0       8       0       0       0
  2254 ;;Total ram usage:        8 bytes
  2255 ;; Hardware stack levels used:    1
  2256 ;; Hardware stack levels required when called:    6
  2257 ;; This function calls:
  2258 ;;		__doprnt
  2259 ;; This function is called by:
  2260 ;;		_main
  2261 ;; This function uses a non-reentrant model
  2262 ;;
  2263  07EE                     _sprintf:	
  2264                           
  2265                           ; Regs used in _sprintf: [wreg-fsr0h+status,2+status,0+btemp+1+pclath+cstack]
  2266                           ;sprintf@wh stored from wreg
  2267  07EE  00E1               	movwf	sprintf@wh
  2268  07EF  00E3               	movwf	sprintf@pb
  2269  07F0  305E               	movlw	(?_sprintf+1)& (0+255)
  2270  07F1  01E4               	clrf	sprintf@pb+1
  2271  07F2  00E2               	movwf	sprintf@ap
  2272  07F3  085D               	movf	sprintf@f,w
  2273  07F4  00D6               	movwf	?__doprnt
  2274  07F5  3062               	movlw	sprintf@ap& (0+255)
  2275  07F6  00D7               	movwf	?__doprnt+1
  2276  07F7  3063               	movlw	sprintf@pb& (0+255)
  2277  07F8  120A  158A  2009   	fcall	__doprnt
  2278  07FB  0863               	movf	sprintf@pb,w
  2279  07FC  0084               	movwf	4
  2280  07FD  1383               	bcf	3,7	;select IRP bank0
  2281  07FE  0180               	clrf	0
  2282  07FF  0008               	return
  2283  0800                     __end_of_sprintf:	
  2284                           
  2285                           	psect	text649
  2286  14EC                     __ptext649:	
  2287 ;; =============== function _sprintf ends ============
  2288                           
  2289                           
  2290 ;; *************** function _printf *****************
  2291 ;; Defined at:
  2292 ;;		line 14 in file "C:\Program Files (x86)\HI-TECH Software\PICC\9.83\sources\printf.c"
  2293 ;; Parameters:    Size  Location     Type
  2294 ;;  f               1    wreg     PTR const unsigned char 
  2295 ;;		 -> STR_2(9), STR_1(11), 
  2296 ;; Auto vars:     Size  Location     Type
  2297 ;;  f               1   65[BANK0 ] PTR const unsigned char 
  2298 ;;		 -> STR_2(9), STR_1(11), 
  2299 ;;  pb              2   67[BANK0 ] struct __prbuf
  2300 ;;  ap              1   66[BANK0 ] PTR void [1]
  2301 ;;		 -> ?_sprintf(2), ?_printf(2), 
  2302 ;; Return value:  Size  Location     Type
  2303 ;;                  2   61[BANK0 ] int 
  2304 ;; Registers used:
  2305 ;;		wreg, fsr0l, fsr0h, status,2, status,0, btemp+1, pclath, cstack
  2306 ;; Tracked objects:
  2307 ;;		On entry : 60/0
  2308 ;;		On exit  : 60/0
  2309 ;;		Unchanged: 0/0
  2310 ;; Data sizes:     COMMON   BANK0   BANK1   BANK3   BANK2
  2311 ;;      Params:         0       4       0       0       0
  2312 ;;      Locals:         0       4       0       0       0
  2313 ;;      Temps:          0       0       0       0       0
  2314 ;;      Totals:         0       8       0       0       0
  2315 ;;Total ram usage:        8 bytes
  2316 ;; Hardware stack levels used:    1
  2317 ;; Hardware stack levels required when called:    6
  2318 ;; This function calls:
  2319 ;;		__doprnt
  2320 ;; This function is called by:
  2321 ;;		_main
  2322 ;; This function uses a non-reentrant model
  2323 ;;
  2324  14EC                     _printf:	
  2325                           
  2326                           ; Regs used in _printf: [wreg-fsr0h+status,2+status,0+btemp+1+pclath+cstack]
  2327                           ;printf@f stored from wreg
  2328  14EC  00E1               	movwf	printf@f
  2329  14ED  3001               	movlw	(fp__putch-fpbase)& (0+255)
  2330  14EE  01E3               	clrf	printf@pb
  2331  14EF  00E4               	movwf	printf@pb+1
  2332  14F0  305D               	movlw	?_printf& (0+255)
  2333  14F1  00E2               	movwf	printf@ap
  2334                           
  2335                           ;	Return value of _printf is never used
  2336  14F2  0861               	movf	printf@f,w
  2337  14F3  00D6               	movwf	?__doprnt
  2338  14F4  3062               	movlw	printf@ap& (0+255)
  2339  14F5  00D7               	movwf	?__doprnt+1
  2340  14F6  3063               	movlw	printf@pb& (0+255)
  2341  14F7  120A  158A  2809   	ljmp	__doprnt
  2342  14FA                     __end_of_printf:	
  2343                           
  2344                           	psect	text650
  2345  0809                     __ptext650:	
  2346 ;; =============== function _printf ends ============
  2347                           
  2348                           
  2349 ;; *************** function __doprnt *****************
  2350 ;; Defined at:
  2351 ;;		line 455 in file "C:\Program Files (x86)\HI-TECH Software\PICC\9.83\lib\doprnt.c"
  2352 ;; Parameters:    Size  Location     Type
  2353 ;;  pb              1    wreg     PTR struct __prbuf
  2354 ;;		 -> sprintf@pb(2), printf@pb(2), 
  2355 ;;  f               1   54[BANK0 ] PTR const unsigned char 
  2356 ;;		 -> STR_3(8), STR_2(9), STR_1(11), 
  2357 ;;  ap              1   55[BANK0 ] PTR PTR void 
  2358 ;;		 -> sprintf@ap(1), printf@ap(1), 
  2359 ;; Auto vars:     Size  Location     Type
  2360 ;;  pb              1   23[BANK1 ] PTR struct __prbuf
  2361 ;;		 -> sprintf@pb(2), printf@pb(2), 
  2362 ;;  _val            4    7[BANK1 ] struct .
  2363 ;;  fval            3   17[BANK1 ] struct .
  2364 ;;  integ           3    4[BANK1 ] struct .
  2365 ;;  ival            3    0        struct .
  2366 ;;  prec            2   20[BANK1 ] int 
  2367 ;;  width           2   15[BANK1 ] int 
  2368 ;;  exp             2   13[BANK1 ] int 
  2369 ;;  flag            2   11[BANK1 ] unsigned short 
  2370 ;;  c               1   22[BANK1 ] char 
  2371 ;;  d               1    0        unsigned char 
  2372 ;; Return value:  Size  Location     Type
  2373 ;;                  2   54[BANK0 ] int 
  2374 ;; Registers used:
  2375 ;;		wreg, fsr0l, fsr0h, status,2, status,0, btemp+1, pclath, cstack
  2376 ;; Tracked objects:
  2377 ;;		On entry : 60/0
  2378 ;;		On exit  : 60/0
  2379 ;;		Unchanged: 0/0
  2380 ;; Data sizes:     COMMON   BANK0   BANK1   BANK3   BANK2
  2381 ;;      Params:         0       2       0       0       0
  2382 ;;      Locals:         0       0      24       0       0
  2383 ;;      Temps:          0       5       0       0       0
  2384 ;;      Totals:         0       7      24       0       0
  2385 ;;Total ram usage:       31 bytes
  2386 ;; Hardware stack levels used:    1
  2387 ;; Hardware stack levels required when called:    5
  2388 ;; This function calls:
  2389 ;;		Absolute function
  2390 ;;		_putch
  2391 ;;		_isdigit
  2392 ;;		___wmul
  2393 ;;		___ftge
  2394 ;;		___ftneg
  2395 ;;		___awdiv
  2396 ;;		_scale
  2397 ;;		___ftmul
  2398 ;;		_fround
  2399 ;;		___ftadd
  2400 ;;		___fttol
  2401 ;;		__div_to_l_
  2402 ;;		__tdiv_to_l_
  2403 ;;		___lltoft
  2404 ;;		___ftsub
  2405 ;;		___lldiv
  2406 ;;		___llmod
  2407 ;; This function is called by:
  2408 ;;		_printf
  2409 ;;		_sprintf
  2410 ;; This function uses a non-reentrant model
  2411 ;;
  2412  0809                     __doprnt:	
  2413                           
  2414                           ; Regs used in __doprnt: [wreg-fsr0h+status,2+status,0+btemp+1+pclath+cstack]
  2415                           ;__doprnt@pb stored from wreg
  2416  0809  1683               	bsf	3,5	;RP0=1, select bank1
  2417  080A  00B7               	movwf	__doprnt@pb^(0+128)
  2418  080B                     l7561:	
  2419  080B  1283               	bcf	3,5	;RP0=0, select bank0
  2420  080C  1303               	bcf	3,6	;RP1=0, select bank0
  2421  080D  0856               	movf	__doprnt@f,w
  2422  080E  0AD6               	incf	__doprnt@f,f
  2423  080F  0084               	movwf	4
  2424  0810  160A  118A  2000   	fcall	stringdir
      +       120A  158A         
  2425  0815  1683               	bsf	3,5	;RP0=1, select bank1
  2426  0816  00B6               	movwf	__doprnt@c^(0+128)
  2427  0817  08B6               	movf	__doprnt@c^(0+128),f
  2428  0818  1903               	btfsc	3,2
  2429  0819  2EAE               	goto	l7563
  2430  081A  0836               	movf	__doprnt@c^(0+128),w
  2431  081B  3A25               	xorlw	37
  2432  081C  1903               	skipnz
  2433  081D  2837               	goto	l7209
  2434  081E  0837               	movf	__doprnt@pb^(0+128),w
  2435  081F  3E01               	addlw	1
  2436  0820  0084               	movwf	4
  2437  0821  1383               	bcf	3,7	;select IRP bank0
  2438  0822  0880               	movf	0,f
  2439  0823  1903               	skipnz
  2440  0824  282D               	goto	l7205
  2441  0825  0836               	movf	__doprnt@c^(0+128),w
  2442  0826  26C1               	fcall	PL3	;call to abstracted procedure
  2443  0827  120A  118A  2100   	fcall	fptable
      +       120A  158A         
  2444  082C  280B               	goto	l7561
  2445  082D                     l7205:	
  2446  082D  0837               	movf	__doprnt@pb^(0+128),w
  2447  082E  0084               	movwf	4
  2448  082F  0800               	movf	0,w
  2449  0830  0084               	movwf	4
  2450  0831  0836               	movf	__doprnt@c^(0+128),w
  2451  0832  0080               	movwf	0
  2452  0833  0837               	movf	__doprnt@pb^(0+128),w
  2453  0834  0084               	movwf	4
  2454  0835  0A80               	incf	0,f
  2455  0836  280B               	goto	l7561
  2456  0837                     l7209:	
  2457  0837  01AF               	clrf	__doprnt@width^(0+128)
  2458  0838  01B0               	clrf	(__doprnt@width+1)^(0+128)
  2459  0839  01AB               	clrf	__doprnt@flag^(0+128)
  2460  083A  01AC               	clrf	(__doprnt@flag+1)^(0+128)
  2461  083B  2840               	goto	l7215
  2462  083C                     l2228:	
  2463  083C  1683               	bsf	3,5	;RP0=1, select bank1
  2464  083D  152B               	bsf	__doprnt@flag^(0+128),2
  2465  083E  1283               	bcf	3,5	;RP0=0, select bank0
  2466  083F  0AD6               	incf	__doprnt@f,f
  2467  0840                     l7215:	
  2468  0840  1283               	bcf	3,5	;RP0=0, select bank0
  2469  0841  0856               	movf	__doprnt@f,w
  2470  0842  0084               	movwf	4
  2471  0843  160A  118A  2000   	fcall	stringdir
      +       120A  158A         
  2472                           
  2473                           ; Switch size 1, requested type "space"
  2474                           ; Number of cases is 1, Range of values is 48 to 48
  2475                           ; switch strategies available:
  2476                           ; Name         Instructions Cycles
  2477                           ; simple_byte            4     3 (average)
  2478                           ; direct_byte           14    11 (fixed)
  2479                           ; jumptable            263     9 (fixed)
  2480                           ;	Chosen strategy is simple_byte
  2481  0848  3A30               	xorlw	48	; case 48
  2482  0849  1903               	skipnz
  2483  084A  283C               	goto	l2228
  2484  084B  284C               	goto	l7217
  2485  084C                     l7217:	
  2486  084C  0856               	movf	__doprnt@f,w
  2487  084D  0084               	movwf	4
  2488  084E  160A  118A  2000   	fcall	stringdir
      +       120A  158A         
  2489  0853  27EA  120A  158A   	fcall	_isdigit
  2490  0856  1C03               	btfss	3,0
  2491  0857  2884               	goto	l7227
  2492  0858  1683               	bsf	3,5	;RP0=1, select bank1
  2493  0859  01AF               	clrf	__doprnt@width^(0+128)
  2494  085A  01B0               	clrf	(__doprnt@width+1)^(0+128)
  2495  085B                     l7221:	
  2496  085B  1683               	bsf	3,5	;RP0=1, select bank1
  2497  085C  0830               	movf	(__doprnt@width+1)^(0+128),w
  2498  085D  00F3               	movwf	?___wmul+1
  2499  085E  082F               	movf	__doprnt@width^(0+128),w
  2500  085F  00F2               	movwf	?___wmul
  2501  0860  300A               	movlw	10
  2502  0861  00F4               	movwf	?___wmul+2
  2503  0862  01F5               	clrf	?___wmul+3
  2504  0863  120A  118A  20E7   	fcall	___wmul
      +       120A  158A         
  2505  0868  1283               	bcf	3,5	;RP0=0, select bank0
  2506  0869  0856               	movf	__doprnt@f,w
  2507  086A  0084               	movwf	4
  2508  086B  160A  118A  2000   	fcall	stringdir
      +       120A  158A         
  2509  0870  271F  120A  158A   	fcall	PL17	;call to abstracted procedure
  2510  0873  00AF               	movwf	__doprnt@width^(0+128)
  2511  0874  275D               	fcall	PL34	;call to abstracted procedure
  2512  0875  00B0               	movwf	(__doprnt@width+1)^(0+128)
  2513  0876  1283               	bcf	3,5	;RP0=0, select bank0
  2514  0877  0AD6               	incf	__doprnt@f,f
  2515  0878  0856               	movf	__doprnt@f,w
  2516  0879  0084               	movwf	4
  2517  087A  160A  118A  2000   	fcall	stringdir
      +       120A  158A         
  2518  087F  27EA  120A  158A   	fcall	_isdigit
  2519  0882  1803               	btfsc	3,0
  2520  0883  285B               	goto	l7221
  2521  0884                     l7227:	
  2522  0884  0856               	movf	__doprnt@f,w
  2523  0885  0084               	movwf	4
  2524  0886  160A  118A  2000   	fcall	stringdir
      +       120A  158A         
  2525  088B  3A2E               	xorlw	46
  2526  088C  1D03               	skipz
  2527  088D  28C2               	goto	l7241
  2528  088E  1683               	bsf	3,5	;RP0=1, select bank1
  2529  088F  172C               	bsf	(__doprnt@flag^(0+128)+1),6
  2530  0890  1283               	bcf	3,5	;RP0=0, select bank0
  2531  0891  0AD6               	incf	__doprnt@f,f
  2532  0892  1683               	bsf	3,5	;RP0=1, select bank1
  2533  0893  01B4               	clrf	__doprnt@prec^(0+128)
  2534  0894  01B5               	clrf	(__doprnt@prec+1)^(0+128)
  2535  0895                     l7239:	
  2536  0895  1283               	bcf	3,5	;RP0=0, select bank0
  2537  0896  0856               	movf	__doprnt@f,w
  2538  0897  0084               	movwf	4
  2539  0898  160A  118A  2000   	fcall	stringdir
      +       120A  158A         
  2540  089D  27EA  120A  158A   	fcall	_isdigit
  2541  08A0  1C03               	btfss	3,0
  2542  08A1  28CC               	goto	l7249
  2543  08A2  1683               	bsf	3,5	;RP0=1, select bank1
  2544  08A3  0835               	movf	(__doprnt@prec+1)^(0+128),w
  2545  08A4  00F3               	movwf	?___wmul+1
  2546  08A5  0834               	movf	__doprnt@prec^(0+128),w
  2547  08A6  00F2               	movwf	?___wmul
  2548  08A7  300A               	movlw	10
  2549  08A8  00F4               	movwf	?___wmul+2
  2550  08A9  01F5               	clrf	?___wmul+3
  2551  08AA  120A  118A  20E7   	fcall	___wmul
      +       120A  158A         
  2552  08AF  1283               	bcf	3,5	;RP0=0, select bank0
  2553  08B0  0856               	movf	__doprnt@f,w
  2554  08B1  0084               	movwf	4
  2555  08B2  160A  118A  2000   	fcall	stringdir
      +       120A  158A         
  2556  08B7  271F  120A  158A   	fcall	PL17	;call to abstracted procedure
  2557  08BA  00B4               	movwf	__doprnt@prec^(0+128)
  2558  08BB  275D  120A  158A   	fcall	PL34	;call to abstracted procedure
  2559  08BE  00B5               	movwf	(__doprnt@prec+1)^(0+128)
  2560  08BF  1283               	bcf	3,5	;RP0=0, select bank0
  2561  08C0  0AD6               	incf	__doprnt@f,f
  2562  08C1  2895               	goto	l7239
  2563  08C2                     l7241:	
  2564  08C2  1683               	bsf	3,5	;RP0=1, select bank1
  2565  08C3  01B4               	clrf	__doprnt@prec^(0+128)
  2566  08C4  01B5               	clrf	(__doprnt@prec+1)^(0+128)
  2567  08C5  162C               	bsf	(__doprnt@flag^(0+128)+1),4
  2568  08C6  28CC               	goto	l7249
  2569  08C7                     l2243:	
  2570  08C7  152C               	bsf	(__doprnt@flag^(0+128)+1),2
  2571  08C8  28E1               	goto	l7251
  2572  08C9                     l7245:	
  2573  08C9  30C0               	movlw	192
  2574  08CA  04AB               	iorwf	__doprnt@flag^(0+128),f
  2575  08CB  28E1               	goto	l7251
  2576  08CC                     l7249:	
  2577  08CC  1283               	bcf	3,5	;RP0=0, select bank0
  2578  08CD  0856               	movf	__doprnt@f,w
  2579  08CE  0AD6               	incf	__doprnt@f,f
  2580  08CF  0084               	movwf	4
  2581  08D0  160A  118A  2000   	fcall	stringdir
      +       120A  158A         
  2582  08D5  1683               	bsf	3,5	;RP0=1, select bank1
  2583  08D6  00B6               	movwf	__doprnt@c^(0+128)
  2584                           
  2585                           ; Switch size 1, requested type "space"
  2586                           ; Number of cases is 3, Range of values is 0 to 117
  2587                           ; switch strategies available:
  2588                           ; Name         Instructions Cycles
  2589                           ; simple_byte           10     6 (average)
  2590                           ; jumptable            260     6 (fixed)
  2591                           ; rangetable           122     6 (fixed)
  2592                           ; spacedrange          242     9 (fixed)
  2593                           ; locatedrange         118     3 (fixed)
  2594                           ;	Chosen strategy is simple_byte
  2595  08D7  3A00               	xorlw	0	; case 0
  2596  08D8  1903               	skipnz
  2597  08D9  2EAE               	goto	l7563
  2598  08DA  3A66               	xorlw	102	; case 102
  2599  08DB  1903               	skipnz
  2600  08DC  28C7               	goto	l2243
  2601  08DD  3A13               	xorlw	19	; case 117
  2602  08DE  1903               	skipnz
  2603  08DF  28C9               	goto	l7245
  2604  08E0  280B               	goto	l7561
  2605  08E1                     l7251:	
  2606  08E1  1283               	bcf	3,5	;RP0=0, select bank0
  2607  08E2  3007               	movlw	7
  2608  08E3  01D8               	clrf	??__doprnt
  2609  08E4  1683               	bsf	3,5	;RP0=1, select bank1
  2610  08E5  052C               	andwf	(__doprnt@flag+1)^(0+128),w
  2611  08E6  1283               	bcf	3,5	;RP0=0, select bank0
  2612  08E7  00D9               	movwf	??__doprnt+1
  2613  08E8  0458               	iorwf	??__doprnt,w
  2614  08E9  1903               	skipnz
  2615  08EA  2D10               	goto	l7453
  2616  08EB  1683               	bsf	3,5	;RP0=1, select bank1
  2617  08EC  1E2C               	btfss	(__doprnt@flag+1)^(0+128),4
  2618  08ED  28F1               	goto	l7257
  2619  08EE  3006               	movlw	6
  2620  08EF  00B4               	movwf	__doprnt@prec^(0+128)
  2621  08F0  01B5               	clrf	(__doprnt@prec+1)^(0+128)
  2622  08F1                     l7257:	
  2623  08F1  1283               	bcf	3,5	;RP0=0, select bank0
  2624  08F2  0857               	movf	__doprnt@ap,w
  2625  08F3  0084               	movwf	4
  2626  08F4  1383               	bcf	3,7	;select IRP bank0
  2627  08F5  0800               	movf	0,w
  2628  08F6  00D8               	movwf	??__doprnt
  2629  08F7  3003               	movlw	3
  2630  08F8  0780               	addwf	0,f
  2631  08F9  0858               	movf	??__doprnt,w
  2632  08FA  0084               	movwf	4
  2633  08FB  0800               	movf	0,w
  2634  08FC  1683               	bsf	3,5	;RP0=1, select bank1
  2635  08FD  00B1               	movwf	__doprnt@fval^(0+128)
  2636  08FE  0A84               	incf	4,f
  2637  08FF  0800               	movf	0,w
  2638  0900  00B2               	movwf	(__doprnt@fval+1)^(0+128)
  2639  0901  0A84               	incf	4,f
  2640  0902  0800               	movf	0,w
  2641  0903  00B3               	movwf	(__doprnt@fval+2)^(0+128)
  2642  0904  0831               	movf	__doprnt@fval^(0+128),w
  2643  0905  00F2               	movwf	?___ftge
  2644  0906  0832               	movf	(__doprnt@fval+1)^(0+128),w
  2645  0907  00F3               	movwf	?___ftge+1
  2646  0908  0833               	movf	(__doprnt@fval+2)^(0+128),w
  2647  0909  00F4               	movwf	?___ftge+2
  2648  090A  01F5               	clrf	?___ftge+3
  2649  090B  01F6               	clrf	?___ftge+4
  2650  090C  01F7               	clrf	?___ftge+5
  2651  090D  27BE  120A  158A   	fcall	___ftge
  2652  0910  1803               	btfsc	3,0
  2653  0911  2923               	goto	l7265
  2654  0912  0831               	movf	__doprnt@fval^(0+128),w
  2655  0913  00F2               	movwf	?___ftneg
  2656  0914  0832               	movf	(__doprnt@fval+1)^(0+128),w
  2657  0915  00F3               	movwf	?___ftneg+1
  2658  0916  0833               	movf	(__doprnt@fval+2)^(0+128),w
  2659  0917  00F4               	movwf	?___ftneg+2
  2660  0918  27F8  120A  158A   	fcall	___ftneg
  2661  091B  0872               	movf	?___ftneg,w
  2662  091C  00B1               	movwf	__doprnt@fval^(0+128)
  2663  091D  0873               	movf	?___ftneg+1,w
  2664  091E  00B2               	movwf	(__doprnt@fval+1)^(0+128)
  2665  091F  0874               	movf	?___ftneg+2,w
  2666  0920  00B3               	movwf	(__doprnt@fval+2)^(0+128)
  2667  0921  3003               	movlw	3
  2668  0922  04AB               	iorwf	__doprnt@flag^(0+128),f
  2669  0923                     l7265:	
  2670  0923  01AD               	clrf	__doprnt@exp^(0+128)
  2671  0924  01AE               	clrf	(__doprnt@exp+1)^(0+128)
  2672  0925  0833               	movf	(__doprnt@fval+2)^(0+128),w
  2673  0926  0432               	iorwf	(__doprnt@fval+1)^(0+128),w
  2674  0927  0431               	iorwf	__doprnt@fval^(0+128),w
  2675  0928  1903               	skipnz
  2676  0929  29C1               	goto	l7297
  2677  092A  30B1               	movlw	low __doprnt@fval
  2678  092B  0084               	movwf	4
  2679  092C  0800               	movf	0,w
  2680  092D  1283               	bcf	3,5	;RP0=0, select bank0
  2681  092E  00D8               	movwf	??__doprnt
  2682  092F  0A84               	incf	4,f
  2683  0930  0800               	movf	0,w
  2684  0931  00D9               	movwf	??__doprnt+1
  2685  0932  0A84               	incf	4,f
  2686  0933  0800               	movf	0,w
  2687  0934  00DA               	movwf	??__doprnt+2
  2688  0935  0A84               	incf	4,f
  2689  0936  0800               	movf	0,w
  2690  0937  00DB               	movwf	??__doprnt+3
  2691  0938  300F               	movlw	15
  2692  0939                     u3705:	
  2693  0939  1003               	clrc
  2694  093A  0CDB               	rrf	??__doprnt+3,f
  2695  093B  0CDA               	rrf	??__doprnt+2,f
  2696  093C  0CD9               	rrf	??__doprnt+1,f
  2697  093D  0CD8               	rrf	??__doprnt,f
  2698  093E  3EFF               	addlw	-1
  2699  093F  1D03               	skipz
  2700  0940  2939               	goto	u3705
  2701  0941  0859               	movf	??__doprnt+1,w
  2702  0942  1683               	bsf	3,5	;RP0=1, select bank1
  2703  0943  00AE               	movwf	(__doprnt@exp+1)^(0+128)
  2704  0944  1283               	bcf	3,5	;RP0=0, select bank0
  2705  0945  0858               	movf	??__doprnt,w
  2706  0946  1683               	bsf	3,5	;RP0=1, select bank1
  2707  0947  00AD               	movwf	__doprnt@exp^(0+128)
  2708  0948  3082               	movlw	-126
  2709  0949  01AE               	clrf	(__doprnt@exp+1)^(0+128)
  2710  094A  07AD               	addwf	__doprnt@exp^(0+128),f
  2711  094B  1C03               	skipc
  2712  094C  03AE               	decf	(__doprnt@exp+1)^(0+128),f
  2713  094D  30FF               	movlw	-1
  2714  094E  07AD               	addwf	__doprnt@exp^(0+128),f
  2715  094F  1C03               	skipc
  2716  0950  03AE               	decf	(__doprnt@exp+1)^(0+128),f
  2717  0951  3003               	movlw	3
  2718  0952  00F2               	movwf	?___wmul
  2719  0953  01F3               	clrf	?___wmul+1
  2720  0954  082E               	movf	(__doprnt@exp+1)^(0+128),w
  2721  0955  00F5               	movwf	?___wmul+3
  2722  0956  082D               	movf	__doprnt@exp^(0+128),w
  2723  0957  00F4               	movwf	?___wmul+2
  2724  0958  120A  118A  20E7   	fcall	___wmul
      +       120A  158A         
  2725  095D  0873               	movf	?___wmul+1,w
  2726  095E  00AE               	movwf	(__doprnt@exp+1)^(0+128)
  2727  095F  0872               	movf	?___wmul,w
  2728  0960  00AD               	movwf	__doprnt@exp^(0+128)
  2729  0961  300A               	movlw	10
  2730  0962  00F8               	movwf	?___awdiv
  2731  0963  01F9               	clrf	?___awdiv+1
  2732  0964  082E               	movf	(__doprnt@exp+1)^(0+128),w
  2733  0965  00FB               	movwf	?___awdiv+3
  2734  0966  082D               	movf	__doprnt@exp^(0+128),w
  2735  0967  00FA               	movwf	?___awdiv+2
  2736  0968  120A  118A  22E8   	fcall	___awdiv
      +       120A  158A         
  2737  096D  0879               	movf	?___awdiv+1,w
  2738  096E  1683               	bsf	3,5	;RP0=1, select bank1
  2739  096F  00AE               	movwf	(__doprnt@exp+1)^(0+128)
  2740  0970  0878               	movf	?___awdiv,w
  2741  0971  00AD               	movwf	__doprnt@exp^(0+128)
  2742  0972  1FAE               	btfss	(__doprnt@exp+1)^(0+128),7
  2743  0973  2978               	goto	l7285
  2744  0974  30FF               	movlw	-1
  2745  0975  07AD               	addwf	__doprnt@exp^(0+128),f
  2746  0976  1C03               	skipc
  2747  0977  03AE               	decf	(__doprnt@exp+1)^(0+128),f
  2748  0978                     l7285:	
  2749  0978  032D               	decf	__doprnt@exp^(0+128),w
  2750  0979  3AFF               	xorlw	255
  2751  097A  120A  118A  2156   	fcall	_scale
      +       120A  158A         
  2752  097F  26FC  120A  158A   	fcall	PL14	;call to abstracted procedure
  2753  0982  2714               	fcall	PL16	;call to abstracted procedure
  2754  0983  1683               	bsf	3,5	;RP0=1, select bank1
  2755  0984  0824               	movf	__doprnt@integ^(0+128),w
  2756  0985  1283               	bcf	3,5	;RP0=0, select bank0
  2757  0986  00B4               	movwf	?___ftmul+3
  2758  0987  1683               	bsf	3,5	;RP0=1, select bank1
  2759  0988  0825               	movf	(__doprnt@integ+1)^(0+128),w
  2760  0989  1283               	bcf	3,5	;RP0=0, select bank0
  2761  098A  00B5               	movwf	?___ftmul+4
  2762  098B  1683               	bsf	3,5	;RP0=1, select bank1
  2763  098C  0826               	movf	(__doprnt@integ+2)^(0+128),w
  2764  098D  1283               	bcf	3,5	;RP0=0, select bank0
  2765  098E  00B6               	movwf	?___ftmul+5
  2766  098F  120A  118A  236B   	fcall	___ftmul
      +       120A  158A         
  2767  0994  0831               	movf	?___ftmul,w
  2768  0995  1683               	bsf	3,5	;RP0=1, select bank1
  2769  0996  00A4               	movwf	__doprnt@integ^(0+128)
  2770  0997  1283               	bcf	3,5	;RP0=0, select bank0
  2771  0998  0832               	movf	?___ftmul+1,w
  2772  0999  1683               	bsf	3,5	;RP0=1, select bank1
  2773  099A  00A5               	movwf	(__doprnt@integ+1)^(0+128)
  2774  099B  1283               	bcf	3,5	;RP0=0, select bank0
  2775  099C  0833               	movf	?___ftmul+2,w
  2776  099D  1683               	bsf	3,5	;RP0=1, select bank1
  2777  099E  00A6               	movwf	(__doprnt@integ+2)^(0+128)
  2778  099F  274F  120A  158A   	fcall	PL25	;call to abstracted procedure
  2779  09A2  3080               	movlw	128
  2780  09A3  01F5               	clrf	?___ftge+3
  2781  09A4  00F6               	movwf	?___ftge+4
  2782  09A5  303F               	movlw	63
  2783  09A6  00F7               	movwf	?___ftge+5
  2784  09A7  27BE  120A  158A   	fcall	___ftge
  2785  09AA  1803               	btfsc	3,0
  2786  09AB  29B1               	goto	l7293
  2787  09AC  30FF               	movlw	-1
  2788  09AD  07AD               	addwf	__doprnt@exp^(0+128),f
  2789  09AE  1C03               	skipc
  2790  09AF  03AE               	decf	(__doprnt@exp+1)^(0+128),f
  2791  09B0  29C1               	goto	l7297
  2792  09B1                     l7293:	
  2793  09B1  274F  120A  158A   	fcall	PL25	;call to abstracted procedure
  2794  09B4  3020               	movlw	32
  2795  09B5  01F5               	clrf	?___ftge+3
  2796  09B6  00F6               	movwf	?___ftge+4
  2797  09B7  3041               	movlw	65
  2798  09B8  00F7               	movwf	?___ftge+5
  2799  09B9  27BE  120A  158A   	fcall	___ftge
  2800  09BC  1C03               	btfss	3,0
  2801  09BD  29C1               	goto	l7297
  2802  09BE  0AAD               	incf	__doprnt@exp^(0+128),f
  2803  09BF  1903               	skipnz
  2804  09C0  0AAE               	incf	(__doprnt@exp+1)^(0+128),f
  2805  09C1                     l7297:	
  2806  09C1  0835               	movf	(__doprnt@prec+1)^(0+128),w
  2807  09C2  3A80               	xorlw	128
  2808  09C3  00FF               	movwf	127
  2809  09C4  3080               	movlw	128
  2810  09C5  027F               	subwf	127,w
  2811  09C6  1D03               	skipz
  2812  09C7  29CA               	goto	u3745
  2813  09C8  300D               	movlw	13
  2814  09C9  0234               	subwf	__doprnt@prec^(0+128),w
  2815  09CA                     u3745:	
  2816  09CA  1803               	skipnc
  2817  09CB  29F5               	goto	l7301
  2818  09CC  27BB               	call	PL41	;select bank 1
  2819  09CD  0834               	movf	__doprnt@prec^(0+128),w
  2820  09CE  120A  118A  2653   	fcall	_fround
      +       120A  158A         
  2821  09D3  084C               	movf	?_fround,w
  2822  09D4  00C0               	movwf	?___ftadd
  2823  09D5  084D               	movf	?_fround+1,w
  2824  09D6  00C1               	movwf	?___ftadd+1
  2825  09D7  084E               	movf	?_fround+2,w
  2826  09D8  00C2               	movwf	?___ftadd+2
  2827  09D9  1683               	bsf	3,5	;RP0=1, select bank1
  2828  09DA  0831               	movf	__doprnt@fval^(0+128),w
  2829  09DB  1283               	bcf	3,5	;RP0=0, select bank0
  2830  09DC  00C3               	movwf	?___ftadd+3
  2831  09DD  1683               	bsf	3,5	;RP0=1, select bank1
  2832  09DE  0832               	movf	(__doprnt@fval+1)^(0+128),w
  2833  09DF  1283               	bcf	3,5	;RP0=0, select bank0
  2834  09E0  00C4               	movwf	?___ftadd+4
  2835  09E1  1683               	bsf	3,5	;RP0=1, select bank1
  2836  09E2  0833               	movf	(__doprnt@fval+2)^(0+128),w
  2837  09E3  1283               	bcf	3,5	;RP0=0, select bank0
  2838  09E4  00C5               	movwf	?___ftadd+5
  2839  09E5  120A  118A  2025   	fcall	___ftadd
      +       120A  158A         
  2840  09EA  0840               	movf	?___ftadd,w
  2841  09EB  1683               	bsf	3,5	;RP0=1, select bank1
  2842  09EC  00B1               	movwf	__doprnt@fval^(0+128)
  2843  09ED  1283               	bcf	3,5	;RP0=0, select bank0
  2844  09EE  0841               	movf	?___ftadd+1,w
  2845  09EF  1683               	bsf	3,5	;RP0=1, select bank1
  2846  09F0  00B2               	movwf	(__doprnt@fval+1)^(0+128)
  2847  09F1  1283               	bcf	3,5	;RP0=0, select bank0
  2848  09F2  0842               	movf	?___ftadd+2,w
  2849  09F3  1683               	bsf	3,5	;RP0=1, select bank1
  2850  09F4  00B3               	movwf	(__doprnt@fval+2)^(0+128)
  2851  09F5                     l7301:	
  2852  09F5  27BB               	call	PL41	;select bank 1
  2853  09F6  082E               	movf	(__doprnt@exp+1)^(0+128),w
  2854  09F7  3A80               	xorlw	128
  2855  09F8  00FF               	movwf	127
  2856  09F9  3080               	movlw	128
  2857  09FA  027F               	subwf	127,w
  2858  09FB  1D03               	skipz
  2859  09FC  29FF               	goto	u3755
  2860  09FD  300A               	movlw	10
  2861  09FE  022D               	subwf	__doprnt@exp^(0+128),w
  2862  09FF                     u3755:	
  2863  09FF  1803               	skipnc
  2864  0A00  2A20               	goto	l7309
  2865  0A01  27BB               	call	PL41	;select bank 1
  2866  0A02  0833               	movf	(__doprnt@fval+2)^(0+128),w
  2867  0A03  0432               	iorwf	(__doprnt@fval+1)^(0+128),w
  2868  0A04  0431               	iorwf	__doprnt@fval^(0+128),w
  2869  0A05  1903               	skipnz
  2870  0A06  2A61               	goto	l7325
  2871  0A07  0831               	movf	__doprnt@fval^(0+128),w
  2872  0A08  2709               	fcall	PL15	;call to abstracted procedure
  2873  0A09  160A  118A  2561   	fcall	___fttol
      +       120A  158A         
  2874  0A0E  0827               	movf	?___fttol+3,w
  2875  0A0F  0426               	iorwf	?___fttol+2,w
  2876  0A10  0425               	iorwf	?___fttol+1,w
  2877  0A11  0424               	iorwf	?___fttol,w
  2878  0A12  1D03               	skipz
  2879  0A13  2A61               	goto	l7325
  2880  0A14  1683               	bsf	3,5	;RP0=1, select bank1
  2881  0A15  082E               	movf	(__doprnt@exp+1)^(0+128),w
  2882  0A16  3A80               	xorlw	128
  2883  0A17  00FF               	movwf	127
  2884  0A18  3080               	movlw	128
  2885  0A19  027F               	subwf	127,w
  2886  0A1A  1D03               	skipz
  2887  0A1B  2A1E               	goto	u3785
  2888  0A1C  3002               	movlw	2
  2889  0A1D  022D               	subwf	__doprnt@exp^(0+128),w
  2890  0A1E                     u3785:	
  2891  0A1E  1C03               	skipc
  2892  0A1F  2A61               	goto	l7325
  2893  0A20                     l7309:	
  2894  0A20  27BB               	call	PL41	;select bank 1
  2895  0A21  274F  120A  158A   	fcall	PL25	;call to abstracted procedure
  2896  0A24  3070               	movlw	112
  2897  0A25  00F5               	movwf	?___ftge+3
  2898  0A26  3089               	movlw	137
  2899  0A27  00F6               	movwf	?___ftge+4
  2900  0A28  3040               	movlw	64
  2901  0A29  00F7               	movwf	?___ftge+5
  2902  0A2A  27BE  120A  158A   	fcall	___ftge
  2903  0A2D  1803               	btfsc	3,0
  2904  0A2E  2A31               	goto	l7313
  2905  0A2F  30F7               	movlw	-9
  2906  0A30  2A32               	goto	L1
  2907  0A31                     l7313:	
  2908  0A31  30F8               	movlw	-8
  2909  0A32                     L1:	
  2910  0A32  07AD               	addwf	__doprnt@exp^(0+128),f
  2911  0A33  1C03               	skipc
  2912  0A34  03AE               	decf	(__doprnt@exp+1)^(0+128),f
  2913  0A35  082D               	movf	__doprnt@exp^(0+128),w
  2914  0A36  120A  118A  2156   	fcall	_scale
      +       120A  158A         
  2915  0A3B  26FC               	fcall	PL14	;call to abstracted procedure
  2916  0A3C  00F2               	movwf	?__tdiv_to_l_
  2917  0A3D  0832               	movf	(__doprnt@fval+1)^(0+128),w
  2918  0A3E  00F3               	movwf	?__tdiv_to_l_+1
  2919  0A3F  0833               	movf	(__doprnt@fval+2)^(0+128),w
  2920  0A40  00F4               	movwf	?__tdiv_to_l_+2
  2921  0A41  0824               	movf	__doprnt@integ^(0+128),w
  2922  0A42  00F5               	movwf	?__tdiv_to_l_+3
  2923  0A43  0825               	movf	(__doprnt@integ+1)^(0+128),w
  2924  0A44  00F6               	movwf	?__tdiv_to_l_+4
  2925  0A45  0826               	movf	(__doprnt@integ+2)^(0+128),w
  2926  0A46  00F7               	movwf	?__tdiv_to_l_+5
  2927  0A47  160A  118A  25C3   	fcall	__tdiv_to_l_
      +       120A  158A         
  2928  0A4C  0875               	movf	?__tdiv_to_l_+3,w
  2929  0A4D  1683               	bsf	3,5	;RP0=1, select bank1
  2930  0A4E  00A3               	movwf	(__doprnt$3208+3)^(0+128)
  2931  0A4F  0874               	movf	?__tdiv_to_l_+2,w
  2932  0A50  00A2               	movwf	(__doprnt$3208+2)^(0+128)
  2933  0A51  0873               	movf	?__tdiv_to_l_+1,w
  2934  0A52  00A1               	movwf	(__doprnt$3208+1)^(0+128)
  2935  0A53  0872               	movf	?__tdiv_to_l_,w
  2936  0A54  00A0               	movwf	__doprnt$3208^(0+128)
  2937  0A55  0823               	movf	(__doprnt$3208+3)^(0+128),w
  2938  0A56  00AA               	movwf	(__doprnt@_val+3)^(0+128)
  2939  0A57  0822               	movf	(__doprnt$3208+2)^(0+128),w
  2940  0A58  00A9               	movwf	(__doprnt@_val+2)^(0+128)
  2941  0A59  0821               	movf	(__doprnt$3208+1)^(0+128),w
  2942  0A5A  00A8               	movwf	(__doprnt@_val+1)^(0+128)
  2943  0A5B  0820               	movf	__doprnt$3208^(0+128),w
  2944  0A5C  00A7               	movwf	__doprnt@_val^(0+128)
  2945  0A5D  01B1               	clrf	__doprnt@fval^(0+128)
  2946  0A5E  01B2               	clrf	(__doprnt@fval+1)^(0+128)
  2947  0A5F  01B3               	clrf	(__doprnt@fval+2)^(0+128)
  2948  0A60  2AA4               	goto	l7329
  2949  0A61                     l7325:	
  2950  0A61  27BB               	call	PL41	;select bank 1
  2951  0A62  0831               	movf	__doprnt@fval^(0+128),w
  2952  0A63  2709               	fcall	PL15	;call to abstracted procedure
  2953  0A64  160A  118A  2561   	fcall	___fttol
      +       120A  158A         
  2954  0A69  26EE               	fcall	PL9	;call to abstracted procedure
  2955  0A6A  1683               	bsf	3,5	;RP0=1, select bank1
  2956  0A6B  00A7               	movwf	__doprnt@_val^(0+128)
  2957  0A6C  082A               	movf	(__doprnt@_val+3)^(0+128),w
  2958  0A6D  1283               	bcf	3,5	;RP0=0, select bank0
  2959  0A6E  00A3               	movwf	?___lltoft+3
  2960  0A6F  1683               	bsf	3,5	;RP0=1, select bank1
  2961  0A70  0829               	movf	(__doprnt@_val+2)^(0+128),w
  2962  0A71  1283               	bcf	3,5	;RP0=0, select bank0
  2963  0A72  00A2               	movwf	?___lltoft+2
  2964  0A73  1683               	bsf	3,5	;RP0=1, select bank1
  2965  0A74  0828               	movf	(__doprnt@_val+1)^(0+128),w
  2966  0A75  1283               	bcf	3,5	;RP0=0, select bank0
  2967  0A76  00A1               	movwf	?___lltoft+1
  2968  0A77  1683               	bsf	3,5	;RP0=1, select bank1
  2969  0A78  0827               	movf	__doprnt@_val^(0+128),w
  2970  0A79  1283               	bcf	3,5	;RP0=0, select bank0
  2971  0A7A  00A0               	movwf	?___lltoft
  2972  0A7B  120A  118A  2109   	fcall	___lltoft
      +       120A  158A         
  2973  0A80  0820               	movf	?___lltoft,w
  2974  0A81  00CC               	movwf	?___ftsub
  2975  0A82  0821               	movf	?___lltoft+1,w
  2976  0A83  00CD               	movwf	?___ftsub+1
  2977  0A84  0822               	movf	?___lltoft+2,w
  2978  0A85  00CE               	movwf	?___ftsub+2
  2979  0A86  1683               	bsf	3,5	;RP0=1, select bank1
  2980  0A87  0831               	movf	__doprnt@fval^(0+128),w
  2981  0A88  1283               	bcf	3,5	;RP0=0, select bank0
  2982  0A89  00CF               	movwf	?___ftsub+3
  2983  0A8A  1683               	bsf	3,5	;RP0=1, select bank1
  2984  0A8B  0832               	movf	(__doprnt@fval+1)^(0+128),w
  2985  0A8C  1283               	bcf	3,5	;RP0=0, select bank0
  2986  0A8D  00D0               	movwf	?___ftsub+4
  2987  0A8E  1683               	bsf	3,5	;RP0=1, select bank1
  2988  0A8F  0833               	movf	(__doprnt@fval+2)^(0+128),w
  2989  0A90  1283               	bcf	3,5	;RP0=0, select bank0
  2990  0A91  00D1               	movwf	?___ftsub+5
  2991  0A92  120A  118A  200F   	fcall	___ftsub
      +       120A  158A         
  2992  0A97  084C               	movf	?___ftsub,w
  2993  0A98  1683               	bsf	3,5	;RP0=1, select bank1
  2994  0A99  00B1               	movwf	__doprnt@fval^(0+128)
  2995  0A9A  1283               	bcf	3,5	;RP0=0, select bank0
  2996  0A9B  084D               	movf	?___ftsub+1,w
  2997  0A9C  1683               	bsf	3,5	;RP0=1, select bank1
  2998  0A9D  00B2               	movwf	(__doprnt@fval+1)^(0+128)
  2999  0A9E  1283               	bcf	3,5	;RP0=0, select bank0
  3000  0A9F  084E               	movf	?___ftsub+2,w
  3001  0AA0  1683               	bsf	3,5	;RP0=1, select bank1
  3002  0AA1  00B3               	movwf	(__doprnt@fval+2)^(0+128)
  3003  0AA2  01AD               	clrf	__doprnt@exp^(0+128)
  3004  0AA3  01AE               	clrf	(__doprnt@exp+1)^(0+128)
  3005  0AA4                     l7329:	
  3006  0AA4  01B6               	clrf	__doprnt@c^(0+128)
  3007  0AA5  0AB6               	incf	__doprnt@c^(0+128),f
  3008  0AA6                     l7335:	
  3009  0AA6  26C9               	fcall	PL4	;call to abstracted procedure
  3010  0AA7  160A  118A  2000   	fcall	stringdir
      +       120A  158A         
  3011  0AAC  00D9               	movwf	??__doprnt+1
  3012  0AAD  160A  118A  2000   	fcall	stringdir
      +       120A  158A         
  3013  0AB2  00DA               	movwf	??__doprnt+2
  3014  0AB3  160A  118A  2000   	fcall	stringdir
      +       120A  158A         
  3015  0AB8  00DB               	movwf	??__doprnt+3
  3016  0AB9  160A  118A  2000   	fcall	stringdir
      +       120A  158A         
  3017  0ABE  00DC               	movwf	??__doprnt+4
  3018  0ABF  1683               	bsf	3,5	;RP0=1, select bank1
  3019  0AC0  022A               	subwf	(__doprnt@_val+3)^(0+128),w
  3020  0AC1  1D03               	skipz
  3021  0AC2  2AD3               	goto	u3805
  3022  0AC3  1283               	bcf	3,5	;RP0=0, select bank0
  3023  0AC4  085B               	movf	??__doprnt+3,w
  3024  0AC5  1683               	bsf	3,5	;RP0=1, select bank1
  3025  0AC6  0229               	subwf	(__doprnt@_val+2)^(0+128),w
  3026  0AC7  1D03               	skipz
  3027  0AC8  2AD3               	goto	u3805
  3028  0AC9  1283               	bcf	3,5	;RP0=0, select bank0
  3029  0ACA  085A               	movf	??__doprnt+2,w
  3030  0ACB  1683               	bsf	3,5	;RP0=1, select bank1
  3031  0ACC  0228               	subwf	(__doprnt@_val+1)^(0+128),w
  3032  0ACD  1D03               	skipz
  3033  0ACE  2AD3               	goto	u3805
  3034  0ACF  1283               	bcf	3,5	;RP0=0, select bank0
  3035  0AD0  0859               	movf	??__doprnt+1,w
  3036  0AD1  1683               	bsf	3,5	;RP0=1, select bank1
  3037  0AD2  0227               	subwf	__doprnt@_val^(0+128),w
  3038  0AD3                     u3805:	
  3039  0AD3  1C03               	btfss	3,0
  3040  0AD4  2ADA               	goto	l7343
  3041  0AD5  0AB6               	incf	__doprnt@c^(0+128),f
  3042  0AD6  0836               	movf	__doprnt@c^(0+128),w
  3043  0AD7  3A0A               	xorlw	10
  3044  0AD8  1D03               	skipz
  3045  0AD9  2AA6               	goto	l7335
  3046  0ADA                     l7343:	
  3047  0ADA  0834               	movf	__doprnt@prec^(0+128),w
  3048  0ADB  0736               	addwf	__doprnt@c^(0+128),w
  3049  0ADC  1283               	bcf	3,5	;RP0=0, select bank0
  3050  0ADD  00D8               	movwf	??__doprnt
  3051  0ADE  1683               	bsf	3,5	;RP0=1, select bank1
  3052  0ADF  0835               	movf	(__doprnt@prec+1)^(0+128),w
  3053  0AE0  1803               	skipnc
  3054  0AE1  0A35               	incf	(__doprnt@prec+1)^(0+128),w
  3055  0AE2  1BB6               	btfsc	__doprnt@c^(0+128),7
  3056  0AE3  3EFF               	addlw	255
  3057  0AE4  1283               	bcf	3,5	;RP0=0, select bank0
  3058  0AE5  00D9               	movwf	??__doprnt+1
  3059  0AE6  1683               	bsf	3,5	;RP0=1, select bank1
  3060  0AE7  082D               	movf	__doprnt@exp^(0+128),w
  3061  0AE8  1283               	bcf	3,5	;RP0=0, select bank0
  3062  0AE9  0758               	addwf	??__doprnt,w
  3063  0AEA  00DA               	movwf	??__doprnt+2
  3064  0AEB  1683               	bsf	3,5	;RP0=1, select bank1
  3065  0AEC  082E               	movf	(__doprnt@exp+1)^(0+128),w
  3066  0AED  1803               	skipnc
  3067  0AEE  0A2E               	incf	(__doprnt@exp+1)^(0+128),w
  3068  0AEF  1283               	bcf	3,5	;RP0=0, select bank0
  3069  0AF0  0759               	addwf	??__doprnt+1,w
  3070  0AF1  00DB               	movwf	??__doprnt+3
  3071  0AF2  085A               	movf	??__doprnt+2,w
  3072  0AF3  1683               	bsf	3,5	;RP0=1, select bank1
  3073  0AF4  02AF               	subwf	__doprnt@width^(0+128),f
  3074  0AF5  1283               	bcf	3,5	;RP0=0, select bank0
  3075  0AF6  085B               	movf	??__doprnt+3,w
  3076  0AF7  1683               	bsf	3,5	;RP0=1, select bank1
  3077  0AF8  1C03               	skipc
  3078  0AF9  03B0               	decf	(__doprnt@width+1)^(0+128),f
  3079  0AFA  02B0               	subwf	(__doprnt@width+1)^(0+128),f
  3080  0AFB  0835               	movf	(__doprnt@prec+1)^(0+128),w
  3081  0AFC  0434               	iorwf	__doprnt@prec^(0+128),w
  3082  0AFD  1903               	skipnz
  3083  0AFE  2B03               	goto	l7349
  3084  0AFF  30FF               	movlw	-1
  3085  0B00  07AF               	addwf	__doprnt@width^(0+128),f
  3086  0B01  1C03               	skipc
  3087  0B02  03B0               	decf	(__doprnt@width+1)^(0+128),f
  3088  0B03                     l7349:	
  3089  0B03  082B               	movf	__doprnt@flag^(0+128),w
  3090  0B04  3903               	andlw	3
  3091  0B05  1903               	btfsc	3,2
  3092  0B06  2B0B               	goto	l7353
  3093  0B07  30FF               	movlw	-1
  3094  0B08  07AF               	addwf	__doprnt@width^(0+128),f
  3095  0B09  1C03               	skipc
  3096  0B0A  03B0               	decf	(__doprnt@width+1)^(0+128),f
  3097  0B0B                     l7353:	
  3098  0B0B  192B               	btfsc	__doprnt@flag^(0+128),2
  3099  0B0C  2B27               	goto	l7367
  3100  0B0D  2B4C               	goto	l7379
  3101  0B0E                     l7357:	
  3102  0B0E  1683               	bsf	3,5	;RP0=1, select bank1
  3103  0B0F  2756  120A  158A   	fcall	PL26	;call to abstracted procedure
  3104  0B12  1903               	skipnz
  3105  0B13  2B1C               	goto	l7361
  3106  0B14  3030               	movlw	48
  3107  0B15  26C1               	fcall	PL3	;call to abstracted procedure
  3108  0B16  120A  118A  2100   	fcall	fptable
      +       120A  158A         
  3109  0B1B  2B22               	goto	l7365
  3110  0B1C                     l7361:	
  3111  0B1C  0837               	movf	__doprnt@pb^(0+128),w
  3112  0B1D  0084               	movwf	4
  3113  0B1E  0800               	movf	0,w
  3114  0B1F  2735  120A  158A   	fcall	PL21	;call to abstracted procedure
  3115  0B22                     l7365:	
  3116  0B22  30FF               	movlw	-1
  3117  0B23  27BB               	call	PL41	;select bank 1
  3118  0B24  07AF               	addwf	__doprnt@width^(0+128),f
  3119  0B25  1C03               	skipc
  3120  0B26  03B0               	decf	(__doprnt@width+1)^(0+128),f
  3121  0B27                     l7367:	
  3122  0B27  0830               	movf	(__doprnt@width+1)^(0+128),w
  3123  0B28  3A80               	xorlw	128
  3124  0B29  00FF               	movwf	127
  3125  0B2A  3080               	movlw	128
  3126  0B2B  027F               	subwf	127,w
  3127  0B2C  1D03               	skipz
  3128  0B2D  2B30               	goto	u3865
  3129  0B2E  3001               	movlw	1
  3130  0B2F  022F               	subwf	__doprnt@width^(0+128),w
  3131  0B30                     u3865:	
  3132  0B30  1C03               	btfss	3,0
  3133  0B31  2BCD               	goto	l7399
  3134  0B32  2B0E               	goto	l7357
  3135  0B33                     l7369:	
  3136  0B33  1683               	bsf	3,5	;RP0=1, select bank1
  3137  0B34  2756  120A  158A   	fcall	PL26	;call to abstracted procedure
  3138  0B37  1903               	skipnz
  3139  0B38  2B41               	goto	l7373
  3140  0B39  3020               	movlw	32
  3141  0B3A  26C1               	fcall	PL3	;call to abstracted procedure
  3142  0B3B  120A  118A  2100   	fcall	fptable
      +       120A  158A         
  3143  0B40  2B47               	goto	l7377
  3144  0B41                     l7373:	
  3145  0B41  0837               	movf	__doprnt@pb^(0+128),w
  3146  0B42  0084               	movwf	4
  3147  0B43  0800               	movf	0,w
  3148  0B44  276B  120A  158A   	fcall	PL37	;call to abstracted procedure
  3149  0B47                     l7377:	
  3150  0B47  30FF               	movlw	-1
  3151  0B48  27BB               	call	PL41	;select bank 1
  3152  0B49  07AF               	addwf	__doprnt@width^(0+128),f
  3153  0B4A  1C03               	skipc
  3154  0B4B  03B0               	decf	(__doprnt@width+1)^(0+128),f
  3155  0B4C                     l7379:	
  3156  0B4C  0830               	movf	(__doprnt@width+1)^(0+128),w
  3157  0B4D  3A80               	xorlw	128
  3158  0B4E  00FF               	movwf	127
  3159  0B4F  3080               	movlw	128
  3160  0B50  027F               	subwf	127,w
  3161  0B51  1D03               	skipz
  3162  0B52  2B55               	goto	u3885
  3163  0B53  3001               	movlw	1
  3164  0B54  022F               	subwf	__doprnt@width^(0+128),w
  3165  0B55                     u3885:	
  3166  0B55  1803               	skipnc
  3167  0B56  2B33               	goto	l7369
  3168  0B57  27BB               	call	PL41	;select bank 1
  3169  0B58  082B               	movf	__doprnt@flag^(0+128),w
  3170  0B59  3903               	andlw	3
  3171  0B5A  1903               	btfsc	3,2
  3172  0B5B  2BCD               	goto	l7399
  3173  0B5C  0837               	movf	__doprnt@pb^(0+128),w
  3174  0B5D  3E01               	addlw	1
  3175  0B5E  0084               	movwf	4
  3176  0B5F  1383               	bcf	3,7	;select IRP bank0
  3177  0B60  0880               	movf	0,f
  3178  0B61  1903               	skipnz
  3179  0B62  2B6B               	goto	l7387
  3180  0B63  302D               	movlw	45
  3181  0B64  26C1               	fcall	PL3	;call to abstracted procedure
  3182  0B65  120A  118A  2100   	fcall	fptable
      +       120A  158A         
  3183  0B6A  2BCD               	goto	l7399
  3184  0B6B                     l7387:	
  3185  0B6B  2772  120A  158A   	fcall	PL38	;call to abstracted procedure
  3186  0B6E  2BCA               	goto	L4
  3187  0B6F                     l7391:	
  3188  0B6F  2764  120A  158A   	fcall	PL36	;call to abstracted procedure
  3189  0B72  1903               	skipnz
  3190  0B73  2BA2               	goto	L7
  3191  0B74  1283               	bcf	3,5	;RP0=0, select bank0
  3192  0B75  26B2               	fcall	PL2	;call to abstracted procedure
  3193  0B76  160A  118A  2000   	fcall	stringdir
      +       120A  158A         
  3194  0B7B  00F2               	movwf	?___lldiv
  3195  0B7C  160A  118A  2000   	fcall	stringdir
      +       120A  158A         
  3196  0B81  00F3               	movwf	?___lldiv+1
  3197  0B82  160A  118A  2000   	fcall	stringdir
      +       120A  158A         
  3198  0B87  00F4               	movwf	?___lldiv+2
  3199  0B88  160A  118A  2000   	fcall	stringdir
      +       120A  158A         
  3200  0B8D  26D3               	fcall	PL5	;call to abstracted procedure
  3201  0B8E  120A  118A  27A5   	fcall	___lldiv
      +       120A  158A         
  3202  0B93  26E5  120A  158A   	fcall	PL8	;call to abstracted procedure
  3203  0B96  277D  120A  158A   	fcall	___llmod
  3204  0B99  0825               	movf	?___llmod,w
  3205  0B9A  3E30               	addlw	48
  3206  0B9B  26DE               	fcall	PL6	;call to abstracted procedure
  3207  0B9C  120A  118A  2100   	fcall	fptable
      +       120A  158A         
  3208  0BA1  2BCD               	goto	l7399
  3209  0BA2                     L7:	
  3210  0BA2  1283               	bcf	3,5	;RP0=0, select bank0
  3211  0BA3  26B2               	fcall	PL2	;call to abstracted procedure
  3212  0BA4  160A  118A  2000   	fcall	stringdir
      +       120A  158A         
  3213  0BA9  00F2               	movwf	?___lldiv
  3214  0BAA  160A  118A  2000   	fcall	stringdir
      +       120A  158A         
  3215  0BAF  00F3               	movwf	?___lldiv+1
  3216  0BB0  160A  118A  2000   	fcall	stringdir
      +       120A  158A         
  3217  0BB5  00F4               	movwf	?___lldiv+2
  3218  0BB6  160A  118A  2000   	fcall	stringdir
      +       120A  158A         
  3219  0BBB  26D3               	fcall	PL5	;call to abstracted procedure
  3220  0BBC  120A  118A  27A5   	fcall	___lldiv
      +       120A  158A         
  3221  0BC1  26E5  120A  158A   	fcall	PL8	;call to abstracted procedure
  3222  0BC4  277D  120A  158A   	fcall	___llmod
  3223  0BC7  272A  120A  158A   	fcall	PL18	;call to abstracted procedure
  3224  0BCA                     L4:	
  3225  0BCA  2777  120A  158A   	fcall	PL39	;call to abstracted procedure
  3226  0BCD                     l7399:	
  3227  0BCD  27BB               	call	PL41	;select bank 1
  3228  0BCE  03B6               	decf	__doprnt@c^(0+128),f
  3229  0BCF  0F36               	incfsz	__doprnt@c^(0+128),w
  3230  0BD0  2B6F               	goto	l7391
  3231  0BD1                     l7411:	
  3232  0BD1  082E               	movf	(__doprnt@exp+1)^(0+128),w
  3233  0BD2  3A80               	xorlw	128
  3234  0BD3  00FF               	movwf	127
  3235  0BD4  3080               	movlw	128
  3236  0BD5  027F               	subwf	127,w
  3237  0BD6  1D03               	skipz
  3238  0BD7  2BDA               	goto	u3945
  3239  0BD8  3001               	movlw	1
  3240  0BD9  022D               	subwf	__doprnt@exp^(0+128),w
  3241  0BDA                     u3945:	
  3242  0BDA  1C03               	btfss	3,0
  3243  0BDB  2BF6               	goto	l7413
  3244  0BDC  1683               	bsf	3,5	;RP0=1, select bank1
  3245  0BDD  2756  120A  158A   	fcall	PL26	;call to abstracted procedure
  3246  0BE0  1903               	skipnz
  3247  0BE1  2BEA               	goto	l7405
  3248  0BE2  3030               	movlw	48
  3249  0BE3  26C1               	fcall	PL3	;call to abstracted procedure
  3250  0BE4  120A  118A  2100   	fcall	fptable
      +       120A  158A         
  3251  0BE9  2BF0               	goto	l7409
  3252  0BEA                     l7405:	
  3253  0BEA  0837               	movf	__doprnt@pb^(0+128),w
  3254  0BEB  0084               	movwf	4
  3255  0BEC  0800               	movf	0,w
  3256  0BED  2735  120A  158A   	fcall	PL21	;call to abstracted procedure
  3257  0BF0                     l7409:	
  3258  0BF0  30FF               	movlw	-1
  3259  0BF1  27BB               	call	PL41	;select bank 1
  3260  0BF2  07AD               	addwf	__doprnt@exp^(0+128),f
  3261  0BF3  1C03               	skipc
  3262  0BF4  03AE               	decf	(__doprnt@exp+1)^(0+128),f
  3263  0BF5  2BD1               	goto	l7411
  3264  0BF6                     l7413:	
  3265  0BF6  27BB               	call	PL41	;select bank 1
  3266  0BF7  0835               	movf	(__doprnt@prec+1)^(0+128),w
  3267  0BF8  3A80               	xorlw	128
  3268  0BF9  00FF               	movwf	127
  3269  0BFA  3080               	movlw	128
  3270  0BFB  027F               	subwf	127,w
  3271  0BFC  1D03               	skipz
  3272  0BFD  2C00               	goto	u3955
  3273  0BFE  3009               	movlw	9
  3274  0BFF  0234               	subwf	__doprnt@prec^(0+128),w
  3275  0C00                     u3955:	
  3276  0C00  1C03               	skipc
  3277  0C01  2C05               	goto	l7417
  3278  0C02  3008               	movlw	8
  3279  0C03  27BB               	call	PL41	;select bank 1
  3280  0C04  2C07               	goto	L2
  3281  0C05                     l7417:	
  3282  0C05  27BB               	call	PL41	;select bank 1
  3283  0C06  0834               	movf	__doprnt@prec^(0+128),w
  3284  0C07                     L2:	
  3285  0C07  00B6               	movwf	__doprnt@c^(0+128)
  3286  0C08  1283               	bcf	3,5	;RP0=0, select bank0
  3287  0C09  00D8               	movwf	??__doprnt
  3288  0C0A  01D9               	clrf	??__doprnt+1
  3289  0C0B  1BD8               	btfsc	??__doprnt,7
  3290  0C0C  03D9               	decf	??__doprnt+1,f
  3291  0C0D  1683               	bsf	3,5	;RP0=1, select bank1
  3292  0C0E  02B4               	subwf	__doprnt@prec^(0+128),f
  3293  0C0F  1283               	bcf	3,5	;RP0=0, select bank0
  3294  0C10  0859               	movf	??__doprnt+1,w
  3295  0C11  1683               	bsf	3,5	;RP0=1, select bank1
  3296  0C12  1C03               	skipc
  3297  0C13  03B5               	decf	(__doprnt@prec+1)^(0+128),f
  3298  0C14  02B5               	subwf	(__doprnt@prec+1)^(0+128),f
  3299  0C15  0836               	movf	__doprnt@c^(0+128),w
  3300  0C16  1903               	btfsc	3,2
  3301  0C17  2C30               	goto	l7427
  3302  0C18  0837               	movf	__doprnt@pb^(0+128),w
  3303  0C19  3E01               	addlw	1
  3304  0C1A  0084               	movwf	4
  3305  0C1B  1383               	bcf	3,7	;select IRP bank0
  3306  0C1C  0880               	movf	0,f
  3307  0C1D  1903               	skipnz
  3308  0C1E  2C27               	goto	l7423
  3309  0C1F  302E               	movlw	46
  3310  0C20  26C1               	fcall	PL3	;call to abstracted procedure
  3311  0C21  120A  118A  2100   	fcall	fptable
      +       120A  158A         
  3312  0C26  2C30               	goto	l7427
  3313  0C27                     l7423:	
  3314  0C27  0837               	movf	__doprnt@pb^(0+128),w
  3315  0C28  0084               	movwf	4
  3316  0C29  0800               	movf	0,w
  3317  0C2A  0084               	movwf	4
  3318  0C2B  302E               	movlw	46
  3319  0C2C  0080               	movwf	0
  3320  0C2D  0837               	movf	__doprnt@pb^(0+128),w
  3321  0C2E  0084               	movwf	4
  3322  0C2F  0A80               	incf	0,f
  3323  0C30                     l7427:	
  3324  0C30  27BB               	call	PL41	;select bank 1
  3325  0C31  0836               	movf	__doprnt@c^(0+128),w
  3326  0C32  120A  118A  2156   	fcall	_scale
      +       120A  158A         
  3327  0C37  0840               	movf	?_scale,w
  3328  0C38  00B4               	movwf	?___ftmul+3
  3329  0C39  0841               	movf	?_scale+1,w
  3330  0C3A  00B5               	movwf	?___ftmul+4
  3331  0C3B  0842               	movf	?_scale+2,w
  3332  0C3C  00B6               	movwf	?___ftmul+5
  3333  0C3D  1683               	bsf	3,5	;RP0=1, select bank1
  3334  0C3E  0831               	movf	__doprnt@fval^(0+128),w
  3335  0C3F  2714               	fcall	PL16	;call to abstracted procedure
  3336  0C40  120A  118A  236B   	fcall	___ftmul
      +       120A  158A         
  3337  0C45  0831               	movf	?___ftmul,w
  3338  0C46  00A4               	movwf	?___fttol
  3339  0C47  0832               	movf	?___ftmul+1,w
  3340  0C48  00A5               	movwf	?___fttol+1
  3341  0C49  0833               	movf	?___ftmul+2,w
  3342  0C4A  00A6               	movwf	?___fttol+2
  3343  0C4B  160A  118A  2561   	fcall	___fttol
      +       120A  158A         
  3344  0C50  26EE  120A  158A   	fcall	PL9	;call to abstracted procedure
  3345  0C53  2CEC               	goto	L3
  3346  0C54                     l7429:	
  3347  0C54  2764  120A  158A   	fcall	PL36	;call to abstracted procedure
  3348  0C57  1903               	skipnz
  3349  0C58  2C87               	goto	L8
  3350  0C59  1283               	bcf	3,5	;RP0=0, select bank0
  3351  0C5A  26B2               	fcall	PL2	;call to abstracted procedure
  3352  0C5B  160A  118A  2000   	fcall	stringdir
      +       120A  158A         
  3353  0C60  00F2               	movwf	?___lldiv
  3354  0C61  160A  118A  2000   	fcall	stringdir
      +       120A  158A         
  3355  0C66  00F3               	movwf	?___lldiv+1
  3356  0C67  160A  118A  2000   	fcall	stringdir
      +       120A  158A         
  3357  0C6C  00F4               	movwf	?___lldiv+2
  3358  0C6D  160A  118A  2000   	fcall	stringdir
      +       120A  158A         
  3359  0C72  26D3               	fcall	PL5	;call to abstracted procedure
  3360  0C73  120A  118A  27A5   	fcall	___lldiv
      +       120A  158A         
  3361  0C78  26E5  120A  158A   	fcall	PL8	;call to abstracted procedure
  3362  0C7B  277D  120A  158A   	fcall	___llmod
  3363  0C7E  0825               	movf	?___llmod,w
  3364  0C7F  3E30               	addlw	48
  3365  0C80  26DE               	fcall	PL6	;call to abstracted procedure
  3366  0C81  120A  118A  2100   	fcall	fptable
      +       120A  158A         
  3367  0C86  2CB2               	goto	l7437
  3368  0C87                     L8:	
  3369  0C87  1283               	bcf	3,5	;RP0=0, select bank0
  3370  0C88  26B2               	fcall	PL2	;call to abstracted procedure
  3371  0C89  160A  118A  2000   	fcall	stringdir
      +       120A  158A         
  3372  0C8E  00F2               	movwf	?___lldiv
  3373  0C8F  160A  118A  2000   	fcall	stringdir
      +       120A  158A         
  3374  0C94  00F3               	movwf	?___lldiv+1
  3375  0C95  160A  118A  2000   	fcall	stringdir
      +       120A  158A         
  3376  0C9A  00F4               	movwf	?___lldiv+2
  3377  0C9B  160A  118A  2000   	fcall	stringdir
      +       120A  158A         
  3378  0CA0  26D3               	fcall	PL5	;call to abstracted procedure
  3379  0CA1  120A  118A  27A5   	fcall	___lldiv
      +       120A  158A         
  3380  0CA6  26E5  120A  158A   	fcall	PL8	;call to abstracted procedure
  3381  0CA9  277D  120A  158A   	fcall	___llmod
  3382  0CAC  272A  120A  158A   	fcall	PL18	;call to abstracted procedure
  3383  0CAF  2777  120A  158A   	fcall	PL39	;call to abstracted procedure
  3384  0CB2                     l7437:	
  3385  0CB2  27BB               	call	PL41	;select bank 1
  3386  0CB3  26C9               	fcall	PL4	;call to abstracted procedure
  3387  0CB4  160A  118A  2000   	fcall	stringdir
      +       120A  158A         
  3388  0CB9  00A5               	movwf	?___llmod
  3389  0CBA  160A  118A  2000   	fcall	stringdir
      +       120A  158A         
  3390  0CBF  00A6               	movwf	?___llmod+1
  3391  0CC0  160A  118A  2000   	fcall	stringdir
      +       120A  158A         
  3392  0CC5  00A7               	movwf	?___llmod+2
  3393  0CC6  160A  118A  2000   	fcall	stringdir
      +       120A  158A         
  3394  0CCB  00A8               	movwf	?___llmod+3
  3395  0CCC  1683               	bsf	3,5	;RP0=1, select bank1
  3396  0CCD  082A               	movf	(__doprnt@_val+3)^(0+128),w
  3397  0CCE  1283               	bcf	3,5	;RP0=0, select bank0
  3398  0CCF  00AC               	movwf	?___llmod+7
  3399  0CD0  1683               	bsf	3,5	;RP0=1, select bank1
  3400  0CD1  0829               	movf	(__doprnt@_val+2)^(0+128),w
  3401  0CD2  1283               	bcf	3,5	;RP0=0, select bank0
  3402  0CD3  00AB               	movwf	?___llmod+6
  3403  0CD4  1683               	bsf	3,5	;RP0=1, select bank1
  3404  0CD5  0828               	movf	(__doprnt@_val+1)^(0+128),w
  3405  0CD6  1283               	bcf	3,5	;RP0=0, select bank0
  3406  0CD7  00AA               	movwf	?___llmod+5
  3407  0CD8  1683               	bsf	3,5	;RP0=1, select bank1
  3408  0CD9  0827               	movf	__doprnt@_val^(0+128),w
  3409  0CDA  1283               	bcf	3,5	;RP0=0, select bank0
  3410  0CDB  00A9               	movwf	?___llmod+4
  3411  0CDC  277D  120A  158A   	fcall	___llmod
  3412  0CDF  0828               	movf	?___llmod+3,w
  3413  0CE0  1683               	bsf	3,5	;RP0=1, select bank1
  3414  0CE1  00AA               	movwf	(__doprnt@_val+3)^(0+128)
  3415  0CE2  1283               	bcf	3,5	;RP0=0, select bank0
  3416  0CE3  0827               	movf	?___llmod+2,w
  3417  0CE4  1683               	bsf	3,5	;RP0=1, select bank1
  3418  0CE5  00A9               	movwf	(__doprnt@_val+2)^(0+128)
  3419  0CE6  1283               	bcf	3,5	;RP0=0, select bank0
  3420  0CE7  0826               	movf	?___llmod+1,w
  3421  0CE8  1683               	bsf	3,5	;RP0=1, select bank1
  3422  0CE9  00A8               	movwf	(__doprnt@_val+1)^(0+128)
  3423  0CEA  1283               	bcf	3,5	;RP0=0, select bank0
  3424  0CEB  0825               	movf	?___llmod,w
  3425  0CEC                     L3:	
  3426  0CEC  1683               	bsf	3,5	;RP0=1, select bank1
  3427  0CED  00A7               	movwf	__doprnt@_val^(0+128)
  3428  0CEE  03B6               	decf	__doprnt@c^(0+128),f
  3429  0CEF  0F36               	incfsz	__doprnt@c^(0+128),w
  3430  0CF0  2C54               	goto	l7429
  3431  0CF1                     l7451:	
  3432  0CF1  0835               	movf	(__doprnt@prec+1)^(0+128),w
  3433  0CF2  0434               	iorwf	__doprnt@prec^(0+128),w
  3434  0CF3  1903               	btfsc	3,2
  3435  0CF4  280B               	goto	l7561
  3436  0CF5  0837               	movf	__doprnt@pb^(0+128),w
  3437  0CF6  3E01               	addlw	1
  3438  0CF7  0084               	movwf	4
  3439  0CF8  1383               	bcf	3,7	;select IRP bank0
  3440  0CF9  0880               	movf	0,f
  3441  0CFA  1903               	skipnz
  3442  0CFB  2D04               	goto	l7445
  3443  0CFC  3030               	movlw	48
  3444  0CFD  26C1               	fcall	PL3	;call to abstracted procedure
  3445  0CFE  120A  118A  2100   	fcall	fptable
      +       120A  158A         
  3446  0D03  2D0A               	goto	l7449
  3447  0D04                     l7445:	
  3448  0D04  0837               	movf	__doprnt@pb^(0+128),w
  3449  0D05  0084               	movwf	4
  3450  0D06  0800               	movf	0,w
  3451  0D07  2735  120A  158A   	fcall	PL21	;call to abstracted procedure
  3452  0D0A                     l7449:	
  3453  0D0A  30FF               	movlw	-1
  3454  0D0B  27BB               	call	PL41	;select bank 1
  3455  0D0C  07B4               	addwf	__doprnt@prec^(0+128),f
  3456  0D0D  1C03               	skipc
  3457  0D0E  03B5               	decf	(__doprnt@prec+1)^(0+128),f
  3458  0D0F  2CF1               	goto	l7451
  3459  0D10                     l7453:	
  3460  0D10  0857               	movf	__doprnt@ap,w
  3461  0D11  0084               	movwf	4
  3462  0D12  1383               	bcf	3,7	;select IRP bank0
  3463  0D13  0800               	movf	0,w
  3464  0D14  00D8               	movwf	??__doprnt
  3465  0D15  3002               	movlw	2
  3466  0D16  0780               	addwf	0,f
  3467  0D17  0858               	movf	??__doprnt,w
  3468  0D18  0084               	movwf	4
  3469  0D19  0800               	movf	0,w
  3470  0D1A  00D9               	movwf	??__doprnt+1
  3471  0D1B  0A84               	incf	4,f
  3472  0D1C  0800               	movf	0,w
  3473  0D1D  00DA               	movwf	??__doprnt+2
  3474  0D1E  0859               	movf	??__doprnt+1,w
  3475  0D1F  1683               	bsf	3,5	;RP0=1, select bank1
  3476  0D20  00A7               	movwf	__doprnt@_val^(0+128)
  3477  0D21  1283               	bcf	3,5	;RP0=0, select bank0
  3478  0D22  085A               	movf	??__doprnt+2,w
  3479  0D23  1683               	bsf	3,5	;RP0=1, select bank1
  3480  0D24  00A8               	movwf	(__doprnt@_val^(0+128)+1)
  3481  0D25  01A9               	clrf	(__doprnt@_val^(0+128)+2)
  3482  0D26  01AA               	clrf	(__doprnt@_val^(0+128)+3)
  3483  0D27  0835               	movf	(__doprnt@prec+1)^(0+128),w
  3484  0D28  0434               	iorwf	__doprnt@prec^(0+128),w
  3485  0D29  1D03               	skipz
  3486  0D2A  2D33               	goto	l7461
  3487  0D2B  082A               	movf	(__doprnt@_val+3)^(0+128),w
  3488  0D2C  0429               	iorwf	(__doprnt@_val+2)^(0+128),w
  3489  0D2D  0428               	iorwf	(__doprnt@_val+1)^(0+128),w
  3490  0D2E  0427               	iorwf	__doprnt@_val^(0+128),w
  3491  0D2F  1903               	btfsc	3,2
  3492  0D30  0AB4               	incf	__doprnt@prec^(0+128),f
  3493  0D31  1903               	skipnz
  3494  0D32  0AB5               	incf	(__doprnt@prec+1)^(0+128),f
  3495  0D33                     l7461:	
  3496  0D33  01B6               	clrf	__doprnt@c^(0+128)
  3497  0D34  0AB6               	incf	__doprnt@c^(0+128),f
  3498  0D35                     l7467:	
  3499  0D35  26C9               	fcall	PL4	;call to abstracted procedure
  3500  0D36  160A  118A  2000   	fcall	stringdir
      +       120A  158A         
  3501  0D3B  00D9               	movwf	??__doprnt+1
  3502  0D3C  160A  118A  2000   	fcall	stringdir
      +       120A  158A         
  3503  0D41  00DA               	movwf	??__doprnt+2
  3504  0D42  160A  118A  2000   	fcall	stringdir
      +       120A  158A         
  3505  0D47  00DB               	movwf	??__doprnt+3
  3506  0D48  160A  118A  2000   	fcall	stringdir
      +       120A  158A         
  3507  0D4D  00DC               	movwf	??__doprnt+4
  3508  0D4E  1683               	bsf	3,5	;RP0=1, select bank1
  3509  0D4F  022A               	subwf	(__doprnt@_val+3)^(0+128),w
  3510  0D50  1D03               	skipz
  3511  0D51  2D62               	goto	u4045
  3512  0D52  1283               	bcf	3,5	;RP0=0, select bank0
  3513  0D53  085B               	movf	??__doprnt+3,w
  3514  0D54  1683               	bsf	3,5	;RP0=1, select bank1
  3515  0D55  0229               	subwf	(__doprnt@_val+2)^(0+128),w
  3516  0D56  1D03               	skipz
  3517  0D57  2D62               	goto	u4045
  3518  0D58  1283               	bcf	3,5	;RP0=0, select bank0
  3519  0D59  085A               	movf	??__doprnt+2,w
  3520  0D5A  1683               	bsf	3,5	;RP0=1, select bank1
  3521  0D5B  0228               	subwf	(__doprnt@_val+1)^(0+128),w
  3522  0D5C  1D03               	skipz
  3523  0D5D  2D62               	goto	u4045
  3524  0D5E  1283               	bcf	3,5	;RP0=0, select bank0
  3525  0D5F  0859               	movf	??__doprnt+1,w
  3526  0D60  1683               	bsf	3,5	;RP0=1, select bank1
  3527  0D61  0227               	subwf	__doprnt@_val^(0+128),w
  3528  0D62                     u4045:	
  3529  0D62  1C03               	btfss	3,0
  3530  0D63  2D69               	goto	l7475
  3531  0D64  0AB6               	incf	__doprnt@c^(0+128),f
  3532  0D65  0836               	movf	__doprnt@c^(0+128),w
  3533  0D66  3A0A               	xorlw	10
  3534  0D67  1D03               	skipz
  3535  0D68  2D35               	goto	l7467
  3536  0D69                     l7475:	
  3537  0D69  0836               	movf	__doprnt@c^(0+128),w
  3538  0D6A  273C  120A  158A   	fcall	PL23	;call to abstracted procedure
  3539  0D6D  0835               	movf	(__doprnt@prec+1)^(0+128),w
  3540  0D6E  3A80               	xorlw	128
  3541  0D6F  1283               	bcf	3,5	;RP0=0, select bank0
  3542  0D70  025A               	subwf	??__doprnt+2,w
  3543  0D71  1D03               	skipz
  3544  0D72  2D77               	goto	u4065
  3545  0D73  1683               	bsf	3,5	;RP0=1, select bank1
  3546  0D74  0834               	movf	__doprnt@prec^(0+128),w
  3547  0D75  1283               	bcf	3,5	;RP0=0, select bank0
  3548  0D76  0258               	subwf	??__doprnt,w
  3549  0D77                     u4065:	
  3550  0D77  1803               	skipnc
  3551  0D78  2D7D               	goto	l7479
  3552  0D79  27BB               	call	PL41	;select bank 1
  3553  0D7A  0834               	movf	__doprnt@prec^(0+128),w
  3554  0D7B  00B6               	movwf	__doprnt@c^(0+128)
  3555  0D7C  2D95               	goto	l7483
  3556  0D7D                     l7479:	
  3557  0D7D  1683               	bsf	3,5	;RP0=1, select bank1
  3558  0D7E  2746  120A  158A   	fcall	PL24	;call to abstracted procedure
  3559  0D81  0835               	movf	(__doprnt@prec+1)^(0+128),w
  3560  0D82  3A80               	xorlw	128
  3561  0D83  1283               	bcf	3,5	;RP0=0, select bank0
  3562  0D84  00DA               	movwf	??__doprnt+2
  3563  0D85  0859               	movf	??__doprnt+1,w
  3564  0D86  3A80               	xorlw	128
  3565  0D87  025A               	subwf	??__doprnt+2,w
  3566  0D88  1D03               	skipz
  3567  0D89  2D8D               	goto	u4075
  3568  0D8A  0858               	movf	??__doprnt,w
  3569  0D8B  1683               	bsf	3,5	;RP0=1, select bank1
  3570  0D8C  0234               	subwf	__doprnt@prec^(0+128),w
  3571  0D8D                     u4075:	
  3572  0D8D  1803               	skipnc
  3573  0D8E  2D95               	goto	l7483
  3574  0D8F  27BB               	call	PL41	;select bank 1
  3575  0D90  0836               	movf	__doprnt@c^(0+128),w
  3576  0D91  00B4               	movwf	__doprnt@prec^(0+128)
  3577  0D92  01B5               	clrf	(__doprnt@prec+1)^(0+128)
  3578  0D93  1BB4               	btfsc	__doprnt@prec^(0+128),7
  3579  0D94  03B5               	decf	(__doprnt@prec+1)^(0+128),f
  3580  0D95                     l7483:	
  3581  0D95  27BB               	call	PL41	;select bank 1
  3582  0D96  0830               	movf	(__doprnt@width+1)^(0+128),w
  3583  0D97  042F               	iorwf	__doprnt@width^(0+128),w
  3584  0D98  1903               	skipnz
  3585  0D99  2DA2               	goto	l7489
  3586  0D9A  082B               	movf	__doprnt@flag^(0+128),w
  3587  0D9B  3903               	andlw	3
  3588  0D9C  1903               	btfsc	3,2
  3589  0D9D  2DA2               	goto	l7489
  3590  0D9E  30FF               	movlw	-1
  3591  0D9F  07AF               	addwf	__doprnt@width^(0+128),f
  3592  0DA0  1C03               	skipc
  3593  0DA1  03B0               	decf	(__doprnt@width+1)^(0+128),f
  3594  0DA2                     l7489:	
  3595  0DA2  1F2C               	btfss	(__doprnt@flag+1)^(0+128),6
  3596  0DA3  2DBF               	goto	l7497
  3597  0DA4  0835               	movf	(__doprnt@prec+1)^(0+128),w
  3598  0DA5  3A80               	xorlw	128
  3599  0DA6  1283               	bcf	3,5	;RP0=0, select bank0
  3600  0DA7  00D8               	movwf	??__doprnt
  3601  0DA8  1683               	bsf	3,5	;RP0=1, select bank1
  3602  0DA9  0830               	movf	(__doprnt@width+1)^(0+128),w
  3603  0DAA  3A80               	xorlw	128
  3604  0DAB  1283               	bcf	3,5	;RP0=0, select bank0
  3605  0DAC  0258               	subwf	??__doprnt,w
  3606  0DAD  1D03               	skipz
  3607  0DAE  2DB2               	goto	u4115
  3608  0DAF  1683               	bsf	3,5	;RP0=1, select bank1
  3609  0DB0  082F               	movf	__doprnt@width^(0+128),w
  3610  0DB1  0234               	subwf	__doprnt@prec^(0+128),w
  3611  0DB2                     u4115:	
  3612  0DB2  1803               	skipnc
  3613  0DB3  2DBC               	goto	l7495
  3614  0DB4  27BB               	call	PL41	;select bank 1
  3615  0DB5  0834               	movf	__doprnt@prec^(0+128),w
  3616  0DB6  02AF               	subwf	__doprnt@width^(0+128),f
  3617  0DB7  0835               	movf	(__doprnt@prec+1)^(0+128),w
  3618  0DB8  1C03               	skipc
  3619  0DB9  03B0               	decf	(__doprnt@width+1)^(0+128),f
  3620  0DBA  02B0               	subwf	(__doprnt@width+1)^(0+128),f
  3621  0DBB  2DBF               	goto	l7497
  3622  0DBC                     l7495:	
  3623  0DBC  27BB               	call	PL41	;select bank 1
  3624  0DBD  01AF               	clrf	__doprnt@width^(0+128)
  3625  0DBE  01B0               	clrf	(__doprnt@width+1)^(0+128)
  3626  0DBF                     l7497:	
  3627  0DBF  0836               	movf	__doprnt@c^(0+128),w
  3628  0DC0  273C  120A  158A   	fcall	PL23	;call to abstracted procedure
  3629  0DC3  0830               	movf	(__doprnt@width+1)^(0+128),w
  3630  0DC4  3A80               	xorlw	128
  3631  0DC5  1283               	bcf	3,5	;RP0=0, select bank0
  3632  0DC6  025A               	subwf	??__doprnt+2,w
  3633  0DC7  1D03               	skipz
  3634  0DC8  2DCD               	goto	u4125
  3635  0DC9  1683               	bsf	3,5	;RP0=1, select bank1
  3636  0DCA  082F               	movf	__doprnt@width^(0+128),w
  3637  0DCB  1283               	bcf	3,5	;RP0=0, select bank0
  3638  0DCC  0258               	subwf	??__doprnt,w
  3639  0DCD                     u4125:	
  3640  0DCD  1803               	skipnc
  3641  0DCE  2DDB               	goto	l7501
  3642  0DCF  1683               	bsf	3,5	;RP0=1, select bank1
  3643  0DD0  2746  120A  158A   	fcall	PL24	;call to abstracted procedure
  3644  0DD3  02AF               	subwf	__doprnt@width^(0+128),f
  3645  0DD4  1283               	bcf	3,5	;RP0=0, select bank0
  3646  0DD5  0859               	movf	??__doprnt+1,w
  3647  0DD6  1683               	bsf	3,5	;RP0=1, select bank1
  3648  0DD7  1C03               	skipc
  3649  0DD8  03B0               	decf	(__doprnt@width+1)^(0+128),f
  3650  0DD9  02B0               	subwf	(__doprnt@width+1)^(0+128),f
  3651  0DDA  2DDE               	goto	l7503
  3652  0DDB                     l7501:	
  3653  0DDB  27BB               	call	PL41	;select bank 1
  3654  0DDC  01AF               	clrf	__doprnt@width^(0+128)
  3655  0DDD  01B0               	clrf	(__doprnt@width+1)^(0+128)
  3656  0DDE                     l7503:	
  3657  0DDE  1D2B               	btfss	__doprnt@flag^(0+128),2
  3658  0DDF  2E1C               	goto	l7527
  3659  0DE0  082B               	movf	__doprnt@flag^(0+128),w
  3660  0DE1  3903               	andlw	3
  3661  0DE2  1903               	btfsc	3,2
  3662  0DE3  2DFC               	goto	l7515
  3663  0DE4  0837               	movf	__doprnt@pb^(0+128),w
  3664  0DE5  3E01               	addlw	1
  3665  0DE6  0084               	movwf	4
  3666  0DE7  1383               	bcf	3,7	;select IRP bank0
  3667  0DE8  0880               	movf	0,f
  3668  0DE9  1903               	skipnz
  3669  0DEA  2DF3               	goto	l7511
  3670  0DEB  302D               	movlw	45
  3671  0DEC  26C1               	fcall	PL3	;call to abstracted procedure
  3672  0DED  120A  118A  2100   	fcall	fptable
      +       120A  158A         
  3673  0DF2  2DFC               	goto	l7515
  3674  0DF3                     l7511:	
  3675  0DF3  0837               	movf	__doprnt@pb^(0+128),w
  3676  0DF4  0084               	movwf	4
  3677  0DF5  0800               	movf	0,w
  3678  0DF6  0084               	movwf	4
  3679  0DF7  302D               	movlw	45
  3680  0DF8  0080               	movwf	0
  3681  0DF9  0837               	movf	__doprnt@pb^(0+128),w
  3682  0DFA  0084               	movwf	4
  3683  0DFB  0A80               	incf	0,f
  3684  0DFC                     l7515:	
  3685  0DFC  27BB               	call	PL41	;select bank 1
  3686  0DFD                     L5:	
  3687  0DFD  0830               	movf	(__doprnt@width+1)^(0+128),w
  3688  0DFE  042F               	iorwf	__doprnt@width^(0+128),w
  3689  0DFF  1903               	skipnz
  3690  0E00  2E58               	goto	l7559
  3691  0E01  0837               	movf	__doprnt@pb^(0+128),w
  3692  0E02  3E01               	addlw	1
  3693  0E03  0084               	movwf	4
  3694  0E04  1383               	bcf	3,7	;select IRP bank0
  3695  0E05  0880               	movf	0,f
  3696  0E06  1903               	skipnz
  3697  0E07  2E10               	goto	l7521
  3698  0E08  3030               	movlw	48
  3699  0E09  26C1               	fcall	PL3	;call to abstracted procedure
  3700  0E0A  120A  118A  2100   	fcall	fptable
      +       120A  158A         
  3701  0E0F  2E16               	goto	l7525
  3702  0E10                     l7521:	
  3703  0E10  0837               	movf	__doprnt@pb^(0+128),w
  3704  0E11  0084               	movwf	4
  3705  0E12  0800               	movf	0,w
  3706  0E13  2735  120A  158A   	fcall	PL21	;call to abstracted procedure
  3707  0E16                     l7525:	
  3708  0E16  30FF               	movlw	-1
  3709  0E17  27BB               	call	PL41	;select bank 1
  3710  0E18  07AF               	addwf	__doprnt@width^(0+128),f
  3711  0E19  1C03               	skipc
  3712  0E1A  03B0               	decf	(__doprnt@width+1)^(0+128),f
  3713  0E1B  2DFD               	goto	L5
  3714  0E1C                     l7527:	
  3715  0E1C  0830               	movf	(__doprnt@width+1)^(0+128),w
  3716  0E1D  042F               	iorwf	__doprnt@width^(0+128),w
  3717  0E1E  1903               	skipnz
  3718  0E1F  2E3E               	goto	l7539
  3719  0E20                     l7529:	
  3720  0E20  0837               	movf	__doprnt@pb^(0+128),w
  3721  0E21  3E01               	addlw	1
  3722  0E22  0084               	movwf	4
  3723  0E23  1383               	bcf	3,7	;select IRP bank0
  3724  0E24  0880               	movf	0,f
  3725  0E25  1903               	skipnz
  3726  0E26  2E2F               	goto	l7533
  3727  0E27  3020               	movlw	32
  3728  0E28  26C1               	fcall	PL3	;call to abstracted procedure
  3729  0E29  120A  118A  2100   	fcall	fptable
      +       120A  158A         
  3730  0E2E  2E35               	goto	l7537
  3731  0E2F                     l7533:	
  3732  0E2F  0837               	movf	__doprnt@pb^(0+128),w
  3733  0E30  0084               	movwf	4
  3734  0E31  0800               	movf	0,w
  3735  0E32  276B  120A  158A   	fcall	PL37	;call to abstracted procedure
  3736  0E35                     l7537:	
  3737  0E35  30FF               	movlw	-1
  3738  0E36  27BB               	call	PL41	;select bank 1
  3739  0E37  07AF               	addwf	__doprnt@width^(0+128),f
  3740  0E38  1C03               	skipc
  3741  0E39  03B0               	decf	(__doprnt@width+1)^(0+128),f
  3742  0E3A  0830               	movf	(__doprnt@width+1)^(0+128),w
  3743  0E3B  042F               	iorwf	__doprnt@width^(0+128),w
  3744  0E3C  1D03               	skipz
  3745  0E3D  2E20               	goto	l7529
  3746  0E3E                     l7539:	
  3747  0E3E  082B               	movf	__doprnt@flag^(0+128),w
  3748  0E3F  3903               	andlw	3
  3749  0E40  1903               	btfsc	3,2
  3750  0E41  2E58               	goto	l7559
  3751  0E42  0837               	movf	__doprnt@pb^(0+128),w
  3752  0E43  3E01               	addlw	1
  3753  0E44  0084               	movwf	4
  3754  0E45  1383               	bcf	3,7	;select IRP bank0
  3755  0E46  0880               	movf	0,f
  3756  0E47  1903               	skipnz
  3757  0E48  2E51               	goto	l7545
  3758  0E49  302D               	movlw	45
  3759  0E4A  26C1               	fcall	PL3	;call to abstracted procedure
  3760  0E4B  120A  118A  2100   	fcall	fptable
      +       120A  158A         
  3761  0E50  2E58               	goto	l7559
  3762  0E51                     l7545:	
  3763  0E51  2772  120A  158A   	fcall	PL38	;call to abstracted procedure
  3764  0E54                     L6:	
  3765  0E54  0080               	movwf	0
  3766  0E55  0837               	movf	__doprnt@pb^(0+128),w
  3767  0E56  0084               	movwf	4
  3768  0E57  0A80               	incf	0,f
  3769  0E58                     l7559:	
  3770  0E58  30FF               	movlw	-1
  3771  0E59  27BB               	call	PL41	;select bank 1
  3772  0E5A  07B4               	addwf	__doprnt@prec^(0+128),f
  3773  0E5B  1C03               	skipc
  3774  0E5C  03B5               	decf	(__doprnt@prec+1)^(0+128),f
  3775  0E5D  0A34               	incf	__doprnt@prec^(0+128),w
  3776  0E5E  1903               	skipnz
  3777  0E5F  0A35               	incf	(__doprnt@prec+1)^(0+128),w
  3778  0E60  1903               	btfsc	3,2
  3779  0E61  280B               	goto	l7561
  3780  0E62  300A               	movlw	10
  3781  0E63  1283               	bcf	3,5	;RP0=0, select bank0
  3782  0E64  00A5               	movwf	?___llmod
  3783  0E65  01A6               	clrf	?___llmod+1
  3784  0E66  01A7               	clrf	?___llmod+2
  3785  0E67  01A8               	clrf	?___llmod+3
  3786  0E68  1683               	bsf	3,5	;RP0=1, select bank1
  3787  0E69  0834               	movf	__doprnt@prec^(0+128),w
  3788  0E6A  1283               	bcf	3,5	;RP0=0, select bank0
  3789  0E6B  00D8               	movwf	??__doprnt
  3790  0E6C  1003               	clrc
  3791  0E6D  0DD8               	rlf	??__doprnt,f
  3792  0E6E  1003               	clrc
  3793  0E6F  0D58               	rlf	??__doprnt,w
  3794  0E70  3E4F               	addlw	low (_dpowers-__stringbase)
  3795  0E71  0084               	movwf	4
  3796  0E72  160A  118A  2000   	fcall	stringdir
      +       120A  158A         
  3797  0E77  00F2               	movwf	?___lldiv
  3798  0E78  160A  118A  2000   	fcall	stringdir
      +       120A  158A         
  3799  0E7D  00F3               	movwf	?___lldiv+1
  3800  0E7E  160A  118A  2000   	fcall	stringdir
      +       120A  158A         
  3801  0E83  00F4               	movwf	?___lldiv+2
  3802  0E84  160A  118A  2000   	fcall	stringdir
      +       120A  158A         
  3803  0E89  26D3               	fcall	PL5	;call to abstracted procedure
  3804  0E8A  120A  118A  27A5   	fcall	___lldiv
      +       120A  158A         
  3805  0E8F  26E5  120A  158A   	fcall	PL8	;call to abstracted procedure
  3806  0E92  277D  120A  158A   	fcall	___llmod
  3807  0E95  0825               	movf	?___llmod,w
  3808  0E96  3E30               	addlw	48
  3809  0E97  1683               	bsf	3,5	;RP0=1, select bank1
  3810  0E98  00B6               	movwf	__doprnt@c^(0+128)
  3811  0E99  0837               	movf	__doprnt@pb^(0+128),w
  3812  0E9A  3E01               	addlw	1
  3813  0E9B  0084               	movwf	4
  3814  0E9C  1383               	bcf	3,7	;select IRP bank0
  3815  0E9D  0880               	movf	0,f
  3816  0E9E  1903               	skipnz
  3817  0E9F  2EA8               	goto	l7555
  3818  0EA0  0836               	movf	__doprnt@c^(0+128),w
  3819  0EA1  26C1               	fcall	PL3	;call to abstracted procedure
  3820  0EA2  120A  118A  2100   	fcall	fptable
      +       120A  158A         
  3821  0EA7  2E58               	goto	l7559
  3822  0EA8                     l7555:	
  3823  0EA8  0837               	movf	__doprnt@pb^(0+128),w
  3824  0EA9  0084               	movwf	4
  3825  0EAA  0800               	movf	0,w
  3826  0EAB  0084               	movwf	4
  3827  0EAC  0836               	movf	__doprnt@c^(0+128),w
  3828  0EAD  2E54               	goto	L6
  3829  0EAE                     l7563:	
  3830  0EAE  1283               	bcf	3,5	;RP0=0, select bank0
  3831  0EAF  01D6               	clrf	?__doprnt
  3832  0EB0  01D7               	clrf	?__doprnt+1
  3833  0EB1  0008               	return
  3834  0EB2                     __end_of__doprnt:	
  3835  0EB2                     PL2:	
  3836  0EB2  00A5               	movwf	?___llmod
  3837  0EB3  01A6               	clrf	?___llmod+1
  3838  0EB4  01A7               	clrf	?___llmod+2
  3839  0EB5  01A8               	clrf	?___llmod+3
  3840  0EB6  1683               	bsf	3,5	;RP0=1, select bank1
  3841  0EB7  0836               	movf	__doprnt@c^(0+128),w
  3842  0EB8  1283               	bcf	3,5	;RP0=0, select bank0
  3843  0EB9  00D8               	movwf	??__doprnt
  3844  0EBA  1003               	clrc
  3845  0EBB  0DD8               	rlf	??__doprnt,f
  3846  0EBC  1003               	clrc
  3847  0EBD  0D58               	rlf	??__doprnt,w
  3848  0EBE  3E4F               	addlw	low (_dpowers-__stringbase)
  3849  0EBF  0084               	movwf	4
  3850  0EC0  0008               	return
  3851  0EC1                     PL3:	
  3852  0EC1  1283               	bcf	3,5	;RP0=0, select bank0
  3853  0EC2  00AD               	movwf	?_putch
  3854  0EC3  1683               	bsf	3,5	;RP0=1, select bank1
  3855  0EC4  0837               	movf	__doprnt@pb^(0+128),w
  3856  0EC5  3E01               	addlw	1
  3857  0EC6  0084               	movwf	4
  3858  0EC7  0800               	movf	0,w
  3859  0EC8  0008               	return
  3860  0EC9                     PL4:	
  3861  0EC9  0836               	movf	__doprnt@c^(0+128),w
  3862  0ECA  1283               	bcf	3,5	;RP0=0, select bank0
  3863  0ECB  00D8               	movwf	??__doprnt
  3864  0ECC  1003               	clrc
  3865  0ECD  0DD8               	rlf	??__doprnt,f
  3866  0ECE  1003               	clrc
  3867  0ECF  0D58               	rlf	??__doprnt,w
  3868  0ED0  3E4F               	addlw	low (_dpowers-__stringbase)
  3869  0ED1  0084               	movwf	4
  3870  0ED2  0008               	return
  3871  0ED3                     PL5:	
  3872  0ED3  00F5               	movwf	?___lldiv+3
  3873  0ED4  1683               	bsf	3,5	;RP0=1, select bank1
  3874  0ED5  082A               	movf	(__doprnt@_val+3)^(0+128),w
  3875  0ED6  00F9               	movwf	?___lldiv+7
  3876  0ED7  0829               	movf	(__doprnt@_val+2)^(0+128),w
  3877  0ED8  00F8               	movwf	?___lldiv+6
  3878  0ED9  0828               	movf	(__doprnt@_val+1)^(0+128),w
  3879  0EDA  00F7               	movwf	?___lldiv+5
  3880  0EDB  0827               	movf	__doprnt@_val^(0+128),w
  3881  0EDC  00F6               	movwf	?___lldiv+4
  3882  0EDD  0008               	return
  3883  0EDE                     PL6:	
  3884  0EDE  00AD               	movwf	?_putch
  3885  0EDF  1683               	bsf	3,5	;RP0=1, select bank1
  3886  0EE0  0837               	movf	__doprnt@pb^(0+128),w
  3887  0EE1  3E01               	addlw	1
  3888  0EE2  0084               	movwf	4
  3889  0EE3  0800               	movf	0,w
  3890  0EE4  0008               	return
  3891  0EE5                     PL8:	
  3892  0EE5  0875               	movf	?___lldiv+3,w
  3893  0EE6  00AC               	movwf	?___llmod+7
  3894  0EE7  0874               	movf	?___lldiv+2,w
  3895  0EE8  00AB               	movwf	?___llmod+6
  3896  0EE9  0873               	movf	?___lldiv+1,w
  3897  0EEA  00AA               	movwf	?___llmod+5
  3898  0EEB  0872               	movf	?___lldiv,w
  3899  0EEC  00A9               	movwf	?___llmod+4
  3900  0EED  0008               	return
  3901  0EEE                     PL9:	
  3902  0EEE  0827               	movf	?___fttol+3,w
  3903  0EEF  1683               	bsf	3,5	;RP0=1, select bank1
  3904  0EF0  00AA               	movwf	(__doprnt@_val+3)^(0+128)
  3905  0EF1  1283               	bcf	3,5	;RP0=0, select bank0
  3906  0EF2  0826               	movf	?___fttol+2,w
  3907  0EF3  1683               	bsf	3,5	;RP0=1, select bank1
  3908  0EF4  00A9               	movwf	(__doprnt@_val+2)^(0+128)
  3909  0EF5  1283               	bcf	3,5	;RP0=0, select bank0
  3910  0EF6  0825               	movf	?___fttol+1,w
  3911  0EF7  1683               	bsf	3,5	;RP0=1, select bank1
  3912  0EF8  00A8               	movwf	(__doprnt@_val+1)^(0+128)
  3913  0EF9  1283               	bcf	3,5	;RP0=0, select bank0
  3914  0EFA  0824               	movf	?___fttol,w
  3915  0EFB  0008               	return
  3916  0EFC                     PL14:	
  3917  0EFC  0840               	movf	?_scale,w
  3918  0EFD  1683               	bsf	3,5	;RP0=1, select bank1
  3919  0EFE  00A4               	movwf	__doprnt@integ^(0+128)
  3920  0EFF  1283               	bcf	3,5	;RP0=0, select bank0
  3921  0F00  0841               	movf	?_scale+1,w
  3922  0F01  1683               	bsf	3,5	;RP0=1, select bank1
  3923  0F02  00A5               	movwf	(__doprnt@integ+1)^(0+128)
  3924  0F03  1283               	bcf	3,5	;RP0=0, select bank0
  3925  0F04  0842               	movf	?_scale+2,w
  3926  0F05  1683               	bsf	3,5	;RP0=1, select bank1
  3927  0F06  00A6               	movwf	(__doprnt@integ+2)^(0+128)
  3928  0F07  0831               	movf	__doprnt@fval^(0+128),w
  3929  0F08  0008               	return
  3930  0F09                     PL15:	
  3931  0F09  1283               	bcf	3,5	;RP0=0, select bank0
  3932  0F0A  00A4               	movwf	?___fttol
  3933  0F0B  1683               	bsf	3,5	;RP0=1, select bank1
  3934  0F0C  0832               	movf	(__doprnt@fval+1)^(0+128),w
  3935  0F0D  1283               	bcf	3,5	;RP0=0, select bank0
  3936  0F0E  00A5               	movwf	?___fttol+1
  3937  0F0F  1683               	bsf	3,5	;RP0=1, select bank1
  3938  0F10  0833               	movf	(__doprnt@fval+2)^(0+128),w
  3939  0F11  1283               	bcf	3,5	;RP0=0, select bank0
  3940  0F12  00A6               	movwf	?___fttol+2
  3941  0F13  0008               	return
  3942  0F14                     PL16:	
  3943  0F14  1283               	bcf	3,5	;RP0=0, select bank0
  3944  0F15  00B1               	movwf	?___ftmul
  3945  0F16  1683               	bsf	3,5	;RP0=1, select bank1
  3946  0F17  0832               	movf	(__doprnt@fval+1)^(0+128),w
  3947  0F18  1283               	bcf	3,5	;RP0=0, select bank0
  3948  0F19  00B2               	movwf	?___ftmul+1
  3949  0F1A  1683               	bsf	3,5	;RP0=1, select bank1
  3950  0F1B  0833               	movf	(__doprnt@fval+2)^(0+128),w
  3951  0F1C  1283               	bcf	3,5	;RP0=0, select bank0
  3952  0F1D  00B3               	movwf	?___ftmul+2
  3953  0F1E  0008               	return
  3954  0F1F                     PL17:	
  3955  0F1F  0772               	addwf	?___wmul,w
  3956  0F20  00D8               	movwf	??__doprnt
  3957  0F21  3000               	movlw	0
  3958  0F22  1803               	skipnc
  3959  0F23  3001               	movlw	1
  3960  0F24  0773               	addwf	?___wmul+1,w
  3961  0F25  00D9               	movwf	??__doprnt+1
  3962  0F26  0858               	movf	??__doprnt,w
  3963  0F27  3ED0               	addlw	208
  3964  0F28  1683               	bsf	3,5	;RP0=1, select bank1
  3965  0F29  0008               	return
  3966  0F2A                     PL18:	
  3967  0F2A  0825               	movf	?___llmod,w
  3968  0F2B  3E30               	addlw	48
  3969  0F2C  00D9               	movwf	??__doprnt+1
  3970  0F2D  1683               	bsf	3,5	;RP0=1, select bank1
  3971  0F2E  0837               	movf	__doprnt@pb^(0+128),w
  3972  0F2F  0084               	movwf	4
  3973  0F30  0800               	movf	0,w
  3974  0F31  0084               	movwf	4
  3975  0F32  1283               	bcf	3,5	;RP0=0, select bank0
  3976  0F33  0859               	movf	??__doprnt+1,w
  3977  0F34  0008               	return
  3978  0F35                     PL21:	
  3979  0F35  0084               	movwf	4
  3980  0F36  3030               	movlw	48
  3981  0F37  0080               	movwf	0
  3982  0F38  0837               	movf	__doprnt@pb^(0+128),w
  3983  0F39  0084               	movwf	4
  3984  0F3A  0A80               	incf	0,f
  3985  0F3B  0008               	return
  3986  0F3C                     PL23:	
  3987  0F3C  1283               	bcf	3,5	;RP0=0, select bank0
  3988  0F3D  00D8               	movwf	??__doprnt
  3989  0F3E  01D9               	clrf	??__doprnt+1
  3990  0F3F  1BD8               	btfsc	??__doprnt,7
  3991  0F40  03D9               	decf	??__doprnt+1,f
  3992  0F41  0859               	movf	??__doprnt+1,w
  3993  0F42  3A80               	xorlw	128
  3994  0F43  00DA               	movwf	??__doprnt+2
  3995  0F44  1683               	bsf	3,5	;RP0=1, select bank1
  3996  0F45  0008               	return
  3997  0F46                     PL24:	
  3998  0F46  1303               	bcf	3,6	;RP1=0, select bank1
  3999  0F47  0836               	movf	__doprnt@c^(0+128),w
  4000  0F48  1283               	bcf	3,5	;RP0=0, select bank0
  4001  0F49  00D8               	movwf	??__doprnt
  4002  0F4A  01D9               	clrf	??__doprnt+1
  4003  0F4B  1BD8               	btfsc	??__doprnt,7
  4004  0F4C  03D9               	decf	??__doprnt+1,f
  4005  0F4D  1683               	bsf	3,5	;RP0=1, select bank1
  4006  0F4E  0008               	return
  4007  0F4F                     PL25:	
  4008  0F4F  0824               	movf	__doprnt@integ^(0+128),w
  4009  0F50  00F2               	movwf	?___ftge
  4010  0F51  0825               	movf	(__doprnt@integ+1)^(0+128),w
  4011  0F52  00F3               	movwf	?___ftge+1
  4012  0F53  0826               	movf	(__doprnt@integ+2)^(0+128),w
  4013  0F54  00F4               	movwf	?___ftge+2
  4014  0F55  0008               	return
  4015  0F56                     PL26:	
  4016  0F56  1303               	bcf	3,6	;RP1=0, select bank1
  4017  0F57  0837               	movf	__doprnt@pb^(0+128),w
  4018  0F58  3E01               	addlw	1
  4019  0F59  0084               	movwf	4
  4020  0F5A  1383               	bcf	3,7	;select IRP bank0
  4021  0F5B  0880               	movf	0,f
  4022  0F5C  0008               	return
  4023  0F5D                     PL34:	
  4024  0F5D  1283               	bcf	3,5	;RP0=0, select bank0
  4025  0F5E  0859               	movf	??__doprnt+1,w
  4026  0F5F  1803               	skipnc
  4027  0F60  3E01               	addlw	1
  4028  0F61  3EFF               	addlw	255
  4029  0F62  1683               	bsf	3,5	;RP0=1, select bank1
  4030  0F63  0008               	return
  4031  0F64                     PL36:	
  4032  0F64  0837               	movf	__doprnt@pb^(0+128),w
  4033  0F65  3E01               	addlw	1
  4034  0F66  0084               	movwf	4
  4035  0F67  300A               	movlw	10
  4036  0F68  1383               	bcf	3,7	;select IRP bank0
  4037  0F69  0880               	movf	0,f
  4038  0F6A  0008               	return
  4039  0F6B                     PL37:	
  4040  0F6B  0084               	movwf	4
  4041  0F6C  3020               	movlw	32
  4042  0F6D  0080               	movwf	0
  4043  0F6E  0837               	movf	__doprnt@pb^(0+128),w
  4044  0F6F  0084               	movwf	4
  4045  0F70  0A80               	incf	0,f
  4046  0F71  0008               	return
  4047  0F72                     PL38:	
  4048  0F72  0837               	movf	__doprnt@pb^(0+128),w
  4049  0F73  0084               	movwf	4
  4050  0F74  0800               	movf	0,w
  4051  0F75  0084               	movwf	4
  4052  0F76  342D               	retlw	45
  4053  0F77                     PL39:	
  4054  0F77  0080               	movwf	0
  4055  0F78  1683               	bsf	3,5	;RP0=1, select bank1
  4056  0F79  0837               	movf	__doprnt@pb^(0+128),w
  4057  0F7A  0084               	movwf	4
  4058  0F7B  0A80               	incf	0,f
  4059  0F7C  0008               	return
  4060  0F7D                     __ptext669:	
  4061 ;; =============== function ___ftneg ends ============
  4062                           
  4063                           
  4064 ;; *************** function ___llmod *****************
  4065 ;; Defined at:
  4066 ;;		line 5 in file "C:\Program Files (x86)\HI-TECH Software\PICC\9.83\sources\llmod.c"
  4067 ;; Parameters:    Size  Location     Type
  4068 ;;  divisor         4    5[BANK0 ] unsigned long 
  4069 ;;  dividend        4    9[BANK0 ] unsigned long 
  4070 ;; Auto vars:     Size  Location     Type
  4071 ;;  counter         1   10[COMMON] unsigned char 
  4072 ;; Return value:  Size  Location     Type
  4073 ;;                  4    5[BANK0 ] unsigned long 
  4074 ;; Registers used:
  4075 ;;		wreg, status,2, status,0
  4076 ;; Tracked objects:
  4077 ;;		On entry : 60/0
  4078 ;;		On exit  : 60/0
  4079 ;;		Unchanged: FFF9F/0
  4080 ;; Data sizes:     COMMON   BANK0   BANK1   BANK3   BANK2
  4081 ;;      Params:         0       8       0       0       0
  4082 ;;      Locals:         1       0       0       0       0
  4083 ;;      Temps:          0       0       0       0       0
  4084 ;;      Totals:         1       8       0       0       0
  4085 ;;Total ram usage:        9 bytes
  4086 ;; Hardware stack levels used:    1
  4087 ;; Hardware stack levels required when called:    1
  4088 ;; This function calls:
  4089 ;;		Nothing
  4090 ;; This function is called by:
  4091 ;;		__doprnt
  4092 ;; This function uses a non-reentrant model
  4093 ;;
  4094  0F7D                     ___llmod:	
  4095                           
  4096                           ; Regs used in ___llmod: [wreg+status,2+status,0]
  4097  0F7D  0828               	movf	___llmod@divisor+3,w
  4098  0F7E  0427               	iorwf	___llmod@divisor+2,w
  4099  0F7F  0426               	iorwf	___llmod@divisor+1,w
  4100  0F80  0425               	iorwf	___llmod@divisor,w
  4101  0F81  1903               	skipnz
  4102  0F82  2FB2               	goto	l6747
  4103  0F83  01FA               	clrf	___llmod@counter
  4104  0F84                     L15:	
  4105  0F84  0AFA               	incf	___llmod@counter,f
  4106  0F85  1BA8               	btfsc	___llmod@divisor+3,7
  4107  0F86  2F8D               	goto	l6739
  4108  0F87  1003               	clrc
  4109  0F88  0DA5               	rlf	___llmod@divisor,f
  4110  0F89  0DA6               	rlf	___llmod@divisor+1,f
  4111  0F8A  0DA7               	rlf	___llmod@divisor+2,f
  4112  0F8B  0DA8               	rlf	___llmod@divisor+3,f
  4113  0F8C  2F84               	goto	L15
  4114  0F8D                     l6739:	
  4115  0F8D  0828               	movf	___llmod@divisor+3,w
  4116  0F8E  022C               	subwf	___llmod@dividend+3,w
  4117  0F8F  1D03               	skipz
  4118  0F90  2F9B               	goto	u2755
  4119  0F91  0827               	movf	___llmod@divisor+2,w
  4120  0F92  022B               	subwf	___llmod@dividend+2,w
  4121  0F93  1D03               	skipz
  4122  0F94  2F9B               	goto	u2755
  4123  0F95  0826               	movf	___llmod@divisor+1,w
  4124  0F96  022A               	subwf	___llmod@dividend+1,w
  4125  0F97  1D03               	skipz
  4126  0F98  2F9B               	goto	u2755
  4127  0F99  0825               	movf	___llmod@divisor,w
  4128  0F9A  0229               	subwf	___llmod@dividend,w
  4129  0F9B                     u2755:	
  4130  0F9B  1C03               	skipc
  4131  0F9C  2FAC               	goto	L16
  4132  0F9D  0825               	movf	___llmod@divisor,w
  4133  0F9E  02A9               	subwf	___llmod@dividend,f
  4134  0F9F  0826               	movf	___llmod@divisor+1,w
  4135  0FA0  1C03               	skipc
  4136  0FA1  0F26               	incfsz	___llmod@divisor+1,w
  4137  0FA2  02AA               	subwf	___llmod@dividend+1,f
  4138  0FA3  0827               	movf	___llmod@divisor+2,w
  4139  0FA4  1C03               	skipc
  4140  0FA5  0F27               	incfsz	___llmod@divisor+2,w
  4141  0FA6  02AB               	subwf	___llmod@dividend+2,f
  4142  0FA7  0828               	movf	___llmod@divisor+3,w
  4143  0FA8  1C03               	skipc
  4144  0FA9  0F28               	incfsz	___llmod@divisor+3,w
  4145  0FAA  02AC               	subwf	___llmod@dividend+3,f
  4146  0FAB  1003               	clrc
  4147  0FAC                     L16:	
  4148  0FAC  0CA8               	rrf	___llmod@divisor+3,f
  4149  0FAD  0CA7               	rrf	___llmod@divisor+2,f
  4150  0FAE  0CA6               	rrf	___llmod@divisor+1,f
  4151  0FAF  0CA5               	rrf	___llmod@divisor,f
  4152  0FB0  0BFA               	decfsz	___llmod@counter,f
  4153  0FB1  2F8D               	goto	l6739
  4154  0FB2                     l6747:	
  4155  0FB2  082C               	movf	___llmod@dividend+3,w
  4156  0FB3  00A8               	movwf	?___llmod+3
  4157  0FB4  082B               	movf	___llmod@dividend+2,w
  4158  0FB5  00A7               	movwf	?___llmod+2
  4159  0FB6  082A               	movf	___llmod@dividend+1,w
  4160  0FB7  00A6               	movwf	?___llmod+1
  4161  0FB8  0829               	movf	___llmod@dividend,w
  4162  0FB9  00A5               	movwf	?___llmod
  4163  0FBA  0008               	return
  4164  0FBB                     __end_of___llmod:	
  4165  0FBB                     PL41:	
  4166  0FBB  1683               	bsf	3,5	;RP0=1, select bank1
  4167  0FBC  1303               	bcf	3,6	;RP1=0, select bank1
  4168  0FBD  0008               	return
  4169  0FBE                     __ptext667:	
  4170 ;; =============== function ___lldiv ends ============
  4171                           
  4172                           
  4173 ;; *************** function ___ftge *****************
  4174 ;; Defined at:
  4175 ;;		line 5 in file "C:\Program Files (x86)\HI-TECH Software\PICC\9.83\sources\ftge.c"
  4176 ;; Parameters:    Size  Location     Type
  4177 ;;  ff1             3    2[COMMON] float 
  4178 ;;  ff2             3    5[COMMON] float 
  4179 ;; Auto vars:     Size  Location     Type
  4180 ;;		None
  4181 ;; Return value:  Size  Location     Type
  4182 ;;		None               void
  4183 ;; Registers used:
  4184 ;;		wreg, status,2, status,0
  4185 ;; Tracked objects:
  4186 ;;		On entry : 60/20
  4187 ;;		On exit  : 60/20
  4188 ;;		Unchanged: FFF9F/0
  4189 ;; Data sizes:     COMMON   BANK0   BANK1   BANK3   BANK2
  4190 ;;      Params:         6       0       0       0       0
  4191 ;;      Locals:         0       0       0       0       0
  4192 ;;      Temps:          0       0       0       0       0
  4193 ;;      Totals:         6       0       0       0       0
  4194 ;;Total ram usage:        6 bytes
  4195 ;; Hardware stack levels used:    1
  4196 ;; Hardware stack levels required when called:    1
  4197 ;; This function calls:
  4198 ;;		Nothing
  4199 ;; This function is called by:
  4200 ;;		__doprnt
  4201 ;; This function uses a non-reentrant model
  4202 ;;
  4203  0FBE                     ___ftge:	
  4204                           
  4205                           ; Regs used in ___ftge: [wreg+status,2+status,0]
  4206  0FBE  1FF4               	btfss	___ftge@ff1+2,7
  4207  0FBF  2FCD               	goto	l6763
  4208  0FC0  0872               	movf	___ftge@ff1,w
  4209  0FC1  3C00               	sublw	0
  4210  0FC2  00F2               	movwf	___ftge@ff1
  4211  0FC3  0873               	movf	___ftge@ff1+1,w
  4212  0FC4  1C03               	skipc
  4213  0FC5  0F73               	incfsz	___ftge@ff1+1,w
  4214  0FC6  3C00               	sublw	0
  4215  0FC7  00F3               	movwf	___ftge@ff1+1
  4216  0FC8  0874               	movf	___ftge@ff1+2,w
  4217  0FC9  1C03               	skipc
  4218  0FCA  0F74               	incfsz	___ftge@ff1+2,w
  4219  0FCB  3C80               	sublw	128
  4220  0FCC  00F4               	movwf	___ftge@ff1+2
  4221  0FCD                     l6763:	
  4222  0FCD  1FF7               	btfss	___ftge@ff2+2,7
  4223  0FCE  2FDC               	goto	l6767
  4224  0FCF  0875               	movf	___ftge@ff2,w
  4225  0FD0  3C00               	sublw	0
  4226  0FD1  00F5               	movwf	___ftge@ff2
  4227  0FD2  0876               	movf	___ftge@ff2+1,w
  4228  0FD3  1C03               	skipc
  4229  0FD4  0F76               	incfsz	___ftge@ff2+1,w
  4230  0FD5  3C00               	sublw	0
  4231  0FD6  00F6               	movwf	___ftge@ff2+1
  4232  0FD7  0877               	movf	___ftge@ff2+2,w
  4233  0FD8  1C03               	skipc
  4234  0FD9  0F77               	incfsz	___ftge@ff2+2,w
  4235  0FDA  3C80               	sublw	128
  4236  0FDB  00F7               	movwf	___ftge@ff2+2
  4237  0FDC                     l6767:	
  4238  0FDC  3080               	movlw	128
  4239  0FDD  06F4               	xorwf	___ftge@ff1+2,f
  4240  0FDE  06F7               	xorwf	___ftge@ff2+2,f
  4241  0FDF  0877               	movf	___ftge@ff2+2,w
  4242  0FE0  0274               	subwf	___ftge@ff1+2,w
  4243  0FE1  1D03               	skipz
  4244  0FE2  0008               	return
  4245  0FE3  0876               	movf	___ftge@ff2+1,w
  4246  0FE4  0273               	subwf	___ftge@ff1+1,w
  4247  0FE5  1D03               	skipz
  4248  0FE6  0008               	return
  4249  0FE7  0875               	movf	___ftge@ff2,w
  4250  0FE8  0272               	subwf	___ftge@ff1,w
  4251  0FE9  0008               	return
  4252  0FEA                     __end_of___ftge:	
  4253  0FEA                     __ptext679:	
  4254 ;; =============== function __tdiv_to_l_ ends ============
  4255                           
  4256                           
  4257 ;; *************** function _isdigit *****************
  4258 ;; Defined at:
  4259 ;;		line 13 in file "C:\Program Files (x86)\HI-TECH Software\PICC\9.83\sources\isdigit.c"
  4260 ;; Parameters:    Size  Location     Type
  4261 ;;  c               1    wreg     unsigned char 
  4262 ;; Auto vars:     Size  Location     Type
  4263 ;;  c               1    3[COMMON] unsigned char 
  4264 ;; Return value:  Size  Location     Type
  4265 ;;		None               void
  4266 ;; Registers used:
  4267 ;;		wreg, status,2, status,0
  4268 ;; Tracked objects:
  4269 ;;		On entry : 60/0
  4270 ;;		On exit  : 60/0
  4271 ;;		Unchanged: FFF9F/0
  4272 ;; Data sizes:     COMMON   BANK0   BANK1   BANK3   BANK2
  4273 ;;      Params:         0       0       0       0       0
  4274 ;;      Locals:         2       0       0       0       0
  4275 ;;      Temps:          0       0       0       0       0
  4276 ;;      Totals:         2       0       0       0       0
  4277 ;;Total ram usage:        2 bytes
  4278 ;; Hardware stack levels used:    1
  4279 ;; Hardware stack levels required when called:    1
  4280 ;; This function calls:
  4281 ;;		Nothing
  4282 ;; This function is called by:
  4283 ;;		__doprnt
  4284 ;; This function uses a non-reentrant model
  4285 ;;
  4286  0FEA                     _isdigit:	
  4287                           
  4288                           ; Regs used in _isdigit: [wreg+status,2+status,0]
  4289                           ;isdigit@c stored from wreg
  4290  0FEA  00F3               	movwf	isdigit@c
  4291  0FEB  303A               	movlw	58
  4292  0FEC  01F2               	clrf	_isdigit$3718
  4293  0FED  0273               	subwf	isdigit@c,w
  4294  0FEE  1803               	skipnc
  4295  0FEF  2FF6               	goto	l6449
  4296  0FF0  3030               	movlw	48
  4297  0FF1  0273               	subwf	isdigit@c,w
  4298  0FF2  1C03               	skipc
  4299  0FF3  2FF6               	goto	l6449
  4300  0FF4  01F2               	clrf	_isdigit$3718
  4301  0FF5  0AF2               	incf	_isdigit$3718,f
  4302  0FF6                     l6449:	
  4303  0FF6  0C72               	rrf	_isdigit$3718,w
  4304  0FF7  0008               	return
  4305  0FF8                     __end_of_isdigit:	
  4306  0FF8                     __ptext668:	
  4307 ;; =============== function ___ftge ends ============
  4308                           
  4309                           
  4310 ;; *************** function ___ftneg *****************
  4311 ;; Defined at:
  4312 ;;		line 16 in file "C:\Program Files (x86)\HI-TECH Software\PICC\9.83\sources\ftneg.c"
  4313 ;; Parameters:    Size  Location     Type
  4314 ;;  f1              3    2[COMMON] float 
  4315 ;; Auto vars:     Size  Location     Type
  4316 ;;		None
  4317 ;; Return value:  Size  Location     Type
  4318 ;;                  3    2[COMMON] float 
  4319 ;; Registers used:
  4320 ;;		wreg
  4321 ;; Tracked objects:
  4322 ;;		On entry : 160/20
  4323 ;;		On exit  : 160/20
  4324 ;;		Unchanged: FFE9F/0
  4325 ;; Data sizes:     COMMON   BANK0   BANK1   BANK3   BANK2
  4326 ;;      Params:         3       0       0       0       0
  4327 ;;      Locals:         0       0       0       0       0
  4328 ;;      Temps:          0       0       0       0       0
  4329 ;;      Totals:         3       0       0       0       0
  4330 ;;Total ram usage:        3 bytes
  4331 ;; Hardware stack levels used:    1
  4332 ;; Hardware stack levels required when called:    1
  4333 ;; This function calls:
  4334 ;;		Nothing
  4335 ;; This function is called by:
  4336 ;;		__doprnt
  4337 ;; This function uses a non-reentrant model
  4338 ;;
  4339  0FF8                     ___ftneg:	
  4340                           
  4341                           ; Regs used in ___ftneg: [wreg]
  4342  0FF8  0874               	movf	___ftneg@f1+2,w
  4343  0FF9  0473               	iorwf	___ftneg@f1+1,w
  4344  0FFA  0472               	iorwf	___ftneg@f1,w
  4345  0FFB  1903               	skipnz
  4346  0FFC  0008               	return
  4347  0FFD  3080               	movlw	128
  4348  0FFE  06F4               	xorwf	___ftneg@f1+2,f
  4349  0FFF  0008               	return
  4350  1000                     __end_of___ftneg:	
  4351                           
  4352                           	psect	text651
  4353  047F                     __ptext651:	
  4354 ;; =============== function __doprnt ends ============
  4355                           
  4356                           
  4357 ;; *************** function _putch *****************
  4358 ;; Defined at:
  4359 ;;		line 88 in file "D:\TTVXL\Project TTVXL\BT n Thi 03\BT n Thi 03.c"
  4360 ;; Parameters:    Size  Location     Type
  4361 ;;  c               1   13[BANK0 ] unsigned char 
  4362 ;; Auto vars:     Size  Location     Type
  4363 ;;		None
  4364 ;; Return value:  Size  Location     Type
  4365 ;;		None               void
  4366 ;; Registers used:
  4367 ;;		wreg, fsr0l, fsr0h, status,2, status,0, pclath, cstack
  4368 ;; Tracked objects:
  4369 ;;		On entry : 160/20
  4370 ;;		On exit  : 60/0
  4371 ;;		Unchanged: 0/0
  4372 ;; Data sizes:     COMMON   BANK0   BANK1   BANK3   BANK2
  4373 ;;      Params:         0       1       0       0       0
  4374 ;;      Locals:         0       0       0       0       0
  4375 ;;      Temps:          0       0       0       0       0
  4376 ;;      Totals:         0       1       0       0       0
  4377 ;;Total ram usage:        1 bytes
  4378 ;; Hardware stack levels used:    1
  4379 ;; Hardware stack levels required when called:    4
  4380 ;; This function calls:
  4381 ;;		_lcd_putc
  4382 ;; This function is called by:
  4383 ;;		_printf
  4384 ;;		__doprnt
  4385 ;; This function uses a non-reentrant model
  4386 ;;
  4387  047F                     _putch:	
  4388                           
  4389                           ;BT n Thi 03.c: 89: lcd_putc(c);
  4390                           
  4391                           ; Regs used in _putch: [wreg-fsr0h+status,2+status,0+pclath+cstack]
  4392  047F  1283               	bcf	3,5	;RP0=0, select bank0
  4393  0480  082D               	movf	putch@c,w
  4394  0481  2C9A               	ljmp	_lcd_putc
  4395  0482                     __end_of_putch:	
  4396  0482                     __ptext656:	
  4397 ;; =============== function _fround ends ============
  4398                           
  4399                           
  4400 ;; *************** function _lcd_gotoxy *****************
  4401 ;; Defined at:
  4402 ;;		line 162 in file "D:\TTVXL\Library\lcd(16).c"
  4403 ;; Parameters:    Size  Location     Type
  4404 ;;  col             1    wreg     unsigned char 
  4405 ;;  row             1    7[COMMON] unsigned char 
  4406 ;; Auto vars:     Size  Location     Type
  4407 ;;  col             1    8[COMMON] unsigned char 
  4408 ;;  address         1    9[COMMON] unsigned char 
  4409 ;; Return value:  Size  Location     Type
  4410 ;;		None               void
  4411 ;; Registers used:
  4412 ;;		wreg, status,2, status,0, pclath, cstack
  4413 ;; Tracked objects:
  4414 ;;		On entry : 40/20
  4415 ;;		On exit  : 60/0
  4416 ;;		Unchanged: 0/0
  4417 ;; Data sizes:     COMMON   BANK0   BANK1   BANK3   BANK2
  4418 ;;      Params:         1       0       0       0       0
  4419 ;;      Locals:         2       0       0       0       0
  4420 ;;      Temps:          0       0       0       0       0
  4421 ;;      Totals:         3       0       0       0       0
  4422 ;;Total ram usage:        3 bytes
  4423 ;; Hardware stack levels used:    1
  4424 ;; Hardware stack levels required when called:    2
  4425 ;; This function calls:
  4426 ;;		_lcd_put_byte
  4427 ;;		_lcd_busy
  4428 ;; This function is called by:
  4429 ;;		_main
  4430 ;;		_lcd_putc
  4431 ;; This function uses a non-reentrant model
  4432 ;;
  4433  0482                     _lcd_gotoxy:	
  4434                           
  4435                           ; Regs used in _lcd_gotoxy: [wreg+status,2+status,0+pclath+cstack]
  4436                           ;lcd_gotoxy@col stored from wreg
  4437  0482  00F8               	movwf	lcd_gotoxy@col
  4438                           
  4439                           ;lcd(16).c: 163: unsigned char address;
  4440                           ;lcd(16).c: 165: if(row!=0)
  4441  0483  0877               	movf	lcd_gotoxy@row,w
  4442  0484  1903               	btfsc	3,2
  4443  0485  2C89               	goto	l7101
  4444                           
  4445                           ;lcd(16).c: 166: address=0x40;
  4446  0486  3040               	movlw	64
  4447  0487  00F9               	movwf	lcd_gotoxy@address
  4448  0488  2C8A               	goto	l7103
  4449  0489                     l7101:	
  4450                           
  4451                           ;lcd(16).c: 167: else
  4452                           ;lcd(16).c: 168: address=0;
  4453  0489  01F9               	clrf	lcd_gotoxy@address
  4454  048A                     l7103:	
  4455                           
  4456                           ;lcd(16).c: 170: address += col;
  4457  048A  0878               	movf	lcd_gotoxy@col,w
  4458  048B  07F9               	addwf	lcd_gotoxy@address,f
  4459                           
  4460                           ;lcd(16).c: 171: lcd_put_byte(0,0x80|address);
  4461  048C  0879               	movf	lcd_gotoxy@address,w
  4462  048D  3880               	iorlw	128
  4463  048E  00F2               	movwf	?_lcd_put_byte
  4464  048F  3000               	movlw	0
  4465  0490  2584  120A  118A   	fcall	_lcd_put_byte
  4466  0493                     l7107:	
  4467                           ;lcd(16).c: 172: while(lcd_busy());
  4468                           
  4469  0493  2614  120A  118A   	fcall	_lcd_busy
  4470  0496  3800               	iorlw	0
  4471  0497  1903               	btfsc	3,2
  4472  0498  0008               	return
  4473  0499  2C93               	goto	l7107
  4474  049A                     __end_of_lcd_gotoxy:	
  4475  049A                     __ptext652:	
  4476 ;; =============== function _putch ends ============
  4477                           
  4478                           
  4479 ;; *************** function _lcd_putc *****************
  4480 ;; Defined at:
  4481 ;;		line 143 in file "D:\TTVXL\Library\lcd(16).c"
  4482 ;; Parameters:    Size  Location     Type
  4483 ;;  c               1    wreg     unsigned char 
  4484 ;; Auto vars:     Size  Location     Type
  4485 ;;  c               1   10[COMMON] unsigned char 
  4486 ;; Return value:  Size  Location     Type
  4487 ;;		None               void
  4488 ;; Registers used:
  4489 ;;		wreg, fsr0l, fsr0h, status,2, status,0, pclath, cstack
  4490 ;; Tracked objects:
  4491 ;;		On entry : 160/0
  4492 ;;		On exit  : 60/0
  4493 ;;		Unchanged: 0/0
  4494 ;; Data sizes:     COMMON   BANK0   BANK1   BANK3   BANK2
  4495 ;;      Params:         0       0       0       0       0
  4496 ;;      Locals:         1       0       0       0       0
  4497 ;;      Temps:          0       0       0       0       0
  4498 ;;      Totals:         1       0       0       0       0
  4499 ;;Total ram usage:        1 bytes
  4500 ;; Hardware stack levels used:    1
  4501 ;; Hardware stack levels required when called:    3
  4502 ;; This function calls:
  4503 ;;		_lcd_put_byte
  4504 ;;		_lcd_busy
  4505 ;;		_lcd_gotoxy
  4506 ;;		_isprint
  4507 ;; This function is called by:
  4508 ;;		_putch
  4509 ;; This function uses a non-reentrant model
  4510 ;;
  4511  049A                     _lcd_putc:	
  4512                           
  4513                           ; Regs used in _lcd_putc: [wreg-fsr0h+status,2+status,0+pclath+cstack]
  4514                           ;lcd_putc@c stored from wreg
  4515  049A  00FA               	movwf	lcd_putc@c
  4516                           
  4517                           ;lcd(16).c: 144: switch(c){
  4518  049B  2CC0               	goto	l7193
  4519  049C                     l7179:	
  4520  049C  3000               	movlw	0
  4521                           
  4522                           ;lcd(16).c: 146: lcd_put_byte(0, 1);
  4523  049D  01F2               	clrf	?_lcd_put_byte
  4524  049E  0AF2               	incf	?_lcd_put_byte,f
  4525  049F  2584  120A  118A   	fcall	_lcd_put_byte
  4526  04A2                     l7181:	
  4527                           ;lcd(16).c: 147: while(lcd_busy());
  4528                           
  4529  04A2  2614  120A  118A   	fcall	_lcd_busy
  4530  04A5  3800               	iorlw	0
  4531  04A6  1903               	btfsc	3,2
  4532  04A7  0008               	return
  4533  04A8  2CA2               	goto	l7181
  4534  04A9                     l7183:	
  4535  04A9  3000               	movlw	0
  4536                           
  4537                           ;lcd(16).c: 150: lcd_gotoxy(0, 1);
  4538  04AA  01F7               	clrf	?_lcd_gotoxy
  4539  04AB  0AF7               	incf	?_lcd_gotoxy,f
  4540  04AC  2C82               	ljmp	_lcd_gotoxy
  4541  04AD                     l7185:	
  4542                           ;lcd(16).c: 151: break;
  4543                           
  4544                           
  4545                           ;lcd(16).c: 153: if(isprint(c)){
  4546  04AD  087A               	movf	lcd_putc@c,w
  4547  04AE  263B  120A  118A   	fcall	_isprint
  4548  04B1  1C03               	btfss	3,0
  4549  04B2  0008               	return
  4550                           
  4551                           ;lcd(16).c: 154: lcd_put_byte(1, c);
  4552  04B3  087A               	movf	lcd_putc@c,w
  4553  04B4  00F2               	movwf	?_lcd_put_byte
  4554  04B5  3001               	movlw	1
  4555  04B6  2584  120A  118A   	fcall	_lcd_put_byte
  4556  04B9                     l7189:	
  4557                           ;lcd(16).c: 155: while(lcd_busy());
  4558                           
  4559  04B9  2614  120A  118A   	fcall	_lcd_busy
  4560  04BC  3800               	iorlw	0
  4561  04BD  1903               	btfsc	3,2
  4562  04BE  0008               	return
  4563  04BF  2CB9               	goto	l7189
  4564  04C0                     l7193:	
  4565  04C0  087A               	movf	lcd_putc@c,w
  4566                           
  4567                           ; Switch size 1, requested type "space"
  4568                           ; Number of cases is 2, Range of values is 10 to 12
  4569                           ; switch strategies available:
  4570                           ; Name         Instructions Cycles
  4571                           ; simple_byte            7     4 (average)
  4572                           ; direct_byte           20    11 (fixed)
  4573                           ; jumptable            263     9 (fixed)
  4574                           ;	Chosen strategy is simple_byte
  4575  04C1  3A0A               	xorlw	10	; case 10
  4576  04C2  1903               	skipnz
  4577  04C3  2CA9               	goto	l7183
  4578  04C4  3A06               	xorlw	6	; case 12
  4579  04C5  1903               	skipnz
  4580  04C6  2C9C               	goto	l7179
  4581  04C7  2CAD               	goto	l7185
  4582  04C8  0008               	return
  4583  04C9                     __end_of_lcd_putc:	
  4584  04C9                     __ptext657:	
  4585 ;; =============== function _lcd_gotoxy ends ============
  4586                           
  4587                           
  4588 ;; *************** function _lcd_init *****************
  4589 ;; Defined at:
  4590 ;;		line 5 in file "D:\TTVXL\Library\lcd(16).c"
  4591 ;; Parameters:    Size  Location     Type
  4592 ;;		None
  4593 ;; Auto vars:     Size  Location     Type
  4594 ;;  i               1    0        unsigned char 
  4595 ;; Return value:  Size  Location     Type
  4596 ;;		None               void
  4597 ;; Registers used:
  4598 ;;		wreg, status,2, status,0, pclath, cstack
  4599 ;; Tracked objects:
  4600 ;;		On entry : 17F/60
  4601 ;;		On exit  : 60/0
  4602 ;;		Unchanged: 0/0
  4603 ;; Data sizes:     COMMON   BANK0   BANK1   BANK3   BANK2
  4604 ;;      Params:         0       0       0       0       0
  4605 ;;      Locals:         0       0       0       0       0
  4606 ;;      Temps:          3       0       0       0       0
  4607 ;;      Totals:         3       0       0       0       0
  4608 ;;Total ram usage:        3 bytes
  4609 ;; Hardware stack levels used:    1
  4610 ;; Hardware stack levels required when called:    2
  4611 ;; This function calls:
  4612 ;;		_lcd_put_byte
  4613 ;;		_lcd_busy
  4614 ;; This function is called by:
  4615 ;;		_main
  4616 ;; This function uses a non-reentrant model
  4617 ;;
  4618  04C9                     _lcd_init:	
  4619                           
  4620                           ;lcd(16).c: 6: unsigned char i;
  4621                           ;lcd(16).c: 7: TRISD3 = 0;
  4622                           
  4623                           ; Regs used in _lcd_init: [wreg+status,2+status,0+pclath+cstack]
  4624  04C9  1303               	bcf	3,6	;RP1=0, select bank1
  4625  04CA  1188               	bcf	8,3
  4626                           
  4627                           ;lcd(16).c: 8: TRISD1 = 0;
  4628  04CB  1088               	bcf	8,1
  4629                           
  4630                           ;lcd(16).c: 9: TRISD2 = 0;
  4631  04CC  1108               	bcf	8,2
  4632                           
  4633                           ;lcd(16).c: 10: TRISD4 = 0;
  4634  04CD  1208               	bcf	8,4
  4635                           
  4636                           ;lcd(16).c: 11: TRISD5 = 0;
  4637  04CE  1288               	bcf	8,5
  4638                           
  4639                           ;lcd(16).c: 12: TRISD6 = 0;
  4640  04CF  1308               	bcf	8,6
  4641                           
  4642                           ;lcd(16).c: 13: TRISD7 = 0;
  4643  04D0  1388               	bcf	8,7
  4644                           
  4645                           ;lcd(16).c: 14: RD3 = 0;
  4646  04D1  1283               	bcf	3,5	;RP0=0, select bank0
  4647  04D2  3003               	movlw	3
  4648  04D3  1188               	bcf	8,3
  4649                           
  4650                           ;lcd(16).c: 15: RD1 = 0;
  4651  04D4  1088               	bcf	8,1
  4652                           
  4653                           ;lcd(16).c: 16: RD2 = 0;
  4654  04D5  1108               	bcf	8,2
  4655                           
  4656                           ;lcd(16).c: 18: _delay((unsigned long)((100)*(20000000/4000.0)));
  4657  04D6  00F9               	movwf	??_lcd_init+2
  4658  04D7  308A               	movlw	138
  4659  04D8  00F8               	movwf	??_lcd_init+1
  4660  04D9  3056               	movlw	86
  4661  04DA  00F7               	movwf	??_lcd_init
  4662  04DB                     u4297:	
  4663  04DB  0BF7               	decfsz	??_lcd_init,f
  4664  04DC  2CDB               	goto	u4297
  4665  04DD  0BF8               	decfsz	??_lcd_init+1,f
  4666  04DE  2CDB               	goto	u4297
  4667  04DF  0BF9               	decfsz	??_lcd_init+2,f
  4668  04E0  2CDB               	goto	u4297
  4669  04E1  2CE2               	nop2
  4670                           
  4671                           ;lcd(16).c: 21: lcd_put_byte(0,0x30);
  4672  04E2  3030               	movlw	48
  4673  04E3  00F2               	movwf	?_lcd_put_byte
  4674  04E4  3000               	movlw	0
  4675  04E5  2584  120A  118A   	fcall	_lcd_put_byte
  4676                           
  4677                           ;lcd(16).c: 22: _delay((unsigned long)((50)*(20000000/4000.0)));
  4678  04E8  3002               	movlw	2
  4679  04E9  00F9               	movwf	??_lcd_init+2
  4680  04EA  3045               	movlw	69
  4681  04EB  00F8               	movwf	??_lcd_init+1
  4682  04EC  30A9               	movlw	169
  4683  04ED  00F7               	movwf	??_lcd_init
  4684  04EE                     u4307:	
  4685  04EE  0BF7               	decfsz	??_lcd_init,f
  4686  04EF  2CEE               	goto	u4307
  4687  04F0  0BF8               	decfsz	??_lcd_init+1,f
  4688  04F1  2CEE               	goto	u4307
  4689  04F2  0BF9               	decfsz	??_lcd_init+2,f
  4690  04F3  2CEE               	goto	u4307
  4691  04F4  2CF5               	nop2
  4692                           
  4693                           ;lcd(16).c: 23: lcd_put_byte(0,0x30);
  4694  04F5  3030               	movlw	48
  4695  04F6  00F2               	movwf	?_lcd_put_byte
  4696  04F7  3000               	movlw	0
  4697  04F8  2584  120A  118A   	fcall	_lcd_put_byte
  4698                           
  4699                           ;lcd(16).c: 24: _delay((unsigned long)((50)*(20000000/4000.0)));
  4700  04FB  3002               	movlw	2
  4701  04FC  00F9               	movwf	??_lcd_init+2
  4702  04FD  3045               	movlw	69
  4703  04FE  00F8               	movwf	??_lcd_init+1
  4704  04FF  30A9               	movlw	169
  4705  0500  00F7               	movwf	??_lcd_init
  4706  0501                     u4317:	
  4707  0501  0BF7               	decfsz	??_lcd_init,f
  4708  0502  2D01               	goto	u4317
  4709  0503  0BF8               	decfsz	??_lcd_init+1,f
  4710  0504  2D01               	goto	u4317
  4711  0505  0BF9               	decfsz	??_lcd_init+2,f
  4712  0506  2D01               	goto	u4317
  4713  0507  2D08               	nop2
  4714                           
  4715                           ;lcd(16).c: 25: lcd_put_byte(0,0x32);
  4716  0508  3032               	movlw	50
  4717  0509  00F2               	movwf	?_lcd_put_byte
  4718  050A  3000               	movlw	0
  4719  050B  2584  120A  118A   	fcall	_lcd_put_byte
  4720                           
  4721                           ;lcd(16).c: 26: _delay((unsigned long)((100)*(20000000/4000.0)));
  4722  050E  3003               	movlw	3
  4723  050F  00F9               	movwf	??_lcd_init+2
  4724  0510  308A               	movlw	138
  4725  0511  00F8               	movwf	??_lcd_init+1
  4726  0512  3056               	movlw	86
  4727  0513  00F7               	movwf	??_lcd_init
  4728  0514                     u4327:	
  4729  0514  0BF7               	decfsz	??_lcd_init,f
  4730  0515  2D14               	goto	u4327
  4731  0516  0BF8               	decfsz	??_lcd_init+1,f
  4732  0517  2D14               	goto	u4327
  4733  0518  0BF9               	decfsz	??_lcd_init+2,f
  4734  0519  2D14               	goto	u4327
  4735  051A  2D1B               	nop2
  4736                           
  4737                           ;lcd(16).c: 27: _delay((unsigned long)((100)*(20000000/4000.0)));
  4738  051B  3003               	movlw	3
  4739  051C  00F9               	movwf	??_lcd_init+2
  4740  051D  308A               	movlw	138
  4741  051E  00F8               	movwf	??_lcd_init+1
  4742  051F  3056               	movlw	86
  4743  0520  00F7               	movwf	??_lcd_init
  4744  0521                     u4337:	
  4745  0521  0BF7               	decfsz	??_lcd_init,f
  4746  0522  2D21               	goto	u4337
  4747  0523  0BF8               	decfsz	??_lcd_init+1,f
  4748  0524  2D21               	goto	u4337
  4749  0525  0BF9               	decfsz	??_lcd_init+2,f
  4750  0526  2D21               	goto	u4337
  4751  0527  2D28               	nop2
  4752                           
  4753                           ;lcd(16).c: 28: _delay((unsigned long)((100)*(20000000/4000.0)));
  4754  0528  3003               	movlw	3
  4755  0529  00F9               	movwf	??_lcd_init+2
  4756  052A  308A               	movlw	138
  4757  052B  00F8               	movwf	??_lcd_init+1
  4758  052C  3056               	movlw	86
  4759  052D  00F7               	movwf	??_lcd_init
  4760  052E                     u4347:	
  4761  052E  0BF7               	decfsz	??_lcd_init,f
  4762  052F  2D2E               	goto	u4347
  4763  0530  0BF8               	decfsz	??_lcd_init+1,f
  4764  0531  2D2E               	goto	u4347
  4765  0532  0BF9               	decfsz	??_lcd_init+2,f
  4766  0533  2D2E               	goto	u4347
  4767  0534  2D35               	nop2
  4768  0535                     l7071:	
  4769                           ;lcd(16).c: 30: while(lcd_busy());
  4770                           
  4771  0535  2614  120A  118A   	fcall	_lcd_busy
  4772  0538  3800               	iorlw	0
  4773  0539  1D03               	skipz
  4774  053A  2D35               	goto	l7071
  4775                           
  4776                           ;lcd(16).c: 31: lcd_put_byte(0,0b00101100 & 0b00111000);
  4777  053B  3028               	movlw	40
  4778  053C  00F2               	movwf	?_lcd_put_byte
  4779  053D  3000               	movlw	0
  4780  053E  2584  120A  118A   	fcall	_lcd_put_byte
  4781  0541                     l7075:	
  4782                           ;lcd(16).c: 32: while(lcd_busy());
  4783                           
  4784  0541  2614  120A  118A   	fcall	_lcd_busy
  4785  0544  3800               	iorlw	0
  4786  0545  1D03               	skipz
  4787  0546  2D41               	goto	l7075
  4788                           
  4789                           ;lcd(16).c: 34: lcd_put_byte(0,0b00001011&0b00001101&0b00001110);
  4790  0547  3008               	movlw	8
  4791  0548  00F2               	movwf	?_lcd_put_byte
  4792  0549  3000               	movlw	0
  4793  054A  2584  120A  118A   	fcall	_lcd_put_byte
  4794  054D                     l7079:	
  4795                           ;lcd(16).c: 35: while(lcd_busy());
  4796                           
  4797  054D  2614  120A  118A   	fcall	_lcd_busy
  4798  0550  3800               	iorlw	0
  4799  0551  1D03               	skipz
  4800  0552  2D4D               	goto	l7079
  4801                           
  4802                           ;lcd(16).c: 36: lcd_put_byte(0,0b00001111&0b00001101&0b00001110);
  4803  0553  300C               	movlw	12
  4804  0554  00F2               	movwf	?_lcd_put_byte
  4805  0555  3000               	movlw	0
  4806  0556  2584  120A  118A   	fcall	_lcd_put_byte
  4807  0559                     l7083:	
  4808                           ;lcd(16).c: 37: while(lcd_busy());
  4809                           
  4810  0559  2614  120A  118A   	fcall	_lcd_busy
  4811  055C  3800               	iorlw	0
  4812  055D  1D03               	skipz
  4813  055E  2D59               	goto	l7083
  4814  055F  3000               	movlw	0
  4815                           
  4816                           ;lcd(16).c: 39: lcd_put_byte(0,0x01);
  4817  0560  01F2               	clrf	?_lcd_put_byte
  4818  0561  0AF2               	incf	?_lcd_put_byte,f
  4819  0562  2584  120A  118A   	fcall	_lcd_put_byte
  4820  0565                     l7087:	
  4821                           ;lcd(16).c: 40: while(lcd_busy());
  4822                           
  4823  0565  2614  120A  118A   	fcall	_lcd_busy
  4824  0568  3800               	iorlw	0
  4825  0569  1D03               	skipz
  4826  056A  2D65               	goto	l7087
  4827                           
  4828                           ;lcd(16).c: 41: lcd_put_byte(0,0b00000100);
  4829  056B  3004               	movlw	4
  4830  056C  00F2               	movwf	?_lcd_put_byte
  4831  056D  3000               	movlw	0
  4832  056E  2584  120A  118A   	fcall	_lcd_put_byte
  4833  0571                     l7091:	
  4834                           ;lcd(16).c: 42: while(lcd_busy());
  4835                           
  4836  0571  2614  120A  118A   	fcall	_lcd_busy
  4837  0574  3800               	iorlw	0
  4838  0575  1D03               	skipz
  4839  0576  2D71               	goto	l7091
  4840  0577  3000               	movlw	0
  4841                           
  4842                           ;lcd(16).c: 43: lcd_put_byte(0,0x01);
  4843  0578  01F2               	clrf	?_lcd_put_byte
  4844  0579  0AF2               	incf	?_lcd_put_byte,f
  4845  057A  2584  120A  118A   	fcall	_lcd_put_byte
  4846  057D                     l7095:	
  4847                           ;lcd(16).c: 44: while(lcd_busy());
  4848                           
  4849  057D  2614  120A  118A   	fcall	_lcd_busy
  4850  0580  3800               	iorlw	0
  4851  0581  1903               	btfsc	3,2
  4852  0582  0008               	return
  4853  0583  2D7D               	goto	l7095
  4854  0584                     __end_of_lcd_init:	
  4855  0584                     __ptext663:	
  4856 ;; =============== function _lcd_busy ends ============
  4857                           
  4858                           
  4859 ;; *************** function _lcd_put_byte *****************
  4860 ;; Defined at:
  4861 ;;		line 106 in file "D:\TTVXL\Library\lcd(16).c"
  4862 ;; Parameters:    Size  Location     Type
  4863 ;;  rs              1    wreg     unsigned char 
  4864 ;;  b               1    2[COMMON] unsigned char 
  4865 ;; Auto vars:     Size  Location     Type
  4866 ;;  rs              1    5[COMMON] unsigned char 
  4867 ;;  temp            1    6[COMMON] struct _BYTE_VAL
  4868 ;; Return value:  Size  Location     Type
  4869 ;;		None               void
  4870 ;; Registers used:
  4871 ;;		wreg, status,2, status,0
  4872 ;; Tracked objects:
  4873 ;;		On entry : 0/0
  4874 ;;		On exit  : 60/0
  4875 ;;		Unchanged: 0/0
  4876 ;; Data sizes:     COMMON   BANK0   BANK1   BANK3   BANK2
  4877 ;;      Params:         1       0       0       0       0
  4878 ;;      Locals:         2       0       0       0       0
  4879 ;;      Temps:          2       0       0       0       0
  4880 ;;      Totals:         5       0       0       0       0
  4881 ;;Total ram usage:        5 bytes
  4882 ;; Hardware stack levels used:    1
  4883 ;; Hardware stack levels required when called:    1
  4884 ;; This function calls:
  4885 ;;		Nothing
  4886 ;; This function is called by:
  4887 ;;		_lcd_init
  4888 ;;		_lcd_putc
  4889 ;;		_lcd_gotoxy
  4890 ;; This function uses a non-reentrant model
  4891 ;;
  4892  0584                     _lcd_put_byte:	
  4893                           
  4894                           ; Regs used in _lcd_put_byte: [wreg+status,2+status,0]
  4895                           ;lcd_put_byte@rs stored from wreg
  4896  0584  00F5               	movwf	lcd_put_byte@rs
  4897                           
  4898                           ;lcd(16).c: 107: BYTE_VAL temp;
  4899                           ;lcd(16).c: 109: TRISD4 = 0;
  4900  0585  1683               	bsf	3,5	;RP0=1, select bank1
  4901  0586  1303               	bcf	3,6	;RP1=0, select bank1
  4902  0587  1208               	bcf	8,4
  4903                           
  4904                           ;lcd(16).c: 110: TRISD5 = 0;
  4905  0588  1288               	bcf	8,5
  4906                           
  4907                           ;lcd(16).c: 111: TRISD6 = 0;
  4908  0589  1308               	bcf	8,6
  4909                           
  4910                           ;lcd(16).c: 112: TRISD7 = 0;
  4911  058A  1388               	bcf	8,7
  4912                           
  4913                           ;lcd(16).c: 114: RD1 = 0;
  4914  058B  1283               	bcf	3,5	;RP0=0, select bank0
  4915  058C  1088               	bcf	8,1
  4916                           
  4917                           ;lcd(16).c: 115: if(rs) RD1 = 1;
  4918  058D  0875               	movf	lcd_put_byte@rs,w
  4919  058E  1D03               	skipz
  4920  058F  1488               	bsf	8,1
  4921                           
  4922                           ;lcd(16).c: 117: _delay((unsigned long)((20)*(20000000/4000000.0)));
  4923  0590  3021               	movlw	33
  4924  0591  00F3               	movwf	??_lcd_put_byte
  4925  0592                     u4397:	
  4926  0592  0BF3               	decfsz	??_lcd_put_byte,f
  4927  0593  2D92               	goto	u4397
  4928  0594  2650               	call	PL40	;select bank 0
  4929                           
  4930                           ;lcd(16).c: 118: RD2 = 0;
  4931  0595  3021               	movlw	33
  4932  0596  1108               	bcf	8,2
  4933                           
  4934                           ;lcd(16).c: 119: _delay((unsigned long)((20)*(20000000/4000000.0)));
  4935  0597  00F3               	movwf	??_lcd_put_byte
  4936  0598                     u4407:	
  4937  0598  0BF3               	decfsz	??_lcd_put_byte,f
  4938  0599  2D98               	goto	u4407
  4939  059A  2650               	call	PL40	;select bank 0
  4940                           
  4941                           ;lcd(16).c: 120: RD3 = 0;
  4942  059B  1188               	bcf	8,3
  4943                           
  4944                           ;lcd(16).c: 122: temp.Val = b;
  4945  059C  0872               	movf	lcd_put_byte@b,w
  4946  059D  00F6               	movwf	lcd_put_byte@temp
  4947                           
  4948                           ;lcd(16).c: 125: RD4 = temp.bits.b4;
  4949  059E  0E76               	swapf	lcd_put_byte@temp,w
  4950  059F  3901               	andlw	1
  4951  05A0  00F3               	movwf	??_lcd_put_byte
  4952  05A1  0C73               	rrf	??_lcd_put_byte,w
  4953  05A2  1C03               	btfss	3,0
  4954  05A3  2DA7               	goto	u2940
  4955  05A4  2650               	call	PL40	;select bank 0
  4956  05A5  1608               	bsf	8,4
  4957  05A6  2DA9               	goto	l6863
  4958  05A7                     u2940:	
  4959  05A7  2650               	call	PL40	;select bank 0
  4960  05A8  1208               	bcf	8,4
  4961  05A9                     l6863:	
  4962                           
  4963                           ;lcd(16).c: 126: RD5 = temp.bits.b5;
  4964  05A9  0E76               	swapf	lcd_put_byte@temp,w
  4965  05AA  00F3               	movwf	??_lcd_put_byte
  4966  05AB  0C73               	rrf	??_lcd_put_byte,w
  4967  05AC  3901               	andlw	1
  4968  05AD  00F4               	movwf	??_lcd_put_byte+1
  4969  05AE  0C74               	rrf	??_lcd_put_byte+1,w
  4970  05AF  1C03               	btfss	3,0
  4971  05B0  2DB4               	goto	u2960
  4972  05B1  2650               	call	PL40	;select bank 0
  4973  05B2  1688               	bsf	8,5
  4974  05B3  2DB6               	goto	l6865
  4975  05B4                     u2960:	
  4976  05B4  2650               	call	PL40	;select bank 0
  4977  05B5  1288               	bcf	8,5
  4978  05B6                     l6865:	
  4979                           
  4980                           ;lcd(16).c: 127: RD6 = temp.bits.b6;
  4981  05B6  0E76               	swapf	lcd_put_byte@temp,w
  4982  05B7  2649  120A  118A   	fcall	PL35	;call to abstracted procedure
  4983  05BA  1C03               	btfss	3,0
  4984  05BB  2DBF               	goto	u2980
  4985  05BC  2650               	call	PL40	;select bank 0
  4986  05BD  1708               	bsf	8,6
  4987  05BE  2DC1               	goto	l6867
  4988  05BF                     u2980:	
  4989  05BF  2650               	call	PL40	;select bank 0
  4990  05C0  1308               	bcf	8,6
  4991  05C1                     l6867:	
  4992                           
  4993                           ;lcd(16).c: 128: RD7 = temp.bits.b7;
  4994  05C1  0D76               	rlf	lcd_put_byte@temp,w
  4995  05C2  0D76               	rlf	lcd_put_byte@temp,w
  4996  05C3  3901               	andlw	1
  4997  05C4  00F3               	movwf	??_lcd_put_byte
  4998  05C5  0C73               	rrf	??_lcd_put_byte,w
  4999  05C6  1C03               	btfss	3,0
  5000  05C7  2DCB               	goto	u3000
  5001  05C8  2650               	call	PL40	;select bank 0
  5002  05C9  1788               	bsf	8,7
  5003  05CA  2DCD               	goto	u3014
  5004  05CB                     u3000:	
  5005  05CB  2650               	call	PL40	;select bank 0
  5006  05CC  1388               	bcf	8,7
  5007  05CD                     u3014:	
  5008                           
  5009                           ;lcd(16).c: 129: _delay((unsigned long)((20)*(20000000/4000000.0)));
  5010  05CD  3021               	movlw	33
  5011  05CE  00F3               	movwf	??_lcd_put_byte
  5012  05CF                     u4417:	
  5013  05CF  0BF3               	decfsz	??_lcd_put_byte,f
  5014  05D0  2DCF               	goto	u4417
  5015  05D1  2650               	call	PL40	;select bank 0
  5016                           
  5017                           ;lcd(16).c: 130: RD3 = 1;
  5018  05D2  3021               	movlw	33
  5019  05D3  1588               	bsf	8,3
  5020                           
  5021                           ;lcd(16).c: 131: _delay((unsigned long)((20)*(20000000/4000000.0)));
  5022  05D4  00F3               	movwf	??_lcd_put_byte
  5023  05D5                     u4427:	
  5024  05D5  0BF3               	decfsz	??_lcd_put_byte,f
  5025  05D6  2DD5               	goto	u4427
  5026  05D7  2650               	call	PL40	;select bank 0
  5027                           
  5028                           ;lcd(16).c: 132: RD3 = 0;
  5029  05D8  1188               	bcf	8,3
  5030                           
  5031                           ;lcd(16).c: 134: RD4 = temp.bits.b0;
  5032  05D9  0876               	movf	lcd_put_byte@temp,w
  5033  05DA  3901               	andlw	1
  5034  05DB  00F3               	movwf	??_lcd_put_byte
  5035  05DC  0C73               	rrf	??_lcd_put_byte,w
  5036  05DD  1C03               	btfss	3,0
  5037  05DE  2DE2               	goto	u3020
  5038  05DF  2650               	call	PL40	;select bank 0
  5039  05E0  1608               	bsf	8,4
  5040  05E1  2DE4               	goto	l6875
  5041  05E2                     u3020:	
  5042  05E2  2650               	call	PL40	;select bank 0
  5043  05E3  1208               	bcf	8,4
  5044  05E4                     l6875:	
  5045                           
  5046                           ;lcd(16).c: 135: RD5 = temp.bits.b1;
  5047  05E4  0C76               	rrf	lcd_put_byte@temp,w
  5048  05E5  3901               	andlw	1
  5049  05E6  00F3               	movwf	??_lcd_put_byte
  5050  05E7  0C73               	rrf	??_lcd_put_byte,w
  5051  05E8  1C03               	btfss	3,0
  5052  05E9  2DED               	goto	u3040
  5053  05EA  2650               	call	PL40	;select bank 0
  5054  05EB  1688               	bsf	8,5
  5055  05EC  2DEF               	goto	l6877
  5056  05ED                     u3040:	
  5057  05ED  2650               	call	PL40	;select bank 0
  5058  05EE  1288               	bcf	8,5
  5059  05EF                     l6877:	
  5060                           
  5061                           ;lcd(16).c: 136: RD6 = temp.bits.b2;
  5062  05EF  0C76               	rrf	lcd_put_byte@temp,w
  5063  05F0  00F3               	movwf	??_lcd_put_byte
  5064  05F1  0C73               	rrf	??_lcd_put_byte,w
  5065  05F2  3901               	andlw	1
  5066  05F3  00F4               	movwf	??_lcd_put_byte+1
  5067  05F4  0C74               	rrf	??_lcd_put_byte+1,w
  5068  05F5  1C03               	btfss	3,0
  5069  05F6  2DFA               	goto	u3060
  5070  05F7  2650               	call	PL40	;select bank 0
  5071  05F8  1708               	bsf	8,6
  5072  05F9  2DFC               	goto	l6879
  5073  05FA                     u3060:	
  5074  05FA  2650               	call	PL40	;select bank 0
  5075  05FB  1308               	bcf	8,6
  5076  05FC                     l6879:	
  5077                           
  5078                           ;lcd(16).c: 137: RD7 = temp.bits.b3;
  5079  05FC  0C76               	rrf	lcd_put_byte@temp,w
  5080  05FD  2649  120A  118A   	fcall	PL35	;call to abstracted procedure
  5081  0600  1C03               	btfss	3,0
  5082  0601  2E05               	goto	u3080
  5083  0602  2650               	call	PL40	;select bank 0
  5084  0603  1788               	bsf	8,7
  5085  0604  2E07               	goto	u3094
  5086  0605                     u3080:	
  5087  0605  2650               	call	PL40	;select bank 0
  5088  0606  1388               	bcf	8,7
  5089  0607                     u3094:	
  5090                           
  5091                           ;lcd(16).c: 138: _delay((unsigned long)((20)*(20000000/4000000.0)));
  5092  0607  3021               	movlw	33
  5093  0608  00F3               	movwf	??_lcd_put_byte
  5094  0609                     u4437:	
  5095  0609  0BF3               	decfsz	??_lcd_put_byte,f
  5096  060A  2E09               	goto	u4437
  5097  060B  2650               	call	PL40	;select bank 0
  5098                           
  5099                           ;lcd(16).c: 139: RD3 = 1;
  5100  060C  3021               	movlw	33
  5101  060D  1588               	bsf	8,3
  5102                           
  5103                           ;lcd(16).c: 140: _delay((unsigned long)((20)*(20000000/4000000.0)));
  5104  060E  00F3               	movwf	??_lcd_put_byte
  5105  060F                     u4447:	
  5106  060F  0BF3               	decfsz	??_lcd_put_byte,f
  5107  0610  2E0F               	goto	u4447
  5108  0611  2650               	call	PL40	;select bank 0
  5109                           
  5110                           ;lcd(16).c: 141: RD3 = 0;
  5111  0612  1188               	bcf	8,3
  5112  0613  0008               	return
  5113  0614                     __end_of_lcd_put_byte:	
  5114  0614                     __ptext662:	
  5115 ;; =============== function ___ftadd ends ============
  5116                           
  5117                           
  5118 ;; *************** function _lcd_busy *****************
  5119 ;; Defined at:
  5120 ;;		line 47 in file "D:\TTVXL\Library\lcd(16).c"
  5121 ;; Parameters:    Size  Location     Type
  5122 ;;		None
  5123 ;; Auto vars:     Size  Location     Type
  5124 ;;  busy            1    3[COMMON] unsigned char 
  5125 ;; Return value:  Size  Location     Type
  5126 ;;                  1    wreg      unsigned char 
  5127 ;; Registers used:
  5128 ;;		wreg
  5129 ;; Tracked objects:
  5130 ;;		On entry : 0/0
  5131 ;;		On exit  : 60/0
  5132 ;;		Unchanged: 0/0
  5133 ;; Data sizes:     COMMON   BANK0   BANK1   BANK3   BANK2
  5134 ;;      Params:         0       0       0       0       0
  5135 ;;      Locals:         1       0       0       0       0
  5136 ;;      Temps:          1       0       0       0       0
  5137 ;;      Totals:         2       0       0       0       0
  5138 ;;Total ram usage:        2 bytes
  5139 ;; Hardware stack levels used:    1
  5140 ;; Hardware stack levels required when called:    1
  5141 ;; This function calls:
  5142 ;;		Nothing
  5143 ;; This function is called by:
  5144 ;;		_lcd_init
  5145 ;;		_lcd_putc
  5146 ;;		_lcd_gotoxy
  5147 ;; This function uses a non-reentrant model
  5148 ;;
  5149  0614                     _lcd_busy:	
  5150                           
  5151                           ;lcd(16).c: 48: unsigned char busy;
  5152                           ;lcd(16).c: 50: TRISD4 = 1;
  5153                           
  5154                           ; Regs used in _lcd_busy: [wreg]
  5155  0614  1683               	bsf	3,5	;RP0=1, select bank1
  5156  0615  1303               	bcf	3,6	;RP1=0, select bank1
  5157  0616  1608               	bsf	8,4
  5158                           
  5159                           ;lcd(16).c: 51: TRISD5 = 1;
  5160  0617  1688               	bsf	8,5
  5161                           
  5162                           ;lcd(16).c: 52: TRISD6 = 1;
  5163  0618  1708               	bsf	8,6
  5164                           
  5165                           ;lcd(16).c: 53: TRISD7 = 1;
  5166  0619  1788               	bsf	8,7
  5167                           
  5168                           ;lcd(16).c: 55: RD2 = 1;
  5169  061A  1283               	bcf	3,5	;RP0=0, select bank0
  5170  061B  3021               	movlw	33
  5171  061C  1508               	bsf	8,2
  5172                           
  5173                           ;lcd(16).c: 56: RD1 = 0;
  5174  061D  1088               	bcf	8,1
  5175                           
  5176                           ;lcd(16).c: 57: _delay((unsigned long)((20)*(20000000/4000000.0)));
  5177  061E  00F2               	movwf	??_lcd_busy
  5178  061F                     u4357:	
  5179  061F  0BF2               	decfsz	??_lcd_busy,f
  5180  0620  2E1F               	goto	u4357
  5181  0621  2650               	call	PL40	;select bank 0
  5182                           
  5183                           ;lcd(16).c: 58: RD3 = 1;
  5184  0622  3021               	movlw	33
  5185  0623  1588               	bsf	8,3
  5186                           
  5187                           ;lcd(16).c: 59: _delay((unsigned long)((20)*(20000000/4000000.0)));
  5188  0624  00F2               	movwf	??_lcd_busy
  5189  0625                     u4367:	
  5190  0625  0BF2               	decfsz	??_lcd_busy,f
  5191  0626  2E25               	goto	u4367
  5192                           
  5193                           ;lcd(16).c: 61: busy = RD7;
  5194  0627  3000               	movlw	0
  5195  0628  2650               	call	PL40	;select bank 0
  5196  0629  1B88               	btfsc	8,7
  5197  062A  3001               	movlw	1
  5198  062B  00F3               	movwf	lcd_busy@busy
  5199  062C  3021               	movlw	33
  5200                           
  5201                           ;lcd(16).c: 63: RD3 = 0;
  5202  062D  1188               	bcf	8,3
  5203                           
  5204                           ;lcd(16).c: 64: _delay((unsigned long)((20)*(20000000/4000000.0)));
  5205  062E  00F2               	movwf	??_lcd_busy
  5206  062F                     u4377:	
  5207  062F  0BF2               	decfsz	??_lcd_busy,f
  5208  0630  2E2F               	goto	u4377
  5209  0631  2650               	call	PL40	;select bank 0
  5210                           
  5211                           ;lcd(16).c: 65: RD3 = 1;
  5212  0632  3021               	movlw	33
  5213  0633  1588               	bsf	8,3
  5214                           
  5215                           ;lcd(16).c: 66: _delay((unsigned long)((20)*(20000000/4000000.0)));
  5216  0634  00F2               	movwf	??_lcd_busy
  5217  0635                     u4387:	
  5218  0635  0BF2               	decfsz	??_lcd_busy,f
  5219  0636  2E35               	goto	u4387
  5220  0637  2650               	call	PL40	;select bank 0
  5221                           
  5222                           ;lcd(16).c: 67: RD3 = 0;
  5223  0638  1188               	bcf	8,3
  5224                           
  5225                           ;lcd(16).c: 70: return busy;
  5226  0639  0873               	movf	lcd_busy@busy,w
  5227  063A  0008               	return
  5228  063B                     __end_of_lcd_busy:	
  5229  063B                     __ptext680:	
  5230 ;; =============== function _isdigit ends ============
  5231                           
  5232                           
  5233 ;; *************** function _isprint *****************
  5234 ;; Defined at:
  5235 ;;		line 13 in file "C:\Program Files (x86)\HI-TECH Software\PICC\9.83\sources\isprint.c"
  5236 ;; Parameters:    Size  Location     Type
  5237 ;;  c               1    wreg     unsigned char 
  5238 ;; Auto vars:     Size  Location     Type
  5239 ;;  c               1    3[COMMON] unsigned char 
  5240 ;; Return value:  Size  Location     Type
  5241 ;;		None               void
  5242 ;; Registers used:
  5243 ;;		wreg, status,2, status,0
  5244 ;; Tracked objects:
  5245 ;;		On entry : 160/0
  5246 ;;		On exit  : 160/0
  5247 ;;		Unchanged: FFE9F/0
  5248 ;; Data sizes:     COMMON   BANK0   BANK1   BANK3   BANK2
  5249 ;;      Params:         0       0       0       0       0
  5250 ;;      Locals:         2       0       0       0       0
  5251 ;;      Temps:          0       0       0       0       0
  5252 ;;      Totals:         2       0       0       0       0
  5253 ;;Total ram usage:        2 bytes
  5254 ;; Hardware stack levels used:    1
  5255 ;; Hardware stack levels required when called:    1
  5256 ;; This function calls:
  5257 ;;		Nothing
  5258 ;; This function is called by:
  5259 ;;		_lcd_putc
  5260 ;; This function uses a non-reentrant model
  5261 ;;
  5262  063B                     _isprint:	
  5263                           
  5264                           ; Regs used in _isprint: [wreg+status,2+status,0]
  5265                           ;isprint@c stored from wreg
  5266  063B  00F3               	movwf	isprint@c
  5267  063C  307F               	movlw	127
  5268  063D  01F2               	clrf	_isprint$3721
  5269  063E  0273               	subwf	isprint@c,w
  5270  063F  1803               	skipnc
  5271  0640  2E47               	goto	l6437
  5272  0641  3020               	movlw	32
  5273  0642  0273               	subwf	isprint@c,w
  5274  0643  1C03               	skipc
  5275  0644  2E47               	goto	l6437
  5276  0645  01F2               	clrf	_isprint$3721
  5277  0646  0AF2               	incf	_isprint$3721,f
  5278  0647                     l6437:	
  5279  0647  0C72               	rrf	_isprint$3721,w
  5280  0648  0008               	return
  5281  0649                     __end_of_isprint:	
  5282  0649                     PL35:	
  5283  0649  00F3               	movwf	??_lcd_put_byte
  5284  064A  0CF3               	rrf	??_lcd_put_byte,f
  5285  064B  0C73               	rrf	??_lcd_put_byte,w
  5286  064C  3901               	andlw	1
  5287  064D  00F4               	movwf	??_lcd_put_byte+1
  5288  064E  0C74               	rrf	??_lcd_put_byte+1,w
  5289  064F  0008               	return
  5290  0650                     PL40:	
  5291  0650  1283               	bcf	3,5	;RP0=0, select bank0
  5292  0651  1303               	bcf	3,6	;RP1=0, select bank0
  5293  0652  0008               	return
  5294                           
  5295                           	psect	text653
  5296  000F                     __ptext653:	
  5297 ;; =============== function _lcd_putc ends ============
  5298                           
  5299                           
  5300 ;; *************** function ___ftsub *****************
  5301 ;; Defined at:
  5302 ;;		line 17 in file "C:\Program Files (x86)\HI-TECH Software\PICC\9.83\sources\ftsub.c"
  5303 ;; Parameters:    Size  Location     Type
  5304 ;;  f2              3   44[BANK0 ] float 
  5305 ;;  f1              3   47[BANK0 ] float 
  5306 ;; Auto vars:     Size  Location     Type
  5307 ;;		None
  5308 ;; Return value:  Size  Location     Type
  5309 ;;                  3   44[BANK0 ] float 
  5310 ;; Registers used:
  5311 ;;		wreg, status,2, status,0, pclath, cstack
  5312 ;; Tracked objects:
  5313 ;;		On entry : 60/0
  5314 ;;		On exit  : 60/0
  5315 ;;		Unchanged: FFF9F/0
  5316 ;; Data sizes:     COMMON   BANK0   BANK1   BANK3   BANK2
  5317 ;;      Params:         0       6       0       0       0
  5318 ;;      Locals:         0       0       0       0       0
  5319 ;;      Temps:          0       0       0       0       0
  5320 ;;      Totals:         0       6       0       0       0
  5321 ;;Total ram usage:        6 bytes
  5322 ;; Hardware stack levels used:    1
  5323 ;; Hardware stack levels required when called:    3
  5324 ;; This function calls:
  5325 ;;		___ftadd
  5326 ;; This function is called by:
  5327 ;;		__doprnt
  5328 ;; This function uses a non-reentrant model
  5329 ;;
  5330  000F                     ___ftsub:	
  5331                           
  5332                           ; Regs used in ___ftsub: [wreg+status,2+status,0+pclath+cstack]
  5333  000F  3080               	movlw	128
  5334  0010  06CE               	xorwf	___ftsub@f2+2,f
  5335  0011  084F               	movf	___ftsub@f1,w
  5336  0012  00C0               	movwf	?___ftadd
  5337  0013  0850               	movf	___ftsub@f1+1,w
  5338  0014  00C1               	movwf	?___ftadd+1
  5339  0015  0851               	movf	___ftsub@f1+2,w
  5340  0016  00C2               	movwf	?___ftadd+2
  5341  0017  084C               	movf	___ftsub@f2,w
  5342  0018  00C3               	movwf	?___ftadd+3
  5343  0019  084D               	movf	___ftsub@f2+1,w
  5344  001A  00C4               	movwf	?___ftadd+4
  5345  001B  084E               	movf	___ftsub@f2+2,w
  5346  001C  00C5               	movwf	?___ftadd+5
  5347  001D  2025               	fcall	___ftadd
  5348  001E  0840               	movf	?___ftadd,w
  5349  001F  00CC               	movwf	?___ftsub
  5350  0020  0841               	movf	?___ftadd+1,w
  5351  0021  00CD               	movwf	?___ftsub+1
  5352  0022  0842               	movf	?___ftadd+2,w
  5353  0023  00CE               	movwf	?___ftsub+2
  5354  0024  0008               	return
  5355  0025                     __end_of___ftsub:	
  5356  0025                     __ptext661:	
  5357 ;; =============== function ___ftmul ends ============
  5358                           
  5359                           
  5360 ;; *************** function ___ftadd *****************
  5361 ;; Defined at:
  5362 ;;		line 87 in file "C:\Program Files (x86)\HI-TECH Software\PICC\9.83\sources\ftadd.c"
  5363 ;; Parameters:    Size  Location     Type
  5364 ;;  f1              3   32[BANK0 ] float 
  5365 ;;  f2              3   35[BANK0 ] float 
  5366 ;; Auto vars:     Size  Location     Type
  5367 ;;  exp1            1   43[BANK0 ] unsigned char 
  5368 ;;  exp2            1   42[BANK0 ] unsigned char 
  5369 ;;  sign            1   41[BANK0 ] unsigned char 
  5370 ;; Return value:  Size  Location     Type
  5371 ;;                  3   32[BANK0 ] float 
  5372 ;; Registers used:
  5373 ;;		wreg, status,2, status,0, pclath, cstack
  5374 ;; Tracked objects:
  5375 ;;		On entry : 60/0
  5376 ;;		On exit  : 60/0
  5377 ;;		Unchanged: FFF9F/0
  5378 ;; Data sizes:     COMMON   BANK0   BANK1   BANK3   BANK2
  5379 ;;      Params:         0       6       0       0       0
  5380 ;;      Locals:         0       3       0       0       0
  5381 ;;      Temps:          0       3       0       0       0
  5382 ;;      Totals:         0      12       0       0       0
  5383 ;;Total ram usage:       12 bytes
  5384 ;; Hardware stack levels used:    1
  5385 ;; Hardware stack levels required when called:    2
  5386 ;; This function calls:
  5387 ;;		___ftpack
  5388 ;; This function is called by:
  5389 ;;		_main
  5390 ;;		__doprnt
  5391 ;;		___ftsub
  5392 ;; This function uses a non-reentrant model
  5393 ;;
  5394  0025                     ___ftadd:	
  5395                           
  5396                           ; Regs used in ___ftadd: [wreg+status,2+status,0+pclath+cstack]
  5397  0025  0840               	movf	___ftadd@f1,w
  5398  0026  00C6               	movwf	??___ftadd
  5399  0027  0841               	movf	___ftadd@f1+1,w
  5400  0028  00C7               	movwf	??___ftadd+1
  5401  0029  0842               	movf	___ftadd@f1+2,w
  5402  002A  00C8               	movwf	??___ftadd+2
  5403  002B  1003               	clrc
  5404  002C  0D47               	rlf	??___ftadd+1,w
  5405  002D  0D48               	rlf	??___ftadd+2,w
  5406  002E  00CB               	movwf	___ftadd@exp1
  5407  002F  0843               	movf	___ftadd@f2,w
  5408  0030  00C6               	movwf	??___ftadd
  5409  0031  0844               	movf	___ftadd@f2+1,w
  5410  0032  00C7               	movwf	??___ftadd+1
  5411  0033  0845               	movf	___ftadd@f2+2,w
  5412  0034  00C8               	movwf	??___ftadd+2
  5413  0035  1003               	clrc
  5414  0036  0D47               	rlf	??___ftadd+1,w
  5415  0037  0D48               	rlf	??___ftadd+2,w
  5416  0038  00CA               	movwf	___ftadd@exp2
  5417  0039  084B               	movf	___ftadd@exp1,w
  5418  003A  1903               	btfsc	3,2
  5419  003B  2848               	goto	l6907
  5420  003C  084A               	movf	___ftadd@exp2,w
  5421  003D  024B               	subwf	___ftadd@exp1,w
  5422  003E  084A               	movf	___ftadd@exp2,w
  5423  003F  1803               	skipnc
  5424  0040  2850               	goto	L9
  5425  0041  00C6               	movwf	??___ftadd
  5426  0042  084B               	movf	___ftadd@exp1,w
  5427  0043  02C6               	subwf	??___ftadd,f
  5428  0044  3019               	movlw	25
  5429  0045  0246               	subwf	??___ftadd,w
  5430  0046  1C03               	skipc
  5431  0047  284F               	goto	l6911
  5432  0048                     l6907:	
  5433  0048  0843               	movf	___ftadd@f2,w
  5434  0049  00C0               	movwf	?___ftadd
  5435  004A  0844               	movf	___ftadd@f2+1,w
  5436  004B  00C1               	movwf	?___ftadd+1
  5437  004C  0845               	movf	___ftadd@f2+2,w
  5438  004D  00C2               	movwf	?___ftadd+2
  5439  004E  0008               	return
  5440  004F                     l6911:	
  5441  004F  084A               	movf	___ftadd@exp2,w
  5442  0050                     L9:	
  5443  0050  1903               	btfsc	3,2
  5444  0051  0008               	return
  5445  0052  084B               	movf	___ftadd@exp1,w
  5446  0053  024A               	subwf	___ftadd@exp2,w
  5447  0054  1803               	skipnc
  5448  0055  285E               	goto	l6917
  5449  0056  084B               	movf	___ftadd@exp1,w
  5450  0057  00C6               	movwf	??___ftadd
  5451  0058  084A               	movf	___ftadd@exp2,w
  5452  0059  02C6               	subwf	??___ftadd,f
  5453  005A  3019               	movlw	25
  5454  005B  0246               	subwf	??___ftadd,w
  5455  005C  1803               	btfsc	3,0
  5456  005D  0008               	return
  5457  005E                     l6917:	
  5458  005E  3006               	movlw	6
  5459  005F  00C9               	movwf	___ftadd@sign
  5460  0060  1BC2               	btfsc	___ftadd@f1+2,7
  5461  0061  17C9               	bsf	___ftadd@sign,7
  5462  0062  1BC5               	btfsc	___ftadd@f2+2,7
  5463  0063  1749               	bsf	___ftadd@sign,6
  5464  0064  17C1               	bsf	___ftadd@f1+1,7
  5465  0065  01C2               	clrf	___ftadd@f1+2
  5466  0066  17C4               	bsf	___ftadd@f2+1,7
  5467  0067  01C5               	clrf	___ftadd@f2+2
  5468  0068  084A               	movf	___ftadd@exp2,w
  5469  0069  024B               	subwf	___ftadd@exp1,w
  5470  006A  1803               	skipnc
  5471  006B  2885               	goto	l6939
  5472  006C                     l6929:	
  5473  006C  1003               	clrc
  5474  006D  0DC3               	rlf	___ftadd@f2,f
  5475  006E  0DC4               	rlf	___ftadd@f2+1,f
  5476  006F  0DC5               	rlf	___ftadd@f2+2,f
  5477  0070  03CA               	decf	___ftadd@exp2,f
  5478  0071  084A               	movf	___ftadd@exp2,w
  5479  0072  064B               	xorwf	___ftadd@exp1,w
  5480  0073  1903               	skipnz
  5481  0074  2880               	goto	l6937
  5482  0075  03C9               	decf	___ftadd@sign,f
  5483  0076  0849               	movf	___ftadd@sign,w
  5484  0077  3907               	andlw	7
  5485  0078  1903               	btfsc	3,2
  5486  0079  2880               	goto	l6937
  5487  007A  286C               	goto	l6929
  5488  007B                     l6935:	
  5489  007B  1003               	clrc
  5490  007C  0CC2               	rrf	___ftadd@f1+2,f
  5491  007D  0CC1               	rrf	___ftadd@f1+1,f
  5492  007E  0CC0               	rrf	___ftadd@f1,f
  5493  007F  0ACB               	incf	___ftadd@exp1,f
  5494  0080                     l6937:	
  5495  0080  084B               	movf	___ftadd@exp1,w
  5496  0081  064A               	xorwf	___ftadd@exp2,w
  5497  0082  1903               	btfsc	3,2
  5498  0083  28A1               	goto	l3432
  5499  0084  287B               	goto	l6935
  5500  0085                     l6939:	
  5501  0085  084B               	movf	___ftadd@exp1,w
  5502  0086  024A               	subwf	___ftadd@exp2,w
  5503  0087  1803               	skipnc
  5504  0088  28A1               	goto	l3432
  5505  0089                     l6941:	
  5506  0089  1003               	clrc
  5507  008A  0DC0               	rlf	___ftadd@f1,f
  5508  008B  0DC1               	rlf	___ftadd@f1+1,f
  5509  008C  0DC2               	rlf	___ftadd@f1+2,f
  5510  008D  03CB               	decf	___ftadd@exp1,f
  5511  008E  084A               	movf	___ftadd@exp2,w
  5512  008F  064B               	xorwf	___ftadd@exp1,w
  5513  0090  1903               	skipnz
  5514  0091  289D               	goto	l6949
  5515  0092  03C9               	decf	___ftadd@sign,f
  5516  0093  0849               	movf	___ftadd@sign,w
  5517  0094  3907               	andlw	7
  5518  0095  1903               	btfsc	3,2
  5519  0096  289D               	goto	l6949
  5520  0097  2889               	goto	l6941
  5521  0098                     l6947:	
  5522  0098  1003               	clrc
  5523  0099  0CC5               	rrf	___ftadd@f2+2,f
  5524  009A  0CC4               	rrf	___ftadd@f2+1,f
  5525  009B  0CC3               	rrf	___ftadd@f2,f
  5526  009C  0ACA               	incf	___ftadd@exp2,f
  5527  009D                     l6949:	
  5528  009D  084B               	movf	___ftadd@exp1,w
  5529  009E  064A               	xorwf	___ftadd@exp2,w
  5530  009F  1D03               	skipz
  5531  00A0  2898               	goto	l6947
  5532  00A1                     l3432:	
  5533  00A1  1FC9               	btfss	___ftadd@sign,7
  5534  00A2  28AC               	goto	l6955
  5535  00A3  30FF               	movlw	255
  5536  00A4  06C0               	xorwf	___ftadd@f1,f
  5537  00A5  06C1               	xorwf	___ftadd@f1+1,f
  5538  00A6  06C2               	xorwf	___ftadd@f1+2,f
  5539  00A7  0AC0               	incf	___ftadd@f1,f
  5540  00A8  1903               	skipnz
  5541  00A9  0AC1               	incf	___ftadd@f1+1,f
  5542  00AA  1903               	skipnz
  5543  00AB  0AC2               	incf	___ftadd@f1+2,f
  5544  00AC                     l6955:	
  5545  00AC  1F49               	btfss	___ftadd@sign,6
  5546  00AD  28B7               	goto	l6961
  5547  00AE  30FF               	movlw	255
  5548  00AF  06C3               	xorwf	___ftadd@f2,f
  5549  00B0  06C4               	xorwf	___ftadd@f2+1,f
  5550  00B1  06C5               	xorwf	___ftadd@f2+2,f
  5551  00B2  0AC3               	incf	___ftadd@f2,f
  5552  00B3  1903               	skipnz
  5553  00B4  0AC4               	incf	___ftadd@f2+1,f
  5554  00B5  1903               	skipnz
  5555  00B6  0AC5               	incf	___ftadd@f2+2,f
  5556  00B7                     l6961:	
  5557  00B7  01C9               	clrf	___ftadd@sign
  5558  00B8  0840               	movf	___ftadd@f1,w
  5559  00B9  07C3               	addwf	___ftadd@f2,f
  5560  00BA  0841               	movf	___ftadd@f1+1,w
  5561  00BB  1103               	clrz
  5562  00BC  1803               	skipnc
  5563  00BD  0A41               	incf	___ftadd@f1+1,w
  5564  00BE  1D03               	btfss	3,2
  5565  00BF  07C4               	addwf	___ftadd@f2+1,f
  5566  00C0  0842               	movf	___ftadd@f1+2,w
  5567  00C1  1103               	clrz
  5568  00C2  1803               	skipnc
  5569  00C3  0A42               	incf	___ftadd@f1+2,w
  5570  00C4  1D03               	btfss	3,2
  5571  00C5  07C5               	addwf	___ftadd@f2+2,f
  5572  00C6  1FC5               	btfss	___ftadd@f2+2,7
  5573  00C7  28D3               	goto	l6973
  5574  00C8  30FF               	movlw	255
  5575  00C9  06C3               	xorwf	___ftadd@f2,f
  5576  00CA  06C4               	xorwf	___ftadd@f2+1,f
  5577  00CB  06C5               	xorwf	___ftadd@f2+2,f
  5578  00CC  0AC3               	incf	___ftadd@f2,f
  5579  00CD  1903               	skipnz
  5580  00CE  0AC4               	incf	___ftadd@f2+1,f
  5581  00CF  1903               	skipnz
  5582  00D0  0AC5               	incf	___ftadd@f2+2,f
  5583  00D1  01C9               	clrf	___ftadd@sign
  5584  00D2  0AC9               	incf	___ftadd@sign,f
  5585  00D3                     l6973:	
  5586  00D3  0843               	movf	___ftadd@f2,w
  5587  00D4  00F2               	movwf	?___ftpack
  5588  00D5  0844               	movf	___ftadd@f2+1,w
  5589  00D6  00F3               	movwf	?___ftpack+1
  5590  00D7  0845               	movf	___ftadd@f2+2,w
  5591  00D8  00F4               	movwf	?___ftpack+2
  5592  00D9  084B               	movf	___ftadd@exp1,w
  5593  00DA  00F5               	movwf	?___ftpack+3
  5594  00DB  0849               	movf	___ftadd@sign,w
  5595  00DC  00F6               	movwf	?___ftpack+4
  5596  00DD  120A  118A  23E8   	fcall	___ftpack
  5597  00E0  0872               	movf	?___ftpack,w
  5598  00E1  00C0               	movwf	?___ftadd
  5599  00E2  0873               	movf	?___ftpack+1,w
  5600  00E3  00C1               	movwf	?___ftadd+1
  5601  00E4  0874               	movf	?___ftpack+2,w
  5602  00E5  00C2               	movwf	?___ftadd+2
  5603  00E6  0008               	return
  5604  00E7                     __end_of___ftadd:	
  5605                           
  5606                           	psect	text655
  5607  0653                     __ptext655:	
  5608 ;; =============== function _scale ends ============
  5609                           
  5610                           
  5611 ;; *************** function _fround *****************
  5612 ;; Defined at:
  5613 ;;		line 406 in file "C:\Program Files (x86)\HI-TECH Software\PICC\9.83\lib\doprnt.c"
  5614 ;; Parameters:    Size  Location     Type
  5615 ;;  prec            1    wreg     unsigned char 
  5616 ;; Auto vars:     Size  Location     Type
  5617 ;;  prec            1   53[BANK0 ] unsigned char 
  5618 ;; Return value:  Size  Location     Type
  5619 ;;                  3   44[BANK0 ] unsigned char 
  5620 ;; Registers used:
  5621 ;;		wreg, fsr0l, fsr0h, status,2, status,0, pclath, cstack
  5622 ;; Tracked objects:
  5623 ;;		On entry : 60/20
  5624 ;;		On exit  : 60/0
  5625 ;;		Unchanged: FFF9F/0
  5626 ;; Data sizes:     COMMON   BANK0   BANK1   BANK3   BANK2
  5627 ;;      Params:         0       3       0       0       0
  5628 ;;      Locals:         0       7       0       0       0
  5629 ;;      Temps:          0       0       0       0       0
  5630 ;;      Totals:         0      10       0       0       0
  5631 ;;Total ram usage:       10 bytes
  5632 ;; Hardware stack levels used:    1
  5633 ;; Hardware stack levels required when called:    3
  5634 ;; This function calls:
  5635 ;;		___lbmod
  5636 ;;		___bmul
  5637 ;;		___lbdiv
  5638 ;;		___ftmul
  5639 ;; This function is called by:
  5640 ;;		__doprnt
  5641 ;; This function uses a non-reentrant model
  5642 ;;
  5643  0653                     _fround:	
  5644                           
  5645                           ; Regs used in _fround: [wreg-fsr0h+status,2+status,0+pclath+cstack]
  5646                           ;fround@prec stored from wreg
  5647  0653  1283               	bcf	3,5	;RP0=0, select bank0
  5648  0654  00D5               	movwf	fround@prec
  5649  0655  306E               	movlw	110
  5650  0656  0255               	subwf	fround@prec,w
  5651  0657  1C03               	skipc
  5652  0658  2EDE               	goto	l7119
  5653  0659  3003               	movlw	3
  5654  065A  00FB               	movwf	?___bmul
  5655  065B  300A               	movlw	10
  5656  065C  00F7               	movwf	?___lbdiv
  5657  065D  3064               	movlw	100
  5658  065E  00F2               	movwf	?___lbmod
  5659  065F  0855               	movf	fround@prec,w
  5660  0660  2773  120A  118A   	fcall	___lbmod
  5661  0663  2758               	fcall	___lbdiv
  5662  0664  120A  118A  23DA   	fcall	___bmul
      +       120A  118A         
  5663  0669  3E1C               	addlw	low ((__npowers_-__stringbase+27))
  5664  066A  0084               	movwf	4
  5665  066B  160A  118A  2000   	fcall	stringdir
      +       120A  118A         
  5666  0670  00B1               	movwf	?___ftmul
  5667  0671  160A  118A  2000   	fcall	stringdir
      +       120A  118A         
  5668  0676  00B2               	movwf	?___ftmul+1
  5669  0677  160A  118A  2000   	fcall	stringdir
      +       120A  118A         
  5670  067C  00B3               	movwf	?___ftmul+2
  5671  067D  3003               	movlw	3
  5672  067E  00FB               	movwf	?___bmul
  5673  067F  3064               	movlw	100
  5674  0680  00F7               	movwf	?___lbdiv
  5675  0681  0855               	movf	fround@prec,w
  5676  0682  2758               	fcall	___lbdiv
  5677  0683  120A  118A  23DA   	fcall	___bmul
      +       120A  118A         
  5678  0688  3E37               	addlw	low ((__npowers_-__stringbase+54))
  5679  0689  0084               	movwf	4
  5680  068A  160A  118A  2000   	fcall	stringdir
      +       120A  118A         
  5681  068F  00B4               	movwf	?___ftmul+3
  5682  0690  160A  118A  2000   	fcall	stringdir
      +       120A  118A         
  5683  0695  00B5               	movwf	?___ftmul+4
  5684  0696  160A  118A  2000   	fcall	stringdir
      +       120A  118A         
  5685  069B  00B6               	movwf	?___ftmul+5
  5686  069C  120A  118A  236B   	fcall	___ftmul
      +       120A  118A         
  5687  06A1  279E  120A  118A   	fcall	PL32	;call to abstracted procedure
  5688  06A4  3003               	movlw	3
  5689  06A5  00FB               	movwf	?___bmul
  5690  06A6  300A               	movlw	10
  5691  06A7  00F2               	movwf	?___lbmod
  5692  06A8  0855               	movf	fround@prec,w
  5693  06A9  2773               	fcall	___lbmod
  5694  06AA  120A  118A  23DA   	fcall	___bmul
      +       120A  118A         
  5695  06AF  3E01               	addlw	low (__npowers_-__stringbase)
  5696  06B0  0084               	movwf	4
  5697  06B1  160A  118A  2000   	fcall	stringdir
      +       120A  118A         
  5698  06B6  00B1               	movwf	?___ftmul
  5699  06B7  160A  118A  2000   	fcall	stringdir
      +       120A  118A         
  5700  06BC  00B2               	movwf	?___ftmul+1
  5701  06BD  160A  118A  2000   	fcall	stringdir
      +       120A  118A         
  5702  06C2  2796               	fcall	PL30	;call to abstracted procedure
  5703  06C3  120A  118A  236B   	fcall	___ftmul
      +       120A  118A         
  5704  06C8  0831               	movf	?___ftmul,w
  5705  06C9  00CF               	movwf	_fround$4204
  5706  06CA  0832               	movf	?___ftmul+1,w
  5707  06CB  00D0               	movwf	_fround$4204+1
  5708  06CC  0833               	movf	?___ftmul+2,w
  5709  06CD  00D1               	movwf	_fround$4204+2
  5710  06CE  303F               	movlw	63
  5711  06CF  01B1               	clrf	?___ftmul
  5712  06D0  01B2               	clrf	?___ftmul+1
  5713  06D1  00B3               	movwf	?___ftmul+2
  5714  06D2  084F               	movf	_fround$4204,w
  5715  06D3  00B4               	movwf	?___ftmul+3
  5716  06D4  0850               	movf	_fround$4204+1,w
  5717  06D5  00B5               	movwf	?___ftmul+4
  5718  06D6  0851               	movf	_fround$4204+2,w
  5719  06D7  00B6               	movwf	?___ftmul+5
  5720  06D8  120A  118A  236B   	fcall	___ftmul
      +       120A  118A         
  5721  06DD  2F8F               	ljmp	PL20	;call to abstracted procedure
  5722  06DE                     l7119:	
  5723  06DE  300B               	movlw	11
  5724  06DF  0255               	subwf	fround@prec,w
  5725  06E0  1C03               	skipc
  5726  06E1  2F32               	goto	l7127
  5727  06E2  3003               	movlw	3
  5728  06E3  00FB               	movwf	?___bmul
  5729  06E4  300A               	movlw	10
  5730  06E5  00F2               	movwf	?___lbmod
  5731  06E6  0855               	movf	fround@prec,w
  5732  06E7  2773               	fcall	___lbmod
  5733  06E8  120A  118A  23DA   	fcall	___bmul
      +       120A  118A         
  5734  06ED  3E01               	addlw	low (__npowers_-__stringbase)
  5735  06EE  0084               	movwf	4
  5736  06EF  160A  118A  2000   	fcall	stringdir
      +       120A  118A         
  5737  06F4  00B1               	movwf	?___ftmul
  5738  06F5  160A  118A  2000   	fcall	stringdir
      +       120A  118A         
  5739  06FA  00B2               	movwf	?___ftmul+1
  5740  06FB  160A  118A  2000   	fcall	stringdir
      +       120A  118A         
  5741  0700  00B3               	movwf	?___ftmul+2
  5742  0701  3003               	movlw	3
  5743  0702  00FB               	movwf	?___bmul
  5744  0703  300A               	movlw	10
  5745  0704  00F7               	movwf	?___lbdiv
  5746  0705  0855               	movf	fround@prec,w
  5747  0706  2758               	fcall	___lbdiv
  5748  0707  120A  118A  23DA   	fcall	___bmul
      +       120A  118A         
  5749  070C  3E1C               	addlw	low ((__npowers_-__stringbase+27))
  5750  070D  0084               	movwf	4
  5751  070E  160A  118A  2000   	fcall	stringdir
      +       120A  118A         
  5752  0713  00B4               	movwf	?___ftmul+3
  5753  0714  160A  118A  2000   	fcall	stringdir
      +       120A  118A         
  5754  0719  00B5               	movwf	?___ftmul+4
  5755  071A  160A  118A  2000   	fcall	stringdir
      +       120A  118A         
  5756  071F  00B6               	movwf	?___ftmul+5
  5757  0720  120A  118A  236B   	fcall	___ftmul
      +       120A  118A         
  5758  0725  279E  120A  118A   	fcall	PL32	;call to abstracted procedure
  5759  0728  303F               	movlw	63
  5760  0729  01B1               	clrf	?___ftmul
  5761  072A  01B2               	clrf	?___ftmul+1
  5762  072B  2796               	fcall	PL30	;call to abstracted procedure
  5763  072C  120A  118A  236B   	fcall	___ftmul
      +       120A  118A         
  5764  0731  2F8F               	ljmp	PL20	;call to abstracted procedure
  5765  0732                     l7127:	
  5766  0732  303F               	movlw	63
  5767  0733  01B1               	clrf	?___ftmul
  5768  0734  01B2               	clrf	?___ftmul+1
  5769  0735  00B3               	movwf	?___ftmul+2
  5770  0736  3003               	movlw	3
  5771  0737  00FB               	movwf	?___bmul
  5772  0738  0855               	movf	fround@prec,w
  5773  0739  120A  118A  23DA   	fcall	___bmul
      +       120A  118A         
  5774  073E  3E01               	addlw	low (__npowers_-__stringbase)
  5775  073F  0084               	movwf	4
  5776  0740  160A  118A  2000   	fcall	stringdir
      +       120A  118A         
  5777  0745  00B4               	movwf	?___ftmul+3
  5778  0746  160A  118A  2000   	fcall	stringdir
      +       120A  118A         
  5779  074B  00B5               	movwf	?___ftmul+4
  5780  074C  160A  118A  2000   	fcall	stringdir
      +       120A  118A         
  5781  0751  00B6               	movwf	?___ftmul+5
  5782  0752  120A  118A  236B   	fcall	___ftmul
      +       120A  118A         
  5783  0757  2F8F               	ljmp	PL20	;call to abstracted procedure
  5784  0758                     __end_of_fround:	
  5785  0758                     __ptext674:	
  5786 ;; =============== function ___lbmod ends ============
  5787                           
  5788                           
  5789 ;; *************** function ___lbdiv *****************
  5790 ;; Defined at:
  5791 ;;		line 5 in file "C:\Program Files (x86)\HI-TECH Software\PICC\9.83\sources\lbdiv.c"
  5792 ;; Parameters:    Size  Location     Type
  5793 ;;  dividend        1    wreg     unsigned char 
  5794 ;;  divisor         1    7[COMMON] unsigned char 
  5795 ;; Auto vars:     Size  Location     Type
  5796 ;;  dividend        1    8[COMMON] unsigned char 
  5797 ;;  quotient        1   10[COMMON] unsigned char 
  5798 ;;  counter         1    9[COMMON] unsigned char 
  5799 ;; Return value:  Size  Location     Type
  5800 ;;                  1    wreg      unsigned char 
  5801 ;; Registers used:
  5802 ;;		wreg, status,2, status,0
  5803 ;; Tracked objects:
  5804 ;;		On entry : 60/0
  5805 ;;		On exit  : 60/0
  5806 ;;		Unchanged: FFF9F/0
  5807 ;; Data sizes:     COMMON   BANK0   BANK1   BANK3   BANK2
  5808 ;;      Params:         1       0       0       0       0
  5809 ;;      Locals:         3       0       0       0       0
  5810 ;;      Temps:          0       0       0       0       0
  5811 ;;      Totals:         4       0       0       0       0
  5812 ;;Total ram usage:        4 bytes
  5813 ;; Hardware stack levels used:    1
  5814 ;; Hardware stack levels required when called:    1
  5815 ;; This function calls:
  5816 ;;		Nothing
  5817 ;; This function is called by:
  5818 ;;		_fround
  5819 ;; This function uses a non-reentrant model
  5820 ;;
  5821  0758                     ___lbdiv:	
  5822                           
  5823                           ; Regs used in ___lbdiv: [wreg+status,2+status,0]
  5824                           ;___lbdiv@dividend stored from wreg
  5825  0758  00F8               	movwf	___lbdiv@dividend
  5826  0759  01FA               	clrf	___lbdiv@quotient
  5827  075A  0877               	movf	___lbdiv@divisor,w
  5828  075B  1903               	btfsc	3,2
  5829  075C  2F71               	goto	l6599
  5830  075D  01F9               	clrf	___lbdiv@counter
  5831  075E                     l6585:	
  5832  075E  0AF9               	incf	___lbdiv@counter,f
  5833  075F  1BF7               	btfsc	___lbdiv@divisor,7
  5834  0760  2F64               	goto	l3401
  5835  0761  1003               	clrc
  5836  0762  0DF7               	rlf	___lbdiv@divisor,f
  5837  0763  2F5E               	goto	l6585
  5838  0764                     l3401:	
  5839  0764  1003               	clrc
  5840  0765  0DFA               	rlf	___lbdiv@quotient,f
  5841  0766  0877               	movf	___lbdiv@divisor,w
  5842  0767  0278               	subwf	___lbdiv@dividend,w
  5843  0768  1C03               	skipc
  5844  0769  2F6E               	goto	L20
  5845  076A  0877               	movf	___lbdiv@divisor,w
  5846  076B  02F8               	subwf	___lbdiv@dividend,f
  5847  076C  147A               	bsf	___lbdiv@quotient,0
  5848  076D  1003               	clrc
  5849  076E                     L20:	
  5850  076E  0CF7               	rrf	___lbdiv@divisor,f
  5851  076F  0BF9               	decfsz	___lbdiv@counter,f
  5852  0770  2F64               	goto	l3401
  5853  0771                     l6599:	
  5854  0771  087A               	movf	___lbdiv@quotient,w
  5855  0772  0008               	return
  5856  0773                     __end_of___lbdiv:	
  5857  0773                     __ptext673:	
  5858 ;; =============== function ___ftpack ends ============
  5859                           
  5860                           
  5861 ;; *************** function ___lbmod *****************
  5862 ;; Defined at:
  5863 ;;		line 5 in file "C:\Program Files (x86)\HI-TECH Software\PICC\9.83\sources\lbmod.c"
  5864 ;; Parameters:    Size  Location     Type
  5865 ;;  dividend        1    wreg     unsigned char 
  5866 ;;  divisor         1    2[COMMON] unsigned char 
  5867 ;; Auto vars:     Size  Location     Type
  5868 ;;  dividend        1    4[COMMON] unsigned char 
  5869 ;;  rem             1    6[COMMON] unsigned char 
  5870 ;;  counter         1    5[COMMON] unsigned char 
  5871 ;; Return value:  Size  Location     Type
  5872 ;;                  1    wreg      unsigned char 
  5873 ;; Registers used:
  5874 ;;		wreg, status,2, status,0
  5875 ;; Tracked objects:
  5876 ;;		On entry : 60/0
  5877 ;;		On exit  : 60/0
  5878 ;;		Unchanged: FFF9F/0
  5879 ;; Data sizes:     COMMON   BANK0   BANK1   BANK3   BANK2
  5880 ;;      Params:         1       0       0       0       0
  5881 ;;      Locals:         3       0       0       0       0
  5882 ;;      Temps:          1       0       0       0       0
  5883 ;;      Totals:         5       0       0       0       0
  5884 ;;Total ram usage:        5 bytes
  5885 ;; Hardware stack levels used:    1
  5886 ;; Hardware stack levels required when called:    1
  5887 ;; This function calls:
  5888 ;;		Nothing
  5889 ;; This function is called by:
  5890 ;;		_fround
  5891 ;; This function uses a non-reentrant model
  5892 ;;
  5893  0773                     ___lbmod:	
  5894                           
  5895                           ; Regs used in ___lbmod: [wreg+status,2+status,0]
  5896                           ;___lbmod@dividend stored from wreg
  5897  0773  00F4               	movwf	___lbmod@dividend
  5898  0774  3008               	movlw	8
  5899  0775  00F5               	movwf	___lbmod@counter
  5900  0776  01F6               	clrf	___lbmod@rem
  5901  0777                     l6607:	
  5902  0777  0874               	movf	___lbmod@dividend,w
  5903  0778  00F3               	movwf	??___lbmod
  5904  0779  3007               	movlw	7
  5905  077A  1003               	clrc
  5906  077B                     L19:	
  5907  077B  0CF3               	rrf	??___lbmod,f
  5908  077C  3EFF               	addlw	-1
  5909  077D  1003               	clrc
  5910  077E  1D03               	skipz
  5911  077F  2F7B               	goto	L19
  5912  0780  0D76               	rlf	___lbmod@rem,w
  5913  0781  0473               	iorwf	??___lbmod,w
  5914  0782  00F6               	movwf	___lbmod@rem
  5915  0783  1003               	clrc
  5916  0784  0DF4               	rlf	___lbmod@dividend,f
  5917  0785  0872               	movf	___lbmod@divisor,w
  5918  0786  0276               	subwf	___lbmod@rem,w
  5919  0787  1C03               	skipc
  5920  0788  2F8B               	goto	l6615
  5921  0789  0872               	movf	___lbmod@divisor,w
  5922  078A  02F6               	subwf	___lbmod@rem,f
  5923  078B                     l6615:	
  5924  078B  0BF5               	decfsz	___lbmod@counter,f
  5925  078C  2F77               	goto	l6607
  5926  078D  0876               	movf	___lbmod@rem,w
  5927  078E  0008               	return
  5928  078F                     __end_of___lbmod:	
  5929  078F                     PL20:	
  5930  078F  0831               	movf	?___ftmul,w
  5931  0790  00CC               	movwf	?_fround
  5932  0791  0832               	movf	?___ftmul+1,w
  5933  0792  00CD               	movwf	?_fround+1
  5934  0793  0833               	movf	?___ftmul+2,w
  5935  0794  00CE               	movwf	?_fround+2
  5936  0795  0008               	return
  5937  0796                     PL30:	
  5938  0796  00B3               	movwf	?___ftmul+2
  5939  0797  0852               	movf	_fround$4203,w
  5940  0798  00B4               	movwf	?___ftmul+3
  5941  0799  0853               	movf	_fround$4203+1,w
  5942  079A  00B5               	movwf	?___ftmul+4
  5943  079B  0854               	movf	_fround$4203+2,w
  5944  079C  00B6               	movwf	?___ftmul+5
  5945  079D  0008               	return
  5946  079E                     PL32:	
  5947  079E  0831               	movf	?___ftmul,w
  5948  079F  00D2               	movwf	_fround$4203
  5949  07A0  0832               	movf	?___ftmul+1,w
  5950  07A1  00D3               	movwf	_fround$4203+1
  5951  07A2  0833               	movf	?___ftmul+2,w
  5952  07A3  00D4               	movwf	_fround$4203+2
  5953  07A4  0008               	return
  5954                           
  5955                           	psect	text658
  5956  0109                     __ptext658:	
  5957 ;; =============== function _lcd_init ends ============
  5958                           
  5959                           
  5960 ;; *************** function ___lltoft *****************
  5961 ;; Defined at:
  5962 ;;		line 36 in file "C:\Program Files (x86)\HI-TECH Software\PICC\9.83\sources\lltoft.c"
  5963 ;; Parameters:    Size  Location     Type
  5964 ;;  c               4    0[BANK0 ] unsigned long 
  5965 ;; Auto vars:     Size  Location     Type
  5966 ;;  exp             1   10[COMMON] unsigned char 
  5967 ;; Return value:  Size  Location     Type
  5968 ;;                  3    0[BANK0 ] float 
  5969 ;; Registers used:
  5970 ;;		wreg, status,2, status,0, pclath, cstack
  5971 ;; Tracked objects:
  5972 ;;		On entry : 60/0
  5973 ;;		On exit  : 60/0
  5974 ;;		Unchanged: FFF9F/0
  5975 ;; Data sizes:     COMMON   BANK0   BANK1   BANK3   BANK2
  5976 ;;      Params:         0       4       0       0       0
  5977 ;;      Locals:         1       0       0       0       0
  5978 ;;      Temps:          0       0       0       0       0
  5979 ;;      Totals:         1       4       0       0       0
  5980 ;;Total ram usage:        5 bytes
  5981 ;; Hardware stack levels used:    1
  5982 ;; Hardware stack levels required when called:    2
  5983 ;; This function calls:
  5984 ;;		___ftpack
  5985 ;; This function is called by:
  5986 ;;		__doprnt
  5987 ;; This function uses a non-reentrant model
  5988 ;;
  5989  0109                     ___lltoft:	
  5990                           
  5991                           ; Regs used in ___lltoft: [wreg+status,2+status,0+pclath+cstack]
  5992  0109  308E               	movlw	142
  5993  010A  00FA               	movwf	___lltoft@exp
  5994  010B                     l7053:	
  5995  010B  30FF               	movlw	255
  5996  010C  0523               	andwf	___lltoft@c+3,w
  5997  010D  1903               	btfsc	3,2
  5998  010E  2916               	goto	l7055
  5999  010F  1003               	clrc
  6000  0110  0CA3               	rrf	___lltoft@c+3,f
  6001  0111  0CA2               	rrf	___lltoft@c+2,f
  6002  0112  0CA1               	rrf	___lltoft@c+1,f
  6003  0113  0CA0               	rrf	___lltoft@c,f
  6004  0114  0AFA               	incf	___lltoft@exp,f
  6005  0115  290B               	goto	l7053
  6006  0116                     l7055:	
  6007  0116  0820               	movf	___lltoft@c,w
  6008  0117  00F2               	movwf	?___ftpack
  6009  0118  0821               	movf	___lltoft@c+1,w
  6010  0119  00F3               	movwf	?___ftpack+1
  6011  011A  0822               	movf	___lltoft@c+2,w
  6012  011B  00F4               	movwf	?___ftpack+2
  6013  011C  087A               	movf	___lltoft@exp,w
  6014  011D  00F5               	movwf	?___ftpack+3
  6015  011E  01F6               	clrf	?___ftpack+4
  6016  011F  23E8               	fcall	___ftpack
  6017  0120  0872               	movf	?___ftpack,w
  6018  0121  00A0               	movwf	?___lltoft
  6019  0122  0873               	movf	?___ftpack+1,w
  6020  0123  00A1               	movwf	?___lltoft+1
  6021  0124  0874               	movf	?___ftpack+2,w
  6022  0125  00A2               	movwf	?___lltoft+2
  6023  0126  0008               	return
  6024  0127                     __end_of___lltoft:	
  6025  0127                     __ptext659:	
  6026 ;; =============== function ___lltoft ends ============
  6027                           
  6028                           
  6029 ;; *************** function ___altoft *****************
  6030 ;; Defined at:
  6031 ;;		line 43 in file "C:\Program Files (x86)\HI-TECH Software\PICC\9.83\sources\altoft.c"
  6032 ;; Parameters:    Size  Location     Type
  6033 ;;  c               4    0[BANK0 ] long 
  6034 ;; Auto vars:     Size  Location     Type
  6035 ;;  sign            1   11[COMMON] unsigned char 
  6036 ;;  exp             1   10[COMMON] unsigned char 
  6037 ;; Return value:  Size  Location     Type
  6038 ;;                  3    0[BANK0 ] float 
  6039 ;; Registers used:
  6040 ;;		wreg, status,2, status,0, pclath, cstack
  6041 ;; Tracked objects:
  6042 ;;		On entry : 60/0
  6043 ;;		On exit  : 60/0
  6044 ;;		Unchanged: FFF9F/0
  6045 ;; Data sizes:     COMMON   BANK0   BANK1   BANK3   BANK2
  6046 ;;      Params:         0       4       0       0       0
  6047 ;;      Locals:         2       0       0       0       0
  6048 ;;      Temps:          0       0       0       0       0
  6049 ;;      Totals:         2       4       0       0       0
  6050 ;;Total ram usage:        6 bytes
  6051 ;; Hardware stack levels used:    1
  6052 ;; Hardware stack levels required when called:    2
  6053 ;; This function calls:
  6054 ;;		___ftpack
  6055 ;; This function is called by:
  6056 ;;		_main
  6057 ;; This function uses a non-reentrant model
  6058 ;;
  6059  0127                     ___altoft:	
  6060  0127  308E               	movlw	142
  6061                           
  6062                           ; Regs used in ___altoft: [wreg+status,2+status,0+pclath+cstack]
  6063  0128  01FB               	clrf	___altoft@sign
  6064  0129  00FA               	movwf	___altoft@exp
  6065  012A  1FA3               	btfss	___altoft@c+3,7
  6066  012B  2939               	goto	l7043
  6067  012C  09A0               	comf	___altoft@c,f
  6068  012D  09A1               	comf	___altoft@c+1,f
  6069  012E  09A2               	comf	___altoft@c+2,f
  6070  012F  09A3               	comf	___altoft@c+3,f
  6071  0130  0AA0               	incf	___altoft@c,f
  6072  0131  1903               	skipnz
  6073  0132  0AA1               	incf	___altoft@c+1,f
  6074  0133  1903               	skipnz
  6075  0134  0AA2               	incf	___altoft@c+2,f
  6076  0135  1903               	skipnz
  6077  0136  0AA3               	incf	___altoft@c+3,f
  6078  0137  01FB               	clrf	___altoft@sign
  6079  0138  0AFB               	incf	___altoft@sign,f
  6080  0139                     l7043:	
  6081  0139  30FF               	movlw	255
  6082  013A  0523               	andwf	___altoft@c+3,w
  6083  013B  1903               	btfsc	3,2
  6084  013C  2944               	goto	l7045
  6085  013D  1003               	clrc
  6086  013E  0CA3               	rrf	___altoft@c+3,f
  6087  013F  0CA2               	rrf	___altoft@c+2,f
  6088  0140  0CA1               	rrf	___altoft@c+1,f
  6089  0141  0CA0               	rrf	___altoft@c,f
  6090  0142  0AFA               	incf	___altoft@exp,f
  6091  0143  2939               	goto	l7043
  6092  0144                     l7045:	
  6093  0144  0820               	movf	___altoft@c,w
  6094  0145  00F2               	movwf	?___ftpack
  6095  0146  0821               	movf	___altoft@c+1,w
  6096  0147  00F3               	movwf	?___ftpack+1
  6097  0148  0822               	movf	___altoft@c+2,w
  6098  0149  00F4               	movwf	?___ftpack+2
  6099  014A  087A               	movf	___altoft@exp,w
  6100  014B  00F5               	movwf	?___ftpack+3
  6101  014C  087B               	movf	___altoft@sign,w
  6102  014D  00F6               	movwf	?___ftpack+4
  6103  014E  23E8               	fcall	___ftpack
  6104  014F  0872               	movf	?___ftpack,w
  6105  0150  00A0               	movwf	?___altoft
  6106  0151  0873               	movf	?___ftpack+1,w
  6107  0152  00A1               	movwf	?___altoft+1
  6108  0153  0874               	movf	?___ftpack+2,w
  6109  0154  00A2               	movwf	?___altoft+2
  6110  0155  0008               	return
  6111  0156                     __end_of___altoft:	
  6112  0156                     __ptext654:	
  6113 ;; =============== function ___ftsub ends ============
  6114                           
  6115                           
  6116 ;; *************** function _scale *****************
  6117 ;; Defined at:
  6118 ;;		line 422 in file "C:\Program Files (x86)\HI-TECH Software\PICC\9.83\lib\doprnt.c"
  6119 ;; Parameters:    Size  Location     Type
  6120 ;;  scl             1    wreg     char 
  6121 ;; Auto vars:     Size  Location     Type
  6122 ;;  scl             1   42[BANK0 ] char 
  6123 ;; Return value:  Size  Location     Type
  6124 ;;                  3   32[BANK0 ] char 
  6125 ;; Registers used:
  6126 ;;		wreg, fsr0l, fsr0h, status,2, status,0, pclath, cstack
  6127 ;; Tracked objects:
  6128 ;;		On entry : 60/20
  6129 ;;		On exit  : 60/0
  6130 ;;		Unchanged: FFF9F/0
  6131 ;; Data sizes:     COMMON   BANK0   BANK1   BANK3   BANK2
  6132 ;;      Params:         0       3       0       0       0
  6133 ;;      Locals:         0       4       0       0       0
  6134 ;;      Temps:          0       4       0       0       0
  6135 ;;      Totals:         0      11       0       0       0
  6136 ;;Total ram usage:       11 bytes
  6137 ;; Hardware stack levels used:    1
  6138 ;; Hardware stack levels required when called:    3
  6139 ;; This function calls:
  6140 ;;		___awmod
  6141 ;;		___awdiv
  6142 ;;		___ftmul
  6143 ;;		___bmul
  6144 ;; This function is called by:
  6145 ;;		__doprnt
  6146 ;; This function uses a non-reentrant model
  6147 ;;
  6148  0156                     _scale:	
  6149                           
  6150                           ; Regs used in _scale: [wreg-fsr0h+status,2+status,0+pclath+cstack]
  6151                           ;scale@scl stored from wreg
  6152  0156  1283               	bcf	3,5	;RP0=0, select bank0
  6153  0157  00CA               	movwf	scale@scl
  6154  0158  1FCA               	btfss	scale@scl,7
  6155  0159  2A22               	goto	l7153
  6156  015A  09CA               	comf	scale@scl,f
  6157  015B  0ACA               	incf	scale@scl,f
  6158  015C  084A               	movf	scale@scl,w
  6159  015D  3A80               	xorlw	128
  6160  015E  3E12               	addlw	-238
  6161  015F  1C03               	skipc
  6162  0160  29C6               	goto	l7143
  6163  0161  300A               	movlw	10
  6164  0162  244A  120A  118A   	fcall	PL19	;call to abstracted procedure
  6165  0165  232E  120A  118A   	fcall	___awmod
  6166  0168  0873               	movf	?___awmod+1,w
  6167  0169  00FB               	movwf	?___awdiv+3
  6168  016A  0872               	movf	?___awmod,w
  6169  016B  00FA               	movwf	?___awdiv+2
  6170  016C  22E8  120A  118A   	fcall	___awdiv
  6171  016F  245F               	fcall	PL27	;call to abstracted procedure
  6172  0170  3E1C               	addlw	low ((__npowers_-__stringbase+27))
  6173  0171  0084               	movwf	4
  6174  0172  160A  118A  2000   	fcall	stringdir
      +       120A  118A         
  6175  0177  00B1               	movwf	?___ftmul
  6176  0178  160A  118A  2000   	fcall	stringdir
      +       120A  118A         
  6177  017D  00B2               	movwf	?___ftmul+1
  6178  017E  160A  118A  2000   	fcall	stringdir
      +       120A  118A         
  6179  0183  2467  120A  118A   	fcall	PL28	;call to abstracted procedure
  6180  0186  1BFA               	btfsc	?___awdiv+2,7
  6181  0187  03FB               	decf	?___awdiv+3,f
  6182  0188  22E8  120A  118A   	fcall	___awdiv
  6183  018B  242E               	fcall	PL11	;call to abstracted procedure
  6184  018C  3E37               	addlw	low ((__npowers_-__stringbase+54))
  6185  018D  0084               	movwf	4
  6186  018E  160A  118A  2000   	fcall	stringdir
      +       120A  118A         
  6187  0193  00B4               	movwf	?___ftmul+3
  6188  0194  160A  118A  2000   	fcall	stringdir
      +       120A  118A         
  6189  0199  00B5               	movwf	?___ftmul+4
  6190  019A  160A  118A  2000   	fcall	stringdir
      +       120A  118A         
  6191  019F  00B6               	movwf	?___ftmul+5
  6192  01A0  236B  120A  118A   	fcall	___ftmul
  6193  01A3  2436  120A  118A   	fcall	PL12	;call to abstracted procedure
  6194  01A6  1BF4               	btfsc	?___awmod+2,7
  6195  01A7  03F5               	decf	?___awmod+3,f
  6196  01A8  232E  120A  118A   	fcall	___awmod
  6197  01AB  2426               	fcall	PL10	;call to abstracted procedure
  6198  01AC  3E01               	addlw	low (__npowers_-__stringbase)
  6199  01AD  0084               	movwf	4
  6200  01AE  160A  118A  2000   	fcall	stringdir
      +       120A  118A         
  6201  01B3  00B1               	movwf	?___ftmul
  6202  01B4  160A  118A  2000   	fcall	stringdir
      +       120A  118A         
  6203  01B9  00B2               	movwf	?___ftmul+1
  6204  01BA  160A  118A  2000   	fcall	stringdir
      +       120A  118A         
  6205  01BF  246F  120A  118A   	fcall	PL29	;call to abstracted procedure
  6206  01C2  236B  120A  118A   	fcall	___ftmul
  6207  01C5  2C43               	ljmp	PL13	;call to abstracted procedure
  6208  01C6                     l7143:	
  6209  01C6  084A               	movf	scale@scl,w
  6210  01C7  3A80               	xorlw	128
  6211  01C8  3E75               	addlw	-139
  6212  01C9  1C03               	skipc
  6213  01CA  2A0B               	goto	l7149
  6214  01CB  300A               	movlw	10
  6215  01CC  00F2               	movwf	?___awmod
  6216  01CD  01F3               	clrf	?___awmod+1
  6217  01CE  084A               	movf	scale@scl,w
  6218  01CF  00F4               	movwf	?___awmod+2
  6219  01D0  01F5               	clrf	?___awmod+3
  6220  01D1  1BF4               	btfsc	?___awmod+2,7
  6221  01D2  03F5               	decf	?___awmod+3,f
  6222  01D3  232E  120A  118A   	fcall	___awmod
  6223  01D6  2426               	fcall	PL10	;call to abstracted procedure
  6224  01D7  3E01               	addlw	low (__npowers_-__stringbase)
  6225  01D8  0084               	movwf	4
  6226  01D9  160A  118A  2000   	fcall	stringdir
      +       120A  118A         
  6227  01DE  00B1               	movwf	?___ftmul
  6228  01DF  160A  118A  2000   	fcall	stringdir
      +       120A  118A         
  6229  01E4  00B2               	movwf	?___ftmul+1
  6230  01E5  160A  118A  2000   	fcall	stringdir
      +       120A  118A         
  6231  01EA  2477  120A  118A   	fcall	PL31	;call to abstracted procedure
  6232  01ED  1BFA               	btfsc	?___awdiv+2,7
  6233  01EE  03FB               	decf	?___awdiv+3,f
  6234  01EF  22E8  120A  118A   	fcall	___awdiv
  6235  01F2  242E               	fcall	PL11	;call to abstracted procedure
  6236  01F3  3E1C               	addlw	low ((__npowers_-__stringbase+27))
  6237  01F4  0084               	movwf	4
  6238  01F5  160A  118A  2000   	fcall	stringdir
      +       120A  118A         
  6239  01FA  00B4               	movwf	?___ftmul+3
  6240  01FB  160A  118A  2000   	fcall	stringdir
      +       120A  118A         
  6241  0200  00B5               	movwf	?___ftmul+4
  6242  0201  160A  118A  2000   	fcall	stringdir
      +       120A  118A         
  6243  0206  00B6               	movwf	?___ftmul+5
  6244  0207  236B  120A  118A   	fcall	___ftmul
  6245  020A  2C43               	ljmp	PL13	;call to abstracted procedure
  6246  020B                     l7149:	
  6247  020B  3003               	movlw	3
  6248  020C  00FB               	movwf	?___bmul
  6249  020D  084A               	movf	scale@scl,w
  6250  020E  23DA               	fcall	___bmul
  6251  020F  3E01               	addlw	low (__npowers_-__stringbase)
  6252  0210  0084               	movwf	4
  6253  0211  160A  118A  2000   	fcall	stringdir
      +       120A  118A         
  6254  0216  00C0               	movwf	?_scale
  6255  0217  160A  118A  2000   	fcall	stringdir
      +       120A  118A         
  6256  021C  00C1               	movwf	?_scale+1
  6257  021D  160A  118A  2000   	fcall	stringdir
  6258  0220  00C2               	movwf	?_scale+2
  6259  0221  0008               	return
  6260  0222                     l7153:	
  6261  0222  084A               	movf	scale@scl,w
  6262  0223  3A80               	xorlw	128
  6263  0224  3E12               	addlw	-238
  6264  0225  1C03               	skipc
  6265  0226  2A8C               	goto	l7161
  6266  0227  300A               	movlw	10
  6267  0228  244A  120A  118A   	fcall	PL19	;call to abstracted procedure
  6268  022B  232E  120A  118A   	fcall	___awmod
  6269  022E  0873               	movf	?___awmod+1,w
  6270  022F  00FB               	movwf	?___awdiv+3
  6271  0230  0872               	movf	?___awmod,w
  6272  0231  00FA               	movwf	?___awdiv+2
  6273  0232  22E8  120A  118A   	fcall	___awdiv
  6274  0235  245F               	fcall	PL27	;call to abstracted procedure
  6275  0236  3E43               	addlw	low ((__powers_-__stringbase+27))
  6276  0237  0084               	movwf	4
  6277  0238  160A  118A  2000   	fcall	stringdir
      +       120A  118A         
  6278  023D  00B1               	movwf	?___ftmul
  6279  023E  160A  118A  2000   	fcall	stringdir
      +       120A  118A         
  6280  0243  00B2               	movwf	?___ftmul+1
  6281  0244  160A  118A  2000   	fcall	stringdir
      +       120A  118A         
  6282  0249  2467  120A  118A   	fcall	PL28	;call to abstracted procedure
  6283  024C  1BFA               	btfsc	?___awdiv+2,7
  6284  024D  03FB               	decf	?___awdiv+3,f
  6285  024E  22E8  120A  118A   	fcall	___awdiv
  6286  0251  242E               	fcall	PL11	;call to abstracted procedure
  6287  0252  3E5E               	addlw	low ((__powers_-__stringbase+54))
  6288  0253  0084               	movwf	4
  6289  0254  160A  118A  2000   	fcall	stringdir
      +       120A  118A         
  6290  0259  00B4               	movwf	?___ftmul+3
  6291  025A  160A  118A  2000   	fcall	stringdir
      +       120A  118A         
  6292  025F  00B5               	movwf	?___ftmul+4
  6293  0260  160A  118A  2000   	fcall	stringdir
      +       120A  118A         
  6294  0265  00B6               	movwf	?___ftmul+5
  6295  0266  236B  120A  118A   	fcall	___ftmul
  6296  0269  2436  120A  118A   	fcall	PL12	;call to abstracted procedure
  6297  026C  1BF4               	btfsc	?___awmod+2,7
  6298  026D  03F5               	decf	?___awmod+3,f
  6299  026E  232E  120A  118A   	fcall	___awmod
  6300  0271  2426               	fcall	PL10	;call to abstracted procedure
  6301  0272  3E28               	addlw	low (__powers_-__stringbase)
  6302  0273  0084               	movwf	4
  6303  0274  160A  118A  2000   	fcall	stringdir
      +       120A  118A         
  6304  0279  00B1               	movwf	?___ftmul
  6305  027A  160A  118A  2000   	fcall	stringdir
      +       120A  118A         
  6306  027F  00B2               	movwf	?___ftmul+1
  6307  0280  160A  118A  2000   	fcall	stringdir
      +       120A  118A         
  6308  0285  246F  120A  118A   	fcall	PL29	;call to abstracted procedure
  6309  0288  236B  120A  118A   	fcall	___ftmul
  6310  028B  2C43               	ljmp	PL13	;call to abstracted procedure
  6311  028C                     l7161:	
  6312  028C  084A               	movf	scale@scl,w
  6313  028D  3A80               	xorlw	128
  6314  028E  3E75               	addlw	-139
  6315  028F  1C03               	skipc
  6316  0290  2AD1               	goto	l7167
  6317  0291  300A               	movlw	10
  6318  0292  00F2               	movwf	?___awmod
  6319  0293  01F3               	clrf	?___awmod+1
  6320  0294  084A               	movf	scale@scl,w
  6321  0295  00F4               	movwf	?___awmod+2
  6322  0296  01F5               	clrf	?___awmod+3
  6323  0297  1BF4               	btfsc	?___awmod+2,7
  6324  0298  03F5               	decf	?___awmod+3,f
  6325  0299  232E  120A  118A   	fcall	___awmod
  6326  029C  2426               	fcall	PL10	;call to abstracted procedure
  6327  029D  3E28               	addlw	low (__powers_-__stringbase)
  6328  029E  0084               	movwf	4
  6329  029F  160A  118A  2000   	fcall	stringdir
      +       120A  118A         
  6330  02A4  00B1               	movwf	?___ftmul
  6331  02A5  160A  118A  2000   	fcall	stringdir
      +       120A  118A         
  6332  02AA  00B2               	movwf	?___ftmul+1
  6333  02AB  160A  118A  2000   	fcall	stringdir
      +       120A  118A         
  6334  02B0  2477  120A  118A   	fcall	PL31	;call to abstracted procedure
  6335  02B3  1BFA               	btfsc	?___awdiv+2,7
  6336  02B4  03FB               	decf	?___awdiv+3,f
  6337  02B5  22E8  120A  118A   	fcall	___awdiv
  6338  02B8  242E               	fcall	PL11	;call to abstracted procedure
  6339  02B9  3E43               	addlw	low ((__powers_-__stringbase+27))
  6340  02BA  0084               	movwf	4
  6341  02BB  160A  118A  2000   	fcall	stringdir
      +       120A  118A         
  6342  02C0  00B4               	movwf	?___ftmul+3
  6343  02C1  160A  118A  2000   	fcall	stringdir
      +       120A  118A         
  6344  02C6  00B5               	movwf	?___ftmul+4
  6345  02C7  160A  118A  2000   	fcall	stringdir
      +       120A  118A         
  6346  02CC  00B6               	movwf	?___ftmul+5
  6347  02CD  236B  120A  118A   	fcall	___ftmul
  6348  02D0  2C43               	ljmp	PL13	;call to abstracted procedure
  6349  02D1                     l7167:	
  6350  02D1  3003               	movlw	3
  6351  02D2  00FB               	movwf	?___bmul
  6352  02D3  084A               	movf	scale@scl,w
  6353  02D4  23DA               	fcall	___bmul
  6354  02D5  3E28               	addlw	low (__powers_-__stringbase)
  6355  02D6  0084               	movwf	4
  6356  02D7  160A  118A  2000   	fcall	stringdir
      +       120A  118A         
  6357  02DC  00C0               	movwf	?_scale
  6358  02DD  160A  118A  2000   	fcall	stringdir
      +       120A  118A         
  6359  02E2  00C1               	movwf	?_scale+1
  6360  02E3  160A  118A  2000   	fcall	stringdir
  6361  02E6  00C2               	movwf	?_scale+2
  6362  02E7  0008               	return
  6363  02E8                     __end_of_scale:	
  6364  02E8                     __ptext670:	
  6365 ;; =============== function ___llmod ends ============
  6366                           
  6367                           
  6368 ;; *************** function ___awdiv *****************
  6369 ;; Defined at:
  6370 ;;		line 5 in file "C:\Program Files (x86)\HI-TECH Software\PICC\9.83\sources\awdiv.c"
  6371 ;; Parameters:    Size  Location     Type
  6372 ;;  divisor         2    8[COMMON] int 
  6373 ;;  dividend        2   10[COMMON] int 
  6374 ;; Auto vars:     Size  Location     Type
  6375 ;;  quotient        2    2[BANK0 ] int 
  6376 ;;  sign            1    1[BANK0 ] unsigned char 
  6377 ;;  counter         1    0[BANK0 ] unsigned char 
  6378 ;; Return value:  Size  Location     Type
  6379 ;;                  2    8[COMMON] int 
  6380 ;; Registers used:
  6381 ;;		wreg, status,2, status,0
  6382 ;; Tracked objects:
  6383 ;;		On entry : 40/20
  6384 ;;		On exit  : 60/0
  6385 ;;		Unchanged: FFF9F/0
  6386 ;; Data sizes:     COMMON   BANK0   BANK1   BANK3   BANK2
  6387 ;;      Params:         4       0       0       0       0
  6388 ;;      Locals:         0       4       0       0       0
  6389 ;;      Temps:          0       0       0       0       0
  6390 ;;      Totals:         4       4       0       0       0
  6391 ;;Total ram usage:        8 bytes
  6392 ;; Hardware stack levels used:    1
  6393 ;; Hardware stack levels required when called:    1
  6394 ;; This function calls:
  6395 ;;		Nothing
  6396 ;; This function is called by:
  6397 ;;		_scale
  6398 ;;		__doprnt
  6399 ;; This function uses a non-reentrant model
  6400 ;;
  6401  02E8                     ___awdiv:	
  6402                           
  6403                           ; Regs used in ___awdiv: [wreg+status,2+status,0]
  6404  02E8  1283               	bcf	3,5	;RP0=0, select bank0
  6405  02E9  01A1               	clrf	___awdiv@sign
  6406  02EA  1FF9               	btfss	___awdiv@divisor+1,7
  6407  02EB  2AF3               	goto	l6695
  6408  02EC  09F8               	comf	___awdiv@divisor,f
  6409  02ED  09F9               	comf	___awdiv@divisor+1,f
  6410  02EE  0AF8               	incf	___awdiv@divisor,f
  6411  02EF  1903               	skipnz
  6412  02F0  0AF9               	incf	___awdiv@divisor+1,f
  6413  02F1  01A1               	clrf	___awdiv@sign
  6414  02F2  0AA1               	incf	___awdiv@sign,f
  6415  02F3                     l6695:	
  6416  02F3  1FFB               	btfss	___awdiv@dividend+1,7
  6417  02F4  2AFC               	goto	l6701
  6418  02F5  09FA               	comf	___awdiv@dividend,f
  6419  02F6  09FB               	comf	___awdiv@dividend+1,f
  6420  02F7  0AFA               	incf	___awdiv@dividend,f
  6421  02F8  1903               	skipnz
  6422  02F9  0AFB               	incf	___awdiv@dividend+1,f
  6423  02FA  3001               	movlw	1
  6424  02FB  06A1               	xorwf	___awdiv@sign,f
  6425  02FC                     l6701:	
  6426  02FC  01A2               	clrf	___awdiv@quotient
  6427  02FD  01A3               	clrf	___awdiv@quotient+1
  6428  02FE  0879               	movf	___awdiv@divisor+1,w
  6429  02FF  0478               	iorwf	___awdiv@divisor,w
  6430  0300  1903               	skipnz
  6431  0301  2B21               	goto	l6723
  6432  0302  01A0               	clrf	___awdiv@counter
  6433  0303                     L17:	
  6434  0303  0AA0               	incf	___awdiv@counter,f
  6435  0304  1BF9               	btfsc	___awdiv@divisor+1,7
  6436  0305  2B0A               	goto	l6711
  6437  0306  1003               	clrc
  6438  0307  0DF8               	rlf	___awdiv@divisor,f
  6439  0308  0DF9               	rlf	___awdiv@divisor+1,f
  6440  0309  2B03               	goto	L17
  6441  030A                     l6711:	
  6442  030A  1003               	clrc
  6443  030B  0DA2               	rlf	___awdiv@quotient,f
  6444  030C  0DA3               	rlf	___awdiv@quotient+1,f
  6445  030D  0879               	movf	___awdiv@divisor+1,w
  6446  030E  027B               	subwf	___awdiv@dividend+1,w
  6447  030F  1D03               	skipz
  6448  0310  2B13               	goto	u2705
  6449  0311  0878               	movf	___awdiv@divisor,w
  6450  0312  027A               	subwf	___awdiv@dividend,w
  6451  0313                     u2705:	
  6452  0313  1C03               	skipc
  6453  0314  2B1D               	goto	L18
  6454  0315  0878               	movf	___awdiv@divisor,w
  6455  0316  02FA               	subwf	___awdiv@dividend,f
  6456  0317  0879               	movf	___awdiv@divisor+1,w
  6457  0318  1C03               	skipc
  6458  0319  03FB               	decf	___awdiv@dividend+1,f
  6459  031A  02FB               	subwf	___awdiv@dividend+1,f
  6460  031B  1422               	bsf	___awdiv@quotient,0
  6461  031C  1003               	clrc
  6462  031D                     L18:	
  6463  031D  0CF9               	rrf	___awdiv@divisor+1,f
  6464  031E  0CF8               	rrf	___awdiv@divisor,f
  6465  031F  0BA0               	decfsz	___awdiv@counter,f
  6466  0320  2B0A               	goto	l6711
  6467  0321                     l6723:	
  6468  0321  0821               	movf	___awdiv@sign,w
  6469  0322  1903               	btfsc	3,2
  6470  0323  2B29               	goto	l6727
  6471  0324  09A2               	comf	___awdiv@quotient,f
  6472  0325  09A3               	comf	___awdiv@quotient+1,f
  6473  0326  0AA2               	incf	___awdiv@quotient,f
  6474  0327  1903               	skipnz
  6475  0328  0AA3               	incf	___awdiv@quotient+1,f
  6476  0329                     l6727:	
  6477  0329  0823               	movf	___awdiv@quotient+1,w
  6478  032A  00F9               	movwf	?___awdiv+1
  6479  032B  0822               	movf	___awdiv@quotient,w
  6480  032C  00F8               	movwf	?___awdiv
  6481  032D  0008               	return
  6482  032E                     __end_of___awdiv:	
  6483  032E                     __ptext665:	
  6484 ;; =============== function _send_string ends ============
  6485                           
  6486                           
  6487 ;; *************** function ___awmod *****************
  6488 ;; Defined at:
  6489 ;;		line 5 in file "C:\Program Files (x86)\HI-TECH Software\PICC\9.83\sources\awmod.c"
  6490 ;; Parameters:    Size  Location     Type
  6491 ;;  divisor         2    2[COMMON] int 
  6492 ;;  dividend        2    4[COMMON] int 
  6493 ;; Auto vars:     Size  Location     Type
  6494 ;;  sign            1    7[COMMON] unsigned char 
  6495 ;;  counter         1    6[COMMON] unsigned char 
  6496 ;; Return value:  Size  Location     Type
  6497 ;;                  2    2[COMMON] int 
  6498 ;; Registers used:
  6499 ;;		wreg, status,2, status,0
  6500 ;; Tracked objects:
  6501 ;;		On entry : 60/0
  6502 ;;		On exit  : 60/0
  6503 ;;		Unchanged: FFF9F/0
  6504 ;; Data sizes:     COMMON   BANK0   BANK1   BANK3   BANK2
  6505 ;;      Params:         4       0       0       0       0
  6506 ;;      Locals:         2       0       0       0       0
  6507 ;;      Temps:          0       0       0       0       0
  6508 ;;      Totals:         6       0       0       0       0
  6509 ;;Total ram usage:        6 bytes
  6510 ;; Hardware stack levels used:    1
  6511 ;; Hardware stack levels required when called:    1
  6512 ;; This function calls:
  6513 ;;		Nothing
  6514 ;; This function is called by:
  6515 ;;		_scale
  6516 ;; This function uses a non-reentrant model
  6517 ;;
  6518  032E                     ___awmod:	
  6519                           
  6520                           ; Regs used in ___awmod: [wreg+status,2+status,0]
  6521  032E  01F7               	clrf	___awmod@sign
  6522  032F  1FF5               	btfss	___awmod@dividend+1,7
  6523  0330  2B38               	goto	l6813
  6524  0331  09F4               	comf	___awmod@dividend,f
  6525  0332  09F5               	comf	___awmod@dividend+1,f
  6526  0333  0AF4               	incf	___awmod@dividend,f
  6527  0334  1903               	skipnz
  6528  0335  0AF5               	incf	___awmod@dividend+1,f
  6529  0336  01F7               	clrf	___awmod@sign
  6530  0337  0AF7               	incf	___awmod@sign,f
  6531  0338                     l6813:	
  6532  0338  1FF3               	btfss	___awmod@divisor+1,7
  6533  0339  2B3F               	goto	l6817
  6534  033A  09F2               	comf	___awmod@divisor,f
  6535  033B  09F3               	comf	___awmod@divisor+1,f
  6536  033C  0AF2               	incf	___awmod@divisor,f
  6537  033D  1903               	skipnz
  6538  033E  0AF3               	incf	___awmod@divisor+1,f
  6539  033F                     l6817:	
  6540  033F  0873               	movf	___awmod@divisor+1,w
  6541  0340  0472               	iorwf	___awmod@divisor,w
  6542  0341  1903               	skipnz
  6543  0342  2B5E               	goto	l6833
  6544  0343  01F6               	clrf	___awmod@counter
  6545  0344                     L10:	
  6546  0344  0AF6               	incf	___awmod@counter,f
  6547  0345  1BF3               	btfsc	___awmod@divisor+1,7
  6548  0346  2B4B               	goto	l6825
  6549  0347  1003               	clrc
  6550  0348  0DF2               	rlf	___awmod@divisor,f
  6551  0349  0DF3               	rlf	___awmod@divisor+1,f
  6552  034A  2B44               	goto	L10
  6553  034B                     l6825:	
  6554  034B  0873               	movf	___awmod@divisor+1,w
  6555  034C  0275               	subwf	___awmod@dividend+1,w
  6556  034D  1D03               	skipz
  6557  034E  2B51               	goto	u2895
  6558  034F  0872               	movf	___awmod@divisor,w
  6559  0350  0274               	subwf	___awmod@dividend,w
  6560  0351                     u2895:	
  6561  0351  1C03               	skipc
  6562  0352  2B5A               	goto	L11
  6563  0353  0872               	movf	___awmod@divisor,w
  6564  0354  02F4               	subwf	___awmod@dividend,f
  6565  0355  0873               	movf	___awmod@divisor+1,w
  6566  0356  1C03               	skipc
  6567  0357  03F5               	decf	___awmod@dividend+1,f
  6568  0358  02F5               	subwf	___awmod@dividend+1,f
  6569  0359  1003               	clrc
  6570  035A                     L11:	
  6571  035A  0CF3               	rrf	___awmod@divisor+1,f
  6572  035B  0CF2               	rrf	___awmod@divisor,f
  6573  035C  0BF6               	decfsz	___awmod@counter,f
  6574  035D  2B4B               	goto	l6825
  6575  035E                     l6833:	
  6576  035E  0877               	movf	___awmod@sign,w
  6577  035F  1903               	btfsc	3,2
  6578  0360  2B66               	goto	l6837
  6579  0361  09F4               	comf	___awmod@dividend,f
  6580  0362  09F5               	comf	___awmod@dividend+1,f
  6581  0363  0AF4               	incf	___awmod@dividend,f
  6582  0364  1903               	skipnz
  6583  0365  0AF5               	incf	___awmod@dividend+1,f
  6584  0366                     l6837:	
  6585  0366  0875               	movf	___awmod@dividend+1,w
  6586  0367  00F3               	movwf	?___awmod+1
  6587  0368  0874               	movf	___awmod@dividend,w
  6588  0369  00F2               	movwf	?___awmod
  6589  036A  0008               	return
  6590  036B                     __end_of___awmod:	
  6591  036B                     __ptext660:	
  6592 ;; =============== function ___altoft ends ============
  6593                           
  6594                           
  6595 ;; *************** function ___ftmul *****************
  6596 ;; Defined at:
  6597 ;;		line 52 in file "C:\Program Files (x86)\HI-TECH Software\PICC\9.83\sources\ftmul.c"
  6598 ;; Parameters:    Size  Location     Type
  6599 ;;  f1              3   17[BANK0 ] float 
  6600 ;;  f2              3   20[BANK0 ] float 
  6601 ;; Auto vars:     Size  Location     Type
  6602 ;;  f3_as_produc    3   27[BANK0 ] unsigned um
  6603 ;;  sign            1   31[BANK0 ] unsigned char 
  6604 ;;  cntr            1   30[BANK0 ] unsigned char 
  6605 ;;  exp             1   26[BANK0 ] unsigned char 
  6606 ;; Return value:  Size  Location     Type
  6607 ;;                  3   17[BANK0 ] float 
  6608 ;; Registers used:
  6609 ;;		wreg, status,2, status,0, pclath, cstack
  6610 ;; Tracked objects:
  6611 ;;		On entry : 60/0
  6612 ;;		On exit  : 60/0
  6613 ;;		Unchanged: FFF9F/0
  6614 ;; Data sizes:     COMMON   BANK0   BANK1   BANK3   BANK2
  6615 ;;      Params:         0       6       0       0       0
  6616 ;;      Locals:         0       6       0       0       0
  6617 ;;      Temps:          0       3       0       0       0
  6618 ;;      Totals:         0      15       0       0       0
  6619 ;;Total ram usage:       15 bytes
  6620 ;; Hardware stack levels used:    1
  6621 ;; Hardware stack levels required when called:    2
  6622 ;; This function calls:
  6623 ;;		___ftpack
  6624 ;; This function is called by:
  6625 ;;		_main
  6626 ;;		_fround
  6627 ;;		_scale
  6628 ;;		__doprnt
  6629 ;; This function uses a non-reentrant model
  6630 ;;
  6631  036B                     ___ftmul:	
  6632                           
  6633                           ; Regs used in ___ftmul: [wreg+status,2+status,0+pclath+cstack]
  6634  036B  0831               	movf	___ftmul@f1,w
  6635  036C  00B7               	movwf	??___ftmul
  6636  036D  0832               	movf	___ftmul@f1+1,w
  6637  036E  00B8               	movwf	??___ftmul+1
  6638  036F  0833               	movf	___ftmul@f1+2,w
  6639  0370  00B9               	movwf	??___ftmul+2
  6640  0371  1003               	clrc
  6641  0372  0D38               	rlf	??___ftmul+1,w
  6642  0373  0D39               	rlf	??___ftmul+2,w
  6643  0374  00BA               	movwf	___ftmul@exp
  6644  0375  08BA               	movf	___ftmul@exp,f
  6645  0376  1D03               	skipz
  6646  0377  2B7C               	goto	l6983
  6647  0378  01B1               	clrf	?___ftmul
  6648  0379  01B2               	clrf	?___ftmul+1
  6649  037A  01B3               	clrf	?___ftmul+2
  6650  037B  0008               	return
  6651  037C                     l6983:	
  6652  037C  0834               	movf	___ftmul@f2,w
  6653  037D  00B7               	movwf	??___ftmul
  6654  037E  0835               	movf	___ftmul@f2+1,w
  6655  037F  00B8               	movwf	??___ftmul+1
  6656  0380  0836               	movf	___ftmul@f2+2,w
  6657  0381  00B9               	movwf	??___ftmul+2
  6658  0382  1003               	clrc
  6659  0383  0D38               	rlf	??___ftmul+1,w
  6660  0384  0D39               	rlf	??___ftmul+2,w
  6661  0385  00BF               	movwf	___ftmul@sign
  6662  0386  08BF               	movf	___ftmul@sign,f
  6663  0387  1D03               	skipz
  6664  0388  2B8D               	goto	l6989
  6665  0389  01B1               	clrf	?___ftmul
  6666  038A  01B2               	clrf	?___ftmul+1
  6667  038B  01B3               	clrf	?___ftmul+2
  6668  038C  0008               	return
  6669  038D                     l6989:	
  6670  038D  083F               	movf	___ftmul@sign,w
  6671  038E  3E7B               	addlw	123
  6672  038F  07BA               	addwf	___ftmul@exp,f
  6673  0390  0833               	movf	___ftmul@f1+2,w
  6674  0391  00BF               	movwf	___ftmul@sign
  6675  0392  0836               	movf	___ftmul@f2+2,w
  6676  0393  06BF               	xorwf	___ftmul@sign,f
  6677  0394  3080               	movlw	128
  6678  0395  05BF               	andwf	___ftmul@sign,f
  6679  0396  3007               	movlw	7
  6680  0397  17B2               	bsf	___ftmul@f1+1,7
  6681  0398  17B5               	bsf	___ftmul@f2+1,7
  6682  0399  01B6               	clrf	___ftmul@f2+2
  6683  039A  01BB               	clrf	___ftmul@f3_as_product
  6684  039B  01BC               	clrf	___ftmul@f3_as_product+1
  6685  039C  01BD               	clrf	___ftmul@f3_as_product+2
  6686  039D  00BE               	movwf	___ftmul@cntr
  6687  039E                     l7007:	
  6688  039E  1C31               	btfss	___ftmul@f1,0
  6689  039F  2BA8               	goto	l7011
  6690  03A0  0834               	movf	___ftmul@f2,w
  6691  03A1  2455  120A  118A   	fcall	PL22	;call to abstracted procedure
  6692  03A4  1803               	skipnc
  6693  03A5  0A36               	incf	___ftmul@f2+2,w
  6694  03A6  1D03               	btfss	3,2
  6695  03A7  07BD               	addwf	___ftmul@f3_as_product+2,f
  6696  03A8                     l7011:	
  6697  03A8  1003               	clrc
  6698  03A9  0CB3               	rrf	___ftmul@f1+2,f
  6699  03AA  0CB2               	rrf	___ftmul@f1+1,f
  6700  03AB  0CB1               	rrf	___ftmul@f1,f
  6701  03AC  1003               	clrc
  6702  03AD  0DB4               	rlf	___ftmul@f2,f
  6703  03AE  0DB5               	rlf	___ftmul@f2+1,f
  6704  03AF  0DB6               	rlf	___ftmul@f2+2,f
  6705  03B0  0BBE               	decfsz	___ftmul@cntr,f
  6706  03B1  2B9E               	goto	l7007
  6707  03B2  3009               	movlw	9
  6708  03B3  00BE               	movwf	___ftmul@cntr
  6709  03B4                     l7019:	
  6710  03B4  1C31               	btfss	___ftmul@f1,0
  6711  03B5  2BBE               	goto	l7023
  6712  03B6  0834               	movf	___ftmul@f2,w
  6713  03B7  2455  120A  118A   	fcall	PL22	;call to abstracted procedure
  6714  03BA  1803               	skipnc
  6715  03BB  0A36               	incf	___ftmul@f2+2,w
  6716  03BC  1D03               	btfss	3,2
  6717  03BD  07BD               	addwf	___ftmul@f3_as_product+2,f
  6718  03BE                     l7023:	
  6719  03BE  1003               	clrc
  6720  03BF  0CB3               	rrf	___ftmul@f1+2,f
  6721  03C0  0CB2               	rrf	___ftmul@f1+1,f
  6722  03C1  0CB1               	rrf	___ftmul@f1,f
  6723  03C2  1003               	clrc
  6724  03C3  0CBD               	rrf	___ftmul@f3_as_product+2,f
  6725  03C4  0CBC               	rrf	___ftmul@f3_as_product+1,f
  6726  03C5  0CBB               	rrf	___ftmul@f3_as_product,f
  6727  03C6  0BBE               	decfsz	___ftmul@cntr,f
  6728  03C7  2BB4               	goto	l7019
  6729  03C8  083B               	movf	___ftmul@f3_as_product,w
  6730  03C9  00F2               	movwf	?___ftpack
  6731  03CA  083C               	movf	___ftmul@f3_as_product+1,w
  6732  03CB  00F3               	movwf	?___ftpack+1
  6733  03CC  083D               	movf	___ftmul@f3_as_product+2,w
  6734  03CD  00F4               	movwf	?___ftpack+2
  6735  03CE  083A               	movf	___ftmul@exp,w
  6736  03CF  00F5               	movwf	?___ftpack+3
  6737  03D0  083F               	movf	___ftmul@sign,w
  6738  03D1  00F6               	movwf	?___ftpack+4
  6739  03D2  23E8               	fcall	___ftpack
  6740  03D3  0872               	movf	?___ftpack,w
  6741  03D4  00B1               	movwf	?___ftmul
  6742  03D5  0873               	movf	?___ftpack+1,w
  6743  03D6  00B2               	movwf	?___ftmul+1
  6744  03D7  0874               	movf	?___ftpack+2,w
  6745  03D8  00B3               	movwf	?___ftmul+2
  6746  03D9  0008               	return
  6747  03DA                     __end_of___ftmul:	
  6748  03DA                     __ptext676:	
  6749 ;; =============== function ___wmul ends ============
  6750                           
  6751                           
  6752 ;; *************** function ___bmul *****************
  6753 ;; Defined at:
  6754 ;;		line 3 in file "C:\Program Files (x86)\HI-TECH Software\PICC\9.83\sources\bmul.c"
  6755 ;; Parameters:    Size  Location     Type
  6756 ;;  multiplier      1    wreg     unsigned char 
  6757 ;;  multiplicand    1   11[COMMON] unsigned char 
  6758 ;; Auto vars:     Size  Location     Type
  6759 ;;  multiplier      1    1[BANK0 ] unsigned char 
  6760 ;;  product         1    0[BANK0 ] unsigned char 
  6761 ;; Return value:  Size  Location     Type
  6762 ;;                  1    wreg      unsigned char 
  6763 ;; Registers used:
  6764 ;;		wreg, status,2, status,0
  6765 ;; Tracked objects:
  6766 ;;		On entry : 60/0
  6767 ;;		On exit  : 60/0
  6768 ;;		Unchanged: FFF9F/0
  6769 ;; Data sizes:     COMMON   BANK0   BANK1   BANK3   BANK2
  6770 ;;      Params:         1       0       0       0       0
  6771 ;;      Locals:         0       2       0       0       0
  6772 ;;      Temps:          0       0       0       0       0
  6773 ;;      Totals:         1       2       0       0       0
  6774 ;;Total ram usage:        3 bytes
  6775 ;; Hardware stack levels used:    1
  6776 ;; Hardware stack levels required when called:    1
  6777 ;; This function calls:
  6778 ;;		Nothing
  6779 ;; This function is called by:
  6780 ;;		_fround
  6781 ;;		_scale
  6782 ;; This function uses a non-reentrant model
  6783 ;;
  6784  03DA                     ___bmul:	
  6785                           
  6786                           ; Regs used in ___bmul: [wreg+status,2+status,0]
  6787                           ;___bmul@multiplier stored from wreg
  6788  03DA  00A1               	movwf	___bmul@multiplier
  6789  03DB  01A0               	clrf	___bmul@product
  6790  03DC                     l6549:	
  6791  03DC  087B               	movf	___bmul@multiplicand,w
  6792  03DD  1821               	btfsc	___bmul@multiplier,0
  6793  03DE  07A0               	addwf	___bmul@product,f
  6794  03DF  1003               	clrc
  6795  03E0  0DFB               	rlf	___bmul@multiplicand,f
  6796  03E1  1003               	clrc
  6797  03E2  0CA1               	rrf	___bmul@multiplier,f
  6798  03E3  08A1               	movf	___bmul@multiplier,f
  6799  03E4  1D03               	skipz
  6800  03E5  2BDC               	goto	l6549
  6801  03E6  0820               	movf	___bmul@product,w
  6802  03E7  0008               	return
  6803  03E8                     __end_of___bmul:	
  6804  03E8                     __ptext672:	
  6805 ;; =============== function ___fttol ends ============
  6806                           
  6807                           
  6808 ;; *************** function ___ftpack *****************
  6809 ;; Defined at:
  6810 ;;		line 63 in file "C:\Program Files (x86)\HI-TECH Software\PICC\9.83\sources\float.c"
  6811 ;; Parameters:    Size  Location     Type
  6812 ;;  arg             3    2[COMMON] unsigned um
  6813 ;;  exp             1    5[COMMON] unsigned char 
  6814 ;;  sign            1    6[COMMON] unsigned char 
  6815 ;; Auto vars:     Size  Location     Type
  6816 ;;		None
  6817 ;; Return value:  Size  Location     Type
  6818 ;;                  3    2[COMMON] float 
  6819 ;; Registers used:
  6820 ;;		wreg, status,2, status,0
  6821 ;; Tracked objects:
  6822 ;;		On entry : 60/0
  6823 ;;		On exit  : 60/0
  6824 ;;		Unchanged: FFF9F/0
  6825 ;; Data sizes:     COMMON   BANK0   BANK1   BANK3   BANK2
  6826 ;;      Params:         5       0       0       0       0
  6827 ;;      Locals:         0       0       0       0       0
  6828 ;;      Temps:          3       0       0       0       0
  6829 ;;      Totals:         8       0       0       0       0
  6830 ;;Total ram usage:        8 bytes
  6831 ;; Hardware stack levels used:    1
  6832 ;; Hardware stack levels required when called:    1
  6833 ;; This function calls:
  6834 ;;		Nothing
  6835 ;; This function is called by:
  6836 ;;		___ftadd
  6837 ;;		___ftmul
  6838 ;;		___altoft
  6839 ;;		___lltoft
  6840 ;; This function uses a non-reentrant model
  6841 ;;
  6842  03E8                     ___ftpack:	
  6843                           
  6844                           ; Regs used in ___ftpack: [wreg+status,2+status,0]
  6845  03E8  0875               	movf	___ftpack@exp,w
  6846  03E9  1903               	btfsc	3,2
  6847  03EA  2BF0               	goto	l6625
  6848  03EB  0874               	movf	___ftpack@arg+2,w
  6849  03EC  0473               	iorwf	___ftpack@arg+1,w
  6850  03ED  0472               	iorwf	___ftpack@arg,w
  6851  03EE  1D03               	skipz
  6852  03EF  2BF9               	goto	l6631
  6853  03F0                     l6625:	
  6854  03F0  01F2               	clrf	?___ftpack
  6855  03F1  01F3               	clrf	?___ftpack+1
  6856  03F2  01F4               	clrf	?___ftpack+2
  6857  03F3  0008               	return
  6858  03F4                     l6629:	
  6859  03F4  0AF5               	incf	___ftpack@exp,f
  6860  03F5  1003               	clrc
  6861  03F6  0CF4               	rrf	___ftpack@arg+2,f
  6862  03F7  0CF3               	rrf	___ftpack@arg+1,f
  6863  03F8  0CF2               	rrf	___ftpack@arg,f
  6864  03F9                     l6631:	
  6865  03F9  30FE               	movlw	254
  6866  03FA  0574               	andwf	___ftpack@arg+2,w
  6867  03FB  1903               	btfsc	3,2
  6868  03FC  2C08               	goto	l6635
  6869  03FD  2BF4               	goto	l6629
  6870  03FE                     l6633:	
  6871  03FE  0AF5               	incf	___ftpack@exp,f
  6872  03FF  0AF2               	incf	___ftpack@arg,f
  6873  0400  1903               	skipnz
  6874  0401  0AF3               	incf	___ftpack@arg+1,f
  6875  0402  1903               	skipnz
  6876  0403  0AF4               	incf	___ftpack@arg+2,f
  6877  0404  1003               	clrc
  6878  0405  0CF4               	rrf	___ftpack@arg+2,f
  6879  0406  0CF3               	rrf	___ftpack@arg+1,f
  6880  0407  0CF2               	rrf	___ftpack@arg,f
  6881  0408                     l6635:	
  6882  0408  30FF               	movlw	255
  6883  0409  0574               	andwf	___ftpack@arg+2,w
  6884  040A  1903               	btfsc	3,2
  6885  040B  2C12               	goto	l6639
  6886  040C  2BFE               	goto	l6633
  6887  040D                     l6637:	
  6888  040D  03F5               	decf	___ftpack@exp,f
  6889  040E  1003               	clrc
  6890  040F  0DF2               	rlf	___ftpack@arg,f
  6891  0410  0DF3               	rlf	___ftpack@arg+1,f
  6892  0411  0DF4               	rlf	___ftpack@arg+2,f
  6893  0412                     l6639:	
  6894  0412  1FF3               	btfss	___ftpack@arg+1,7
  6895  0413  2C0D               	goto	l6637
  6896  0414  1C75               	btfss	___ftpack@exp,0
  6897  0415  13F3               	bcf	___ftpack@arg+1,7
  6898  0416  1003               	clrc
  6899  0417  0CF5               	rrf	___ftpack@exp,f
  6900  0418  0875               	movf	___ftpack@exp,w
  6901  0419  00F9               	movwf	??___ftpack+2
  6902  041A  01F8               	clrf	??___ftpack+1
  6903  041B  01F7               	clrf	??___ftpack
  6904  041C  0877               	movf	??___ftpack,w
  6905  041D  04F2               	iorwf	___ftpack@arg,f
  6906  041E  0878               	movf	??___ftpack+1,w
  6907  041F  04F3               	iorwf	___ftpack@arg+1,f
  6908  0420  0879               	movf	??___ftpack+2,w
  6909  0421  04F4               	iorwf	___ftpack@arg+2,f
  6910  0422  0876               	movf	___ftpack@sign,w
  6911  0423  1D03               	skipz
  6912  0424  17F4               	bsf	___ftpack@arg+2,7
  6913  0425  0008               	return
  6914  0426                     __end_of___ftpack:	
  6915  0426                     PL10:	
  6916  0426  0872               	movf	?___awmod,w
  6917  0427  00C3               	movwf	??_scale
  6918  0428  0873               	movf	?___awmod+1,w
  6919  0429  00C4               	movwf	??_scale+1
  6920  042A  0843               	movf	??_scale,w
  6921  042B  0743               	addwf	??_scale,w
  6922  042C  0743               	addwf	??_scale,w
  6923  042D  0008               	return
  6924  042E                     PL11:	
  6925  042E  0878               	movf	?___awdiv,w
  6926  042F  00C5               	movwf	??_scale+2
  6927  0430  0879               	movf	?___awdiv+1,w
  6928  0431  00C6               	movwf	??_scale+3
  6929  0432  0845               	movf	??_scale+2,w
  6930  0433  0745               	addwf	??_scale+2,w
  6931  0434  0745               	addwf	??_scale+2,w
  6932  0435  0008               	return
  6933  0436                     PL12:	
  6934  0436  0831               	movf	?___ftmul,w
  6935  0437  00C7               	movwf	_scale$4205
  6936  0438  0832               	movf	?___ftmul+1,w
  6937  0439  00C8               	movwf	_scale$4205+1
  6938  043A  0833               	movf	?___ftmul+2,w
  6939  043B  00C9               	movwf	_scale$4205+2
  6940  043C  300A               	movlw	10
  6941  043D  00F2               	movwf	?___awmod
  6942  043E  01F3               	clrf	?___awmod+1
  6943  043F  084A               	movf	scale@scl,w
  6944  0440  00F4               	movwf	?___awmod+2
  6945  0441  01F5               	clrf	?___awmod+3
  6946  0442  0008               	return
  6947  0443                     PL13:	
  6948  0443  0831               	movf	?___ftmul,w
  6949  0444  00C0               	movwf	?_scale
  6950  0445  0832               	movf	?___ftmul+1,w
  6951  0446  00C1               	movwf	?_scale+1
  6952  0447  0833               	movf	?___ftmul+2,w
  6953  0448  00C2               	movwf	?_scale+2
  6954  0449  0008               	return
  6955  044A                     PL19:	
  6956  044A  00F8               	movwf	?___awdiv
  6957  044B  01F9               	clrf	?___awdiv+1
  6958  044C  084A               	movf	scale@scl,w
  6959  044D  00F4               	movwf	?___awmod+2
  6960  044E  01F5               	clrf	?___awmod+3
  6961  044F  1BF4               	btfsc	?___awmod+2,7
  6962  0450  03F5               	decf	?___awmod+3,f
  6963  0451  3064               	movlw	100
  6964  0452  00F2               	movwf	?___awmod
  6965  0453  01F3               	clrf	?___awmod+1
  6966  0454  0008               	return
  6967  0455                     PL22:	
  6968  0455  07BB               	addwf	___ftmul@f3_as_product,f
  6969  0456  0835               	movf	___ftmul@f2+1,w
  6970  0457  1103               	clrz
  6971  0458  1803               	skipnc
  6972  0459  0A35               	incf	___ftmul@f2+1,w
  6973  045A  1D03               	btfss	3,2
  6974  045B  07BC               	addwf	___ftmul@f3_as_product+1,f
  6975  045C  0836               	movf	___ftmul@f2+2,w
  6976  045D  1103               	clrz
  6977  045E  0008               	return
  6978  045F                     PL27:	
  6979  045F  0878               	movf	?___awdiv,w
  6980  0460  00C3               	movwf	??_scale
  6981  0461  0879               	movf	?___awdiv+1,w
  6982  0462  00C4               	movwf	??_scale+1
  6983  0463  0843               	movf	??_scale,w
  6984  0464  0743               	addwf	??_scale,w
  6985  0465  0743               	addwf	??_scale,w
  6986  0466  0008               	return
  6987  0467                     PL28:	
  6988  0467  00B3               	movwf	?___ftmul+2
  6989  0468  3064               	movlw	100
  6990  0469  00F8               	movwf	?___awdiv
  6991  046A  01F9               	clrf	?___awdiv+1
  6992  046B  084A               	movf	scale@scl,w
  6993  046C  00FA               	movwf	?___awdiv+2
  6994  046D  01FB               	clrf	?___awdiv+3
  6995  046E  0008               	return
  6996  046F                     PL29:	
  6997  046F  00B3               	movwf	?___ftmul+2
  6998  0470  0847               	movf	_scale$4205,w
  6999  0471  00B4               	movwf	?___ftmul+3
  7000  0472  0848               	movf	_scale$4205+1,w
  7001  0473  00B5               	movwf	?___ftmul+4
  7002  0474  0849               	movf	_scale$4205+2,w
  7003  0475  00B6               	movwf	?___ftmul+5
  7004  0476  0008               	return
  7005  0477                     PL31:	
  7006  0477  00B3               	movwf	?___ftmul+2
  7007  0478  300A               	movlw	10
  7008  0479  00F8               	movwf	?___awdiv
  7009  047A  01F9               	clrf	?___awdiv+1
  7010  047B  084A               	movf	scale@scl,w
  7011  047C  00FA               	movwf	?___awdiv+2
  7012  047D  01FB               	clrf	?___awdiv+3
  7013  047E  0008               	return
  7014                           
  7015                           	psect	text664
  7016  1519                     __ptext664:	
  7017 ;; =============== function _lcd_put_byte ends ============
  7018                           
  7019                           
  7020 ;; *************** function _send_string *****************
  7021 ;; Defined at:
  7022 ;;		line 96 in file "D:\TTVXL\Project TTVXL\BT n Thi 03\BT n Thi 03.c"
  7023 ;; Parameters:    Size  Location     Type
  7024 ;;  s               1    wreg     PTR const unsigned char 
  7025 ;;		 -> main@data_tx(10), 
  7026 ;; Auto vars:     Size  Location     Type
  7027 ;;  s               1    3[COMMON] PTR const unsigned char 
  7028 ;;		 -> main@data_tx(10), 
  7029 ;; Return value:  Size  Location     Type
  7030 ;;		None               void
  7031 ;; Registers used:
  7032 ;;		wreg, fsr0l, fsr0h, status,2, status,0, pclath, cstack
  7033 ;; Tracked objects:
  7034 ;;		On entry : 160/0
  7035 ;;		On exit  : 160/0
  7036 ;;		Unchanged: FFE9F/0
  7037 ;; Data sizes:     COMMON   BANK0   BANK1   BANK3   BANK2
  7038 ;;      Params:         0       0       0       0       0
  7039 ;;      Locals:         1       0       0       0       0
  7040 ;;      Temps:          0       0       0       0       0
  7041 ;;      Totals:         1       0       0       0       0
  7042 ;;Total ram usage:        1 bytes
  7043 ;; Hardware stack levels used:    1
  7044 ;; Hardware stack levels required when called:    2
  7045 ;; This function calls:
  7046 ;;		_send_char
  7047 ;; This function is called by:
  7048 ;;		_main
  7049 ;; This function uses a non-reentrant model
  7050 ;;
  7051  1519                     _send_string:	
  7052                           
  7053                           ; Regs used in _send_string: [wreg-fsr0h+status,2+status,0+pclath+cstack]
  7054                           ;send_string@s stored from wreg
  7055  1519  00F3               	movwf	send_string@s
  7056  151A                     l6847:	
  7057                           ;BT n Thi 03.c: 97: while(*s) {send_char(*s++);}
  7058                           
  7059  151A  0873               	movf	send_string@s,w
  7060  151B  0084               	movwf	4
  7061  151C  0880               	movf	0,f
  7062  151D  1903               	btfsc	3,2
  7063  151E  0008               	return
  7064  151F  0873               	movf	send_string@s,w
  7065  1520  0084               	movwf	4
  7066  1521  0800               	movf	0,w
  7067  1522  2527  160A  118A   	fcall	_send_char
  7068  1525  0AF3               	incf	send_string@s,f
  7069  1526  2D1A               	goto	l6847
  7070  1527                     __end_of_send_string:	
  7071  1527                     __ptext681:	
  7072 ;; =============== function _isprint ends ============
  7073                           
  7074                           
  7075 ;; *************** function _send_char *****************
  7076 ;; Defined at:
  7077 ;;		line 92 in file "D:\TTVXL\Project TTVXL\BT n Thi 03\BT n Thi 03.c"
  7078 ;; Parameters:    Size  Location     Type
  7079 ;;  data            1    wreg     unsigned char 
  7080 ;; Auto vars:     Size  Location     Type
  7081 ;;  data            1    2[COMMON] unsigned char 
  7082 ;; Return value:  Size  Location     Type
  7083 ;;		None               void
  7084 ;; Registers used:
  7085 ;;		wreg
  7086 ;; Tracked objects:
  7087 ;;		On entry : 160/0
  7088 ;;		On exit  : 160/0
  7089 ;;		Unchanged: FFE9F/0
  7090 ;; Data sizes:     COMMON   BANK0   BANK1   BANK3   BANK2
  7091 ;;      Params:         0       0       0       0       0
  7092 ;;      Locals:         1       0       0       0       0
  7093 ;;      Temps:          0       0       0       0       0
  7094 ;;      Totals:         1       0       0       0       0
  7095 ;;Total ram usage:        1 bytes
  7096 ;; Hardware stack levels used:    1
  7097 ;; Hardware stack levels required when called:    1
  7098 ;; This function calls:
  7099 ;;		Nothing
  7100 ;; This function is called by:
  7101 ;;		_send_string
  7102 ;; This function uses a non-reentrant model
  7103 ;;
  7104  1527                     _send_char:	
  7105                           
  7106                           ; Regs used in _send_char: [wreg]
  7107                           ;send_char@data stored from wreg
  7108  1527  00F2               	movwf	send_char@data
  7109  1528                     l1077:	
  7110                           ;BT n Thi 03.c: 93: while (TXIF==0){}
  7111                           
  7112  1528  1E0C               	btfss	12,4
  7113  1529  2D28               	goto	l1077
  7114                           
  7115                           ;BT n Thi 03.c: 94: TXREG = data;
  7116  152A  0872               	movf	send_char@data,w
  7117  152B  0099               	movwf	25	;volatile
  7118  152C  0008               	return
  7119  152D                     __end_of_send_char:	
  7120                           
  7121                           	psect	text666
  7122  07A5                     __ptext666:	
  7123 ;; =============== function ___awmod ends ============
  7124                           
  7125                           
  7126 ;; *************** function ___lldiv *****************
  7127 ;; Defined at:
  7128 ;;		line 5 in file "C:\Program Files (x86)\HI-TECH Software\PICC\9.83\sources\lldiv.c"
  7129 ;; Parameters:    Size  Location     Type
  7130 ;;  divisor         4    2[COMMON] unsigned long 
  7131 ;;  dividend        4    6[COMMON] unsigned long 
  7132 ;; Auto vars:     Size  Location     Type
  7133 ;;  quotient        4    0[BANK0 ] unsigned long 
  7134 ;;  counter         1    4[BANK0 ] unsigned char 
  7135 ;; Return value:  Size  Location     Type
  7136 ;;                  4    2[COMMON] unsigned long 
  7137 ;; Registers used:
  7138 ;;		wreg, status,2, status,0
  7139 ;; Tracked objects:
  7140 ;;		On entry : 60/20
  7141 ;;		On exit  : 60/0
  7142 ;;		Unchanged: FFF9F/0
  7143 ;; Data sizes:     COMMON   BANK0   BANK1   BANK3   BANK2
  7144 ;;      Params:         8       0       0       0       0
  7145 ;;      Locals:         0       5       0       0       0
  7146 ;;      Temps:          0       0       0       0       0
  7147 ;;      Totals:         8       5       0       0       0
  7148 ;;Total ram usage:       13 bytes
  7149 ;; Hardware stack levels used:    1
  7150 ;; Hardware stack levels required when called:    1
  7151 ;; This function calls:
  7152 ;;		Nothing
  7153 ;; This function is called by:
  7154 ;;		__doprnt
  7155 ;; This function uses a non-reentrant model
  7156 ;;
  7157  07A5                     ___lldiv:	
  7158                           
  7159                           ; Regs used in ___lldiv: [wreg+status,2+status,0]
  7160  07A5  1283               	bcf	3,5	;RP0=0, select bank0
  7161  07A6  01A0               	clrf	___lldiv@quotient
  7162  07A7  01A1               	clrf	___lldiv@quotient+1
  7163  07A8  01A2               	clrf	___lldiv@quotient+2
  7164  07A9  01A3               	clrf	___lldiv@quotient+3
  7165  07AA  0875               	movf	___lldiv@divisor+3,w
  7166  07AB  0474               	iorwf	___lldiv@divisor+2,w
  7167  07AC  0473               	iorwf	___lldiv@divisor+1,w
  7168  07AD  0472               	iorwf	___lldiv@divisor,w
  7169  07AE  1903               	skipnz
  7170  07AF  2FE5               	goto	l6801
  7171  07B0  01A4               	clrf	___lldiv@counter
  7172  07B1                     L12:	
  7173  07B1  0AA4               	incf	___lldiv@counter,f
  7174  07B2  1BF5               	btfsc	___lldiv@divisor+3,7
  7175  07B3  2FBA               	goto	l6789
  7176  07B4  1003               	clrc
  7177  07B5  0DF2               	rlf	___lldiv@divisor,f
  7178  07B6  0DF3               	rlf	___lldiv@divisor+1,f
  7179  07B7  0DF4               	rlf	___lldiv@divisor+2,f
  7180  07B8  0DF5               	rlf	___lldiv@divisor+3,f
  7181  07B9  2FB1               	goto	L12
  7182  07BA                     l6789:	
  7183  07BA  1003               	clrc
  7184  07BB  0DA0               	rlf	___lldiv@quotient,f
  7185  07BC  0DA1               	rlf	___lldiv@quotient+1,f
  7186  07BD  0DA2               	rlf	___lldiv@quotient+2,f
  7187  07BE  0DA3               	rlf	___lldiv@quotient+3,f
  7188  07BF  0875               	movf	___lldiv@divisor+3,w
  7189  07C0  0279               	subwf	___lldiv@dividend+3,w
  7190  07C1  1D03               	skipz
  7191  07C2  2FCD               	goto	u2835
  7192  07C3  0874               	movf	___lldiv@divisor+2,w
  7193  07C4  0278               	subwf	___lldiv@dividend+2,w
  7194  07C5  1D03               	skipz
  7195  07C6  2FCD               	goto	u2835
  7196  07C7  0873               	movf	___lldiv@divisor+1,w
  7197  07C8  0277               	subwf	___lldiv@dividend+1,w
  7198  07C9  1D03               	skipz
  7199  07CA  2FCD               	goto	u2835
  7200  07CB  0872               	movf	___lldiv@divisor,w
  7201  07CC  0276               	subwf	___lldiv@dividend,w
  7202  07CD                     u2835:	
  7203  07CD  1C03               	skipc
  7204  07CE  2FDF               	goto	L13
  7205  07CF  0872               	movf	___lldiv@divisor,w
  7206  07D0  02F6               	subwf	___lldiv@dividend,f
  7207  07D1  0873               	movf	___lldiv@divisor+1,w
  7208  07D2  1C03               	skipc
  7209  07D3  0F73               	incfsz	___lldiv@divisor+1,w
  7210  07D4  02F7               	subwf	___lldiv@dividend+1,f
  7211  07D5  0874               	movf	___lldiv@divisor+2,w
  7212  07D6  1C03               	skipc
  7213  07D7  0F74               	incfsz	___lldiv@divisor+2,w
  7214  07D8  02F8               	subwf	___lldiv@dividend+2,f
  7215  07D9  0875               	movf	___lldiv@divisor+3,w
  7216  07DA  1C03               	skipc
  7217  07DB  0F75               	incfsz	___lldiv@divisor+3,w
  7218  07DC  02F9               	subwf	___lldiv@dividend+3,f
  7219  07DD  1420               	bsf	___lldiv@quotient,0
  7220  07DE  1003               	clrc
  7221  07DF                     L13:	
  7222  07DF  0CF5               	rrf	___lldiv@divisor+3,f
  7223  07E0  0CF4               	rrf	___lldiv@divisor+2,f
  7224  07E1  0CF3               	rrf	___lldiv@divisor+1,f
  7225  07E2  0CF2               	rrf	___lldiv@divisor,f
  7226  07E3  0BA4               	decfsz	___lldiv@counter,f
  7227  07E4  2FBA               	goto	l6789
  7228  07E5                     l6801:	
  7229  07E5  0823               	movf	___lldiv@quotient+3,w
  7230  07E6  00F5               	movwf	?___lldiv+3
  7231  07E7  0822               	movf	___lldiv@quotient+2,w
  7232  07E8  00F4               	movwf	?___lldiv+2
  7233  07E9  0821               	movf	___lldiv@quotient+1,w
  7234  07EA  00F3               	movwf	?___lldiv+1
  7235  07EB  0820               	movf	___lldiv@quotient,w
  7236  07EC  00F2               	movwf	?___lldiv
  7237  07ED  0008               	return
  7238  07EE                     __end_of___lldiv:	
  7239                           
  7240                           	psect	text671
  7241  1561                     __ptext671:	
  7242 ;; =============== function ___awdiv ends ============
  7243                           
  7244                           
  7245 ;; *************** function ___fttol *****************
  7246 ;; Defined at:
  7247 ;;		line 45 in file "C:\Program Files (x86)\HI-TECH Software\PICC\9.83\sources\fttol.c"
  7248 ;; Parameters:    Size  Location     Type
  7249 ;;  f1              3    4[BANK0 ] float 
  7250 ;; Auto vars:     Size  Location     Type
  7251 ;;  lval            4   12[BANK0 ] unsigned long 
  7252 ;;  exp1            1   16[BANK0 ] unsigned char 
  7253 ;;  sign1           1   11[BANK0 ] unsigned char 
  7254 ;; Return value:  Size  Location     Type
  7255 ;;                  4    4[BANK0 ] long 
  7256 ;; Registers used:
  7257 ;;		wreg, status,2, status,0
  7258 ;; Tracked objects:
  7259 ;;		On entry : 60/0
  7260 ;;		On exit  : 60/0
  7261 ;;		Unchanged: FFF9F/0
  7262 ;; Data sizes:     COMMON   BANK0   BANK1   BANK3   BANK2
  7263 ;;      Params:         0       4       0       0       0
  7264 ;;      Locals:         0       6       0       0       0
  7265 ;;      Temps:          0       3       0       0       0
  7266 ;;      Totals:         0      13       0       0       0
  7267 ;;Total ram usage:       13 bytes
  7268 ;; Hardware stack levels used:    1
  7269 ;; Hardware stack levels required when called:    1
  7270 ;; This function calls:
  7271 ;;		Nothing
  7272 ;; This function is called by:
  7273 ;;		__doprnt
  7274 ;; This function uses a non-reentrant model
  7275 ;;
  7276  1561                     ___fttol:	
  7277                           
  7278                           ; Regs used in ___fttol: [wreg+status,2+status,0]
  7279  1561  25BC  160A  118A   	fcall	PL33	;call to abstracted procedure
  7280  1564  1003               	clrc
  7281  1565  0D29               	rlf	??___fttol+1,w
  7282  1566  0D2A               	rlf	??___fttol+2,w
  7283  1567  00B0               	movwf	___fttol@exp1
  7284  1568  08B0               	movf	___fttol@exp1,f
  7285  1569  1D03               	skipz
  7286  156A  2D70               	goto	l6653
  7287  156B                     l6651:	
  7288  156B  01A4               	clrf	?___fttol
  7289  156C  01A5               	clrf	?___fttol+1
  7290  156D  01A6               	clrf	?___fttol+2
  7291  156E  01A7               	clrf	?___fttol+3
  7292  156F  0008               	return
  7293  1570                     l6653:	
  7294  1570  25BC  160A  118A   	fcall	PL33	;call to abstracted procedure
  7295  1573  3017               	movlw	23
  7296  1574                     u2595:	
  7297  1574  1003               	clrc
  7298  1575  0CAA               	rrf	??___fttol+2,f
  7299  1576  0CA9               	rrf	??___fttol+1,f
  7300  1577  0CA8               	rrf	??___fttol,f
  7301  1578  3EFF               	addlw	-1
  7302  1579  1D03               	skipz
  7303  157A  2D74               	goto	u2595
  7304  157B  0828               	movf	??___fttol,w
  7305  157C  00AB               	movwf	___fttol@sign1
  7306  157D  17A5               	bsf	___fttol@f1+1,7
  7307  157E  01A6               	clrf	___fttol@f1+2
  7308  157F  0824               	movf	___fttol@f1,w
  7309  1580  00AC               	movwf	___fttol@lval
  7310  1581  0825               	movf	___fttol@f1+1,w
  7311  1582  00AD               	movwf	___fttol@lval+1
  7312  1583  0826               	movf	___fttol@f1+2,w
  7313  1584  00AE               	movwf	___fttol@lval+2
  7314  1585  308E               	movlw	142
  7315  1586  01AF               	clrf	___fttol@lval+3
  7316  1587  02B0               	subwf	___fttol@exp1,f
  7317  1588  1FB0               	btfss	___fttol@exp1,7
  7318  1589  2D97               	goto	l6673
  7319  158A  0830               	movf	___fttol@exp1,w
  7320  158B  3A80               	xorlw	128
  7321  158C  3E8F               	addlw	143
  7322  158D  1C03               	btfss	3,0
  7323  158E  2D6B               	goto	l6651
  7324  158F                     l6669:	
  7325  158F  1003               	clrc
  7326  1590  0CAF               	rrf	___fttol@lval+3,f
  7327  1591  0CAE               	rrf	___fttol@lval+2,f
  7328  1592  0CAD               	rrf	___fttol@lval+1,f
  7329  1593  0CAC               	rrf	___fttol@lval,f
  7330  1594  0FB0               	incfsz	___fttol@exp1,f
  7331  1595  2D8F               	goto	l6669
  7332  1596  2DA5               	goto	l6679
  7333  1597                     l6673:	
  7334  1597  3018               	movlw	24
  7335  1598  0230               	subwf	___fttol@exp1,w
  7336  1599  1803               	btfsc	3,0
  7337  159A  2D6B               	goto	l6651
  7338  159B                     l3488:	
  7339  159B  08B0               	movf	___fttol@exp1,f
  7340  159C  1903               	btfsc	3,2
  7341  159D  2DA5               	goto	l6679
  7342  159E  1003               	clrc
  7343  159F  0DAC               	rlf	___fttol@lval,f
  7344  15A0  0DAD               	rlf	___fttol@lval+1,f
  7345  15A1  0DAE               	rlf	___fttol@lval+2,f
  7346  15A2  0DAF               	rlf	___fttol@lval+3,f
  7347  15A3  03B0               	decf	___fttol@exp1,f
  7348  15A4  2D9B               	goto	l3488
  7349  15A5                     l6679:	
  7350  15A5  082B               	movf	___fttol@sign1,w
  7351  15A6  1903               	btfsc	3,2
  7352  15A7  2DB3               	goto	l6683
  7353  15A8  09AC               	comf	___fttol@lval,f
  7354  15A9  09AD               	comf	___fttol@lval+1,f
  7355  15AA  09AE               	comf	___fttol@lval+2,f
  7356  15AB  09AF               	comf	___fttol@lval+3,f
  7357  15AC  0AAC               	incf	___fttol@lval,f
  7358  15AD  1903               	skipnz
  7359  15AE  0AAD               	incf	___fttol@lval+1,f
  7360  15AF  1903               	skipnz
  7361  15B0  0AAE               	incf	___fttol@lval+2,f
  7362  15B1  1903               	skipnz
  7363  15B2  0AAF               	incf	___fttol@lval+3,f
  7364  15B3                     l6683:	
  7365  15B3  082F               	movf	___fttol@lval+3,w
  7366  15B4  00A7               	movwf	?___fttol+3
  7367  15B5  082E               	movf	___fttol@lval+2,w
  7368  15B6  00A6               	movwf	?___fttol+2
  7369  15B7  082D               	movf	___fttol@lval+1,w
  7370  15B8  00A5               	movwf	?___fttol+1
  7371  15B9  082C               	movf	___fttol@lval,w
  7372  15BA  00A4               	movwf	?___fttol
  7373  15BB  0008               	return
  7374  15BC                     __end_of___fttol:	
  7375  15BC                     PL33:	
  7376  15BC  0824               	movf	___fttol@f1,w
  7377  15BD  00A8               	movwf	??___fttol
  7378  15BE  0825               	movf	___fttol@f1+1,w
  7379  15BF  00A9               	movwf	??___fttol+1
  7380  15C0  0826               	movf	___fttol@f1+2,w
  7381  15C1  00AA               	movwf	??___fttol+2
  7382  15C2  0008               	return
  7383                           
  7384                           	psect	text675
  7385  00E7                     __ptext675:	
  7386 ;; =============== function ___lbdiv ends ============
  7387                           
  7388                           
  7389 ;; *************** function ___wmul *****************
  7390 ;; Defined at:
  7391 ;;		line 3 in file "C:\Program Files (x86)\HI-TECH Software\PICC\9.83\sources\wmul.c"
  7392 ;; Parameters:    Size  Location     Type
  7393 ;;  multiplier      2    2[COMMON] unsigned int 
  7394 ;;  multiplicand    2    4[COMMON] unsigned int 
  7395 ;; Auto vars:     Size  Location     Type
  7396 ;;  product         2    6[COMMON] unsigned int 
  7397 ;; Return value:  Size  Location     Type
  7398 ;;                  2    2[COMMON] unsigned int 
  7399 ;; Registers used:
  7400 ;;		wreg, status,2, status,0
  7401 ;; Tracked objects:
  7402 ;;		On entry : 60/20
  7403 ;;		On exit  : 60/20
  7404 ;;		Unchanged: FFF9F/0
  7405 ;; Data sizes:     COMMON   BANK0   BANK1   BANK3   BANK2
  7406 ;;      Params:         4       0       0       0       0
  7407 ;;      Locals:         2       0       0       0       0
  7408 ;;      Temps:          0       0       0       0       0
  7409 ;;      Totals:         6       0       0       0       0
  7410 ;;Total ram usage:        6 bytes
  7411 ;; Hardware stack levels used:    1
  7412 ;; Hardware stack levels required when called:    1
  7413 ;; This function calls:
  7414 ;;		Nothing
  7415 ;; This function is called by:
  7416 ;;		_fround
  7417 ;;		_scale
  7418 ;;		__doprnt
  7419 ;; This function uses a non-reentrant model
  7420 ;;
  7421  00E7                     ___wmul:	
  7422                           
  7423                           ; Regs used in ___wmul: [wreg+status,2+status,0]
  7424  00E7  01F6               	clrf	___wmul@product
  7425  00E8  01F7               	clrf	___wmul@product+1
  7426  00E9                     l6565:	
  7427  00E9  1C72               	btfss	___wmul@multiplier,0
  7428  00EA  28F1               	goto	l6569
  7429  00EB  0874               	movf	___wmul@multiplicand,w
  7430  00EC  07F6               	addwf	___wmul@product,f
  7431  00ED  1803               	skipnc
  7432  00EE  0AF7               	incf	___wmul@product+1,f
  7433  00EF  0875               	movf	___wmul@multiplicand+1,w
  7434  00F0  07F7               	addwf	___wmul@product+1,f
  7435  00F1                     l6569:	
  7436  00F1  1003               	clrc
  7437  00F2  0DF4               	rlf	___wmul@multiplicand,f
  7438  00F3  0DF5               	rlf	___wmul@multiplicand+1,f
  7439  00F4  1003               	clrc
  7440  00F5  0CF3               	rrf	___wmul@multiplier+1,f
  7441  00F6  0CF2               	rrf	___wmul@multiplier,f
  7442  00F7  0873               	movf	___wmul@multiplier+1,w
  7443  00F8  0472               	iorwf	___wmul@multiplier,w
  7444  00F9  1D03               	skipz
  7445  00FA  28E9               	goto	l6565
  7446  00FB  0877               	movf	___wmul@product+1,w
  7447  00FC  00F3               	movwf	?___wmul+1
  7448  00FD  0876               	movf	___wmul@product,w
  7449  00FE  00F2               	movwf	?___wmul
  7450  00FF  0008               	return
  7451  0100                     __end_of___wmul:	
  7452                           
  7453                           	psect	text677
  7454  163B                     __ptext677:	
  7455 ;; =============== function ___bmul ends ============
  7456                           
  7457                           
  7458 ;; *************** function __div_to_l_ *****************
  7459 ;; Defined at:
  7460 ;;		line 61 in file "C:\Program Files (x86)\HI-TECH Software\PICC\9.83\sources\fldivl.c"
  7461 ;; Parameters:    Size  Location     Type
  7462 ;;  f1              3    2[COMMON] unsigned char 
  7463 ;;  f2              3    5[COMMON] unsigned char 
  7464 ;; Auto vars:     Size  Location     Type
  7465 ;;  quot            4    8[BANK0 ] unsigned long 
  7466 ;;  exp1            1   13[BANK0 ] unsigned char 
  7467 ;;  cntr            1   12[BANK0 ] unsigned char 
  7468 ;; Return value:  Size  Location     Type
  7469 ;;                  4    2[COMMON] unsigned long 
  7470 ;; Registers used:
  7471 ;;		wreg, fsr0l, fsr0h, status,2, status,0
  7472 ;; Tracked objects:
  7473 ;;		On entry : 0/0
  7474 ;;		On exit  : 60/0
  7475 ;;		Unchanged: FFF9F/0
  7476 ;; Data sizes:     COMMON   BANK0   BANK1   BANK3   BANK2
  7477 ;;      Params:         6       0       0       0       0
  7478 ;;      Locals:         0       6       0       0       0
  7479 ;;      Temps:          0       8       0       0       0
  7480 ;;      Totals:         6      14       0       0       0
  7481 ;;Total ram usage:       20 bytes
  7482 ;; Hardware stack levels used:    1
  7483 ;; Hardware stack levels required when called:    1
  7484 ;; This function calls:
  7485 ;;		Nothing
  7486 ;; This function is called by:
  7487 ;;		__doprnt
  7488 ;; This function uses a non-reentrant model
  7489 ;;
  7490  163B                     __div_to_l_:	
  7491                           
  7492                           ; Regs used in __div_to_l_: [wreg-fsr0h+status,2+status,0]
  7493  163B  3072               	movlw	low __div_to_l_@f1
  7494  163C  0084               	movwf	4
  7495  163D  0800               	movf	0,w
  7496  163E  1283               	bcf	3,5	;RP0=0, select bank0
  7497  163F  1303               	bcf	3,6	;RP1=0, select bank0
  7498  1640  00A0               	movwf	??__div_to_l_
  7499  1641  0A84               	incf	4,f
  7500  1642  0800               	movf	0,w
  7501  1643  00A1               	movwf	??__div_to_l_+1
  7502  1644  0A84               	incf	4,f
  7503  1645  0800               	movf	0,w
  7504  1646  00A2               	movwf	??__div_to_l_+2
  7505  1647  0A84               	incf	4,f
  7506  1648  0800               	movf	0,w
  7507  1649  00A3               	movwf	??__div_to_l_+3
  7508  164A  1003               	clrc
  7509  164B  0D22               	rlf	??__div_to_l_+2,w
  7510  164C  0D23               	rlf	??__div_to_l_+3,w
  7511  164D  00AD               	movwf	__div_to_l_@exp1
  7512  164E  08AD               	movf	__div_to_l_@exp1,f
  7513  164F  1D03               	skipz
  7514  1650  2E56               	goto	l6505
  7515  1651                     l6503:	
  7516  1651  01F2               	clrf	?__div_to_l_
  7517  1652  01F3               	clrf	?__div_to_l_+1
  7518  1653  01F4               	clrf	?__div_to_l_+2
  7519  1654  01F5               	clrf	?__div_to_l_+3
  7520  1655  0008               	return
  7521  1656                     l6505:	
  7522  1656  3075               	movlw	low __div_to_l_@f2
  7523  1657  26F9  160A  118A   	fcall	PL7	;call to abstracted procedure
  7524  165A  1003               	clrc
  7525  165B  0D22               	rlf	??__div_to_l_+2,w
  7526  165C  0D23               	rlf	??__div_to_l_+3,w
  7527  165D  00AC               	movwf	__div_to_l_@cntr
  7528  165E  08AC               	movf	__div_to_l_@cntr,f
  7529  165F  1903               	btfsc	3,2
  7530  1660  2E51               	goto	l6503
  7531  1661  3072               	movlw	low __div_to_l_@f1
  7532  1662  0084               	movwf	4
  7533  1663  3080               	movlw	128
  7534  1664  0A84               	incf	4,f
  7535  1665  0A84               	incf	4,f
  7536  1666  0480               	iorwf	0,f
  7537  1667  3072               	movlw	low __div_to_l_@f1
  7538  1668  0A84               	incf	4,f
  7539  1669  0084               	movwf	4
  7540  166A  3075               	movlw	low __div_to_l_@f2
  7541  166B  0A84               	incf	4,f
  7542  166C  0A84               	incf	4,f
  7543  166D  0A84               	incf	4,f
  7544  166E  0180               	clrf	0
  7545  166F  0084               	movwf	4
  7546  1670  3080               	movlw	128
  7547  1671  0A84               	incf	4,f
  7548  1672  0A84               	incf	4,f
  7549  1673  0480               	iorwf	0,f
  7550  1674  3075               	movlw	low __div_to_l_@f2
  7551  1675  0A84               	incf	4,f
  7552  1676  0084               	movwf	4
  7553  1677  307F               	movlw	127
  7554  1678  0A84               	incf	4,f
  7555  1679  0A84               	incf	4,f
  7556  167A  0A84               	incf	4,f
  7557  167B  0180               	clrf	0
  7558  167C  01A8               	clrf	__div_to_l_@quot
  7559  167D  01A9               	clrf	__div_to_l_@quot+1
  7560  167E  01AA               	clrf	__div_to_l_@quot+2
  7561  167F  01AB               	clrf	__div_to_l_@quot+3
  7562  1680  02AD               	subwf	__div_to_l_@exp1,f
  7563  1681  30A0               	movlw	160
  7564  1682  072C               	addwf	__div_to_l_@cntr,w
  7565  1683  00A0               	movwf	??__div_to_l_
  7566  1684  02AD               	subwf	__div_to_l_@exp1,f
  7567  1685  3020               	movlw	32
  7568  1686  00AC               	movwf	__div_to_l_@cntr
  7569  1687                     l6519:	
  7570  1687  3075               	movlw	low __div_to_l_@f2
  7571  1688  1003               	clrc
  7572  1689  0DA8               	rlf	__div_to_l_@quot,f
  7573  168A  0DA9               	rlf	__div_to_l_@quot+1,f
  7574  168B  0DAA               	rlf	__div_to_l_@quot+2,f
  7575  168C  0DAB               	rlf	__div_to_l_@quot+3,f
  7576  168D  26F9  160A  118A   	fcall	PL7	;call to abstracted procedure
  7577  1690  3072               	movlw	low __div_to_l_@f1
  7578  1691  0084               	movwf	4
  7579  1692  0800               	movf	0,w
  7580  1693  00A4               	movwf	??__div_to_l_+4
  7581  1694  0A84               	incf	4,f
  7582  1695  0800               	movf	0,w
  7583  1696  00A5               	movwf	??__div_to_l_+5
  7584  1697  0A84               	incf	4,f
  7585  1698  0800               	movf	0,w
  7586  1699  00A6               	movwf	??__div_to_l_+6
  7587  169A  0A84               	incf	4,f
  7588  169B  0800               	movf	0,w
  7589  169C  00A7               	movwf	??__div_to_l_+7
  7590  169D  0823               	movf	??__div_to_l_+3,w
  7591  169E  0227               	subwf	??__div_to_l_+7,w
  7592  169F  1D03               	skipz
  7593  16A0  2EAB               	goto	u2335
  7594  16A1  0822               	movf	??__div_to_l_+2,w
  7595  16A2  0226               	subwf	??__div_to_l_+6,w
  7596  16A3  1D03               	skipz
  7597  16A4  2EAB               	goto	u2335
  7598  16A5  0821               	movf	??__div_to_l_+1,w
  7599  16A6  0225               	subwf	??__div_to_l_+5,w
  7600  16A7  1D03               	skipz
  7601  16A8  2EAB               	goto	u2335
  7602  16A9  0820               	movf	??__div_to_l_,w
  7603  16AA  0224               	subwf	??__div_to_l_+4,w
  7604  16AB                     u2335:	
  7605  16AB  1C03               	skipc
  7606  16AC  2EC7               	goto	l3661
  7607  16AD  3075               	movlw	low __div_to_l_@f2
  7608  16AE  26F9  160A  118A   	fcall	PL7	;call to abstracted procedure
  7609  16B1  3072               	movlw	low __div_to_l_@f1
  7610  16B2  0084               	movwf	4
  7611  16B3  0820               	movf	??__div_to_l_,w
  7612  16B4  0280               	subwf	0,f
  7613  16B5  0A84               	incf	4,f
  7614  16B6  0821               	movf	??__div_to_l_+1,w
  7615  16B7  1C03               	skipc
  7616  16B8  0F21               	incfsz	??__div_to_l_+1,w
  7617  16B9  0280               	subwf	0,f
  7618  16BA  0A84               	incf	4,f
  7619  16BB  0822               	movf	??__div_to_l_+2,w
  7620  16BC  1C03               	skipc
  7621  16BD  0F22               	incfsz	??__div_to_l_+2,w
  7622  16BE  0280               	subwf	0,f
  7623  16BF  0A84               	incf	4,f
  7624  16C0  0823               	movf	??__div_to_l_+3,w
  7625  16C1  1C03               	skipc
  7626  16C2  0A23               	incf	??__div_to_l_+3,w
  7627  16C3  0280               	subwf	0,f
  7628  16C4  3003               	movlw	3
  7629  16C5  0284               	subwf	4,f
  7630  16C6  1428               	bsf	__div_to_l_@quot,0
  7631  16C7                     l3661:	
  7632  16C7  3072               	movlw	low __div_to_l_@f1
  7633  16C8  0084               	movwf	4
  7634  16C9  1003               	clrc
  7635  16CA  0D80               	rlf	0,f
  7636  16CB  0A84               	incf	4,f
  7637  16CC  0D80               	rlf	0,f
  7638  16CD  0A84               	incf	4,f
  7639  16CE  0D80               	rlf	0,f
  7640  16CF  0A84               	incf	4,f
  7641  16D0  0D80               	rlf	0,f
  7642  16D1  0BAC               	decfsz	__div_to_l_@cntr,f
  7643  16D2  2E87               	goto	l6519
  7644  16D3  1FAD               	btfss	__div_to_l_@exp1,7
  7645  16D4  2EE2               	goto	l6537
  7646  16D5  082D               	movf	__div_to_l_@exp1,w
  7647  16D6  3A80               	xorlw	128
  7648  16D7  3E9F               	addlw	159
  7649  16D8  1C03               	btfss	3,0
  7650  16D9  2E51               	goto	l6503
  7651  16DA                     l6533:	
  7652  16DA  1003               	clrc
  7653  16DB  0CAB               	rrf	__div_to_l_@quot+3,f
  7654  16DC  0CAA               	rrf	__div_to_l_@quot+2,f
  7655  16DD  0CA9               	rrf	__div_to_l_@quot+1,f
  7656  16DE  0CA8               	rrf	__div_to_l_@quot,f
  7657  16DF  0FAD               	incfsz	__div_to_l_@exp1,f
  7658  16E0  2EDA               	goto	l6533
  7659  16E1  2EF0               	goto	l6543
  7660  16E2                     l6537:	
  7661  16E2  3020               	movlw	32
  7662  16E3  022D               	subwf	__div_to_l_@exp1,w
  7663  16E4  1803               	btfsc	3,0
  7664  16E5  2E51               	goto	l6503
  7665  16E6                     l3669:	
  7666  16E6  08AD               	movf	__div_to_l_@exp1,f
  7667  16E7  1903               	btfsc	3,2
  7668  16E8  2EF0               	goto	l6543
  7669  16E9  1003               	clrc
  7670  16EA  0DA8               	rlf	__div_to_l_@quot,f
  7671  16EB  0DA9               	rlf	__div_to_l_@quot+1,f
  7672  16EC  0DAA               	rlf	__div_to_l_@quot+2,f
  7673  16ED  0DAB               	rlf	__div_to_l_@quot+3,f
  7674  16EE  03AD               	decf	__div_to_l_@exp1,f
  7675  16EF  2EE6               	goto	l3669
  7676  16F0                     l6543:	
  7677  16F0  082B               	movf	__div_to_l_@quot+3,w
  7678  16F1  00F5               	movwf	?__div_to_l_+3
  7679  16F2  082A               	movf	__div_to_l_@quot+2,w
  7680  16F3  00F4               	movwf	?__div_to_l_+2
  7681  16F4  0829               	movf	__div_to_l_@quot+1,w
  7682  16F5  00F3               	movwf	?__div_to_l_+1
  7683  16F6  0828               	movf	__div_to_l_@quot,w
  7684  16F7  00F2               	movwf	?__div_to_l_
  7685  16F8  0008               	return
  7686  16F9                     __end_of__div_to_l_:	
  7687  16F9                     PL7:	
  7688  16F9  0084               	movwf	4
  7689  16FA  0800               	movf	0,w
  7690  16FB  00A0               	movwf	??__div_to_l_
  7691  16FC  0A84               	incf	4,f
  7692  16FD  0800               	movf	0,w
  7693  16FE  00A1               	movwf	??__div_to_l_+1
  7694  16FF  0A84               	incf	4,f
  7695  1700  0800               	movf	0,w
  7696  1701  00A2               	movwf	??__div_to_l_+2
  7697  1702  0A84               	incf	4,f
  7698  1703  0800               	movf	0,w
  7699  1704  00A3               	movwf	??__div_to_l_+3
  7700  1705  0008               	return
  7701                           
  7702                           	psect	text678
  7703  15C3                     __ptext678:	
  7704 ;; =============== function __div_to_l_ ends ============
  7705                           
  7706                           
  7707 ;; *************** function __tdiv_to_l_ *****************
  7708 ;; Defined at:
  7709 ;;		line 61 in file "C:\Program Files (x86)\HI-TECH Software\PICC\9.83\sources\ftdivl.c"
  7710 ;; Parameters:    Size  Location     Type
  7711 ;;  f1              3    2[COMMON] float 
  7712 ;;  f2              3    5[COMMON] float 
  7713 ;; Auto vars:     Size  Location     Type
  7714 ;;  quot            4    0[BANK0 ] unsigned long 
  7715 ;;  exp1            1    5[BANK0 ] unsigned char 
  7716 ;;  cntr            1    4[BANK0 ] unsigned char 
  7717 ;; Return value:  Size  Location     Type
  7718 ;;                  4    2[COMMON] unsigned long 
  7719 ;; Registers used:
  7720 ;;		wreg, status,2, status,0
  7721 ;; Tracked objects:
  7722 ;;		On entry : 60/20
  7723 ;;		On exit  : 60/0
  7724 ;;		Unchanged: FFF9F/0
  7725 ;; Data sizes:     COMMON   BANK0   BANK1   BANK3   BANK2
  7726 ;;      Params:         6       0       0       0       0
  7727 ;;      Locals:         0       6       0       0       0
  7728 ;;      Temps:          3       0       0       0       0
  7729 ;;      Totals:         9       6       0       0       0
  7730 ;;Total ram usage:       15 bytes
  7731 ;; Hardware stack levels used:    1
  7732 ;; Hardware stack levels required when called:    1
  7733 ;; This function calls:
  7734 ;;		Nothing
  7735 ;; This function is called by:
  7736 ;;		__doprnt
  7737 ;; This function uses a non-reentrant model
  7738 ;;
  7739  15C3                     __tdiv_to_l_:	
  7740                           
  7741                           ; Regs used in __tdiv_to_l_: [wreg+status,2+status,0]
  7742  15C3  0872               	movf	__tdiv_to_l_@f1,w
  7743  15C4  00F8               	movwf	??__tdiv_to_l_
  7744  15C5  0873               	movf	__tdiv_to_l_@f1+1,w
  7745  15C6  00F9               	movwf	??__tdiv_to_l_+1
  7746  15C7  0874               	movf	__tdiv_to_l_@f1+2,w
  7747  15C8  00FA               	movwf	??__tdiv_to_l_+2
  7748  15C9  1003               	clrc
  7749  15CA  0D79               	rlf	??__tdiv_to_l_+1,w
  7750  15CB  0D7A               	rlf	??__tdiv_to_l_+2,w
  7751  15CC  1283               	bcf	3,5	;RP0=0, select bank0
  7752  15CD  00A5               	movwf	__tdiv_to_l_@exp1
  7753  15CE  08A5               	movf	__tdiv_to_l_@exp1,f
  7754  15CF  1D03               	skipz
  7755  15D0  2DD6               	goto	l6457
  7756  15D1                     l6455:	
  7757  15D1  01F2               	clrf	?__tdiv_to_l_
  7758  15D2  01F3               	clrf	?__tdiv_to_l_+1
  7759  15D3  01F4               	clrf	?__tdiv_to_l_+2
  7760  15D4  01F5               	clrf	?__tdiv_to_l_+3
  7761  15D5  0008               	return
  7762  15D6                     l6457:	
  7763  15D6  0875               	movf	__tdiv_to_l_@f2,w
  7764  15D7  00F8               	movwf	??__tdiv_to_l_
  7765  15D8  0876               	movf	__tdiv_to_l_@f2+1,w
  7766  15D9  00F9               	movwf	??__tdiv_to_l_+1
  7767  15DA  0877               	movf	__tdiv_to_l_@f2+2,w
  7768  15DB  00FA               	movwf	??__tdiv_to_l_+2
  7769  15DC  1003               	clrc
  7770  15DD  0D79               	rlf	??__tdiv_to_l_+1,w
  7771  15DE  0D7A               	rlf	??__tdiv_to_l_+2,w
  7772  15DF  00A4               	movwf	__tdiv_to_l_@cntr
  7773  15E0  08A4               	movf	__tdiv_to_l_@cntr,f
  7774  15E1  1903               	btfsc	3,2
  7775  15E2  2DD1               	goto	l6455
  7776  15E3  307F               	movlw	127
  7777  15E4  17F3               	bsf	__tdiv_to_l_@f1+1,7
  7778  15E5  01F4               	clrf	__tdiv_to_l_@f1+2
  7779  15E6  17F6               	bsf	__tdiv_to_l_@f2+1,7
  7780  15E7  01F7               	clrf	__tdiv_to_l_@f2+2
  7781  15E8  01A0               	clrf	__tdiv_to_l_@quot
  7782  15E9  01A1               	clrf	__tdiv_to_l_@quot+1
  7783  15EA  01A2               	clrf	__tdiv_to_l_@quot+2
  7784  15EB  01A3               	clrf	__tdiv_to_l_@quot+3
  7785  15EC  02A5               	subwf	__tdiv_to_l_@exp1,f
  7786  15ED  3098               	movlw	152
  7787  15EE  0724               	addwf	__tdiv_to_l_@cntr,w
  7788  15EF  00F8               	movwf	??__tdiv_to_l_
  7789  15F0  02A5               	subwf	__tdiv_to_l_@exp1,f
  7790  15F1  3018               	movlw	24
  7791  15F2  00A4               	movwf	__tdiv_to_l_@cntr
  7792  15F3                     l6471:	
  7793  15F3  1003               	clrc
  7794  15F4  0DA0               	rlf	__tdiv_to_l_@quot,f
  7795  15F5  0DA1               	rlf	__tdiv_to_l_@quot+1,f
  7796  15F6  0DA2               	rlf	__tdiv_to_l_@quot+2,f
  7797  15F7  0DA3               	rlf	__tdiv_to_l_@quot+3,f
  7798  15F8  0877               	movf	__tdiv_to_l_@f2+2,w
  7799  15F9  0274               	subwf	__tdiv_to_l_@f1+2,w
  7800  15FA  1D03               	skipz
  7801  15FB  2E02               	goto	u2245
  7802  15FC  0876               	movf	__tdiv_to_l_@f2+1,w
  7803  15FD  0273               	subwf	__tdiv_to_l_@f1+1,w
  7804  15FE  1D03               	skipz
  7805  15FF  2E02               	goto	u2245
  7806  1600  0875               	movf	__tdiv_to_l_@f2,w
  7807  1601  0272               	subwf	__tdiv_to_l_@f1,w
  7808  1602                     u2245:	
  7809  1602  1C03               	skipc
  7810  1603  2E10               	goto	L21
  7811  1604  0875               	movf	__tdiv_to_l_@f2,w
  7812  1605  02F2               	subwf	__tdiv_to_l_@f1,f
  7813  1606  0876               	movf	__tdiv_to_l_@f2+1,w
  7814  1607  1C03               	skipc
  7815  1608  0F76               	incfsz	__tdiv_to_l_@f2+1,w
  7816  1609  02F3               	subwf	__tdiv_to_l_@f1+1,f
  7817  160A  0877               	movf	__tdiv_to_l_@f2+2,w
  7818  160B  1C03               	skipc
  7819  160C  0A77               	incf	__tdiv_to_l_@f2+2,w
  7820  160D  02F4               	subwf	__tdiv_to_l_@f1+2,f
  7821  160E  1420               	bsf	__tdiv_to_l_@quot,0
  7822  160F  1003               	clrc
  7823  1610                     L21:	
  7824  1610  0DF2               	rlf	__tdiv_to_l_@f1,f
  7825  1611  0DF3               	rlf	__tdiv_to_l_@f1+1,f
  7826  1612  0DF4               	rlf	__tdiv_to_l_@f1+2,f
  7827  1613  0BA4               	decfsz	__tdiv_to_l_@cntr,f
  7828  1614  2DF3               	goto	l6471
  7829  1615  1FA5               	btfss	__tdiv_to_l_@exp1,7
  7830  1616  2E24               	goto	l6491
  7831  1617  0825               	movf	__tdiv_to_l_@exp1,w
  7832  1618  3A80               	xorlw	128
  7833  1619  3E97               	addlw	151
  7834  161A  1C03               	btfss	3,0
  7835  161B  2DD1               	goto	l6455
  7836  161C                     l6487:	
  7837  161C  1003               	clrc
  7838  161D  0CA3               	rrf	__tdiv_to_l_@quot+3,f
  7839  161E  0CA2               	rrf	__tdiv_to_l_@quot+2,f
  7840  161F  0CA1               	rrf	__tdiv_to_l_@quot+1,f
  7841  1620  0CA0               	rrf	__tdiv_to_l_@quot,f
  7842  1621  0FA5               	incfsz	__tdiv_to_l_@exp1,f
  7843  1622  2E1C               	goto	l6487
  7844  1623  2E32               	goto	l6497
  7845  1624                     l6491:	
  7846  1624  3018               	movlw	24
  7847  1625  0225               	subwf	__tdiv_to_l_@exp1,w
  7848  1626  1803               	btfsc	3,0
  7849  1627  2DD1               	goto	l6455
  7850  1628                     l3626:	
  7851  1628  08A5               	movf	__tdiv_to_l_@exp1,f
  7852  1629  1903               	btfsc	3,2
  7853  162A  2E32               	goto	l6497
  7854  162B  1003               	clrc
  7855  162C  0DA0               	rlf	__tdiv_to_l_@quot,f
  7856  162D  0DA1               	rlf	__tdiv_to_l_@quot+1,f
  7857  162E  0DA2               	rlf	__tdiv_to_l_@quot+2,f
  7858  162F  0DA3               	rlf	__tdiv_to_l_@quot+3,f
  7859  1630  03A5               	decf	__tdiv_to_l_@exp1,f
  7860  1631  2E28               	goto	l3626
  7861  1632                     l6497:	
  7862  1632  0823               	movf	__tdiv_to_l_@quot+3,w
  7863  1633  00F5               	movwf	?__tdiv_to_l_+3
  7864  1634  0822               	movf	__tdiv_to_l_@quot+2,w
  7865  1635  00F4               	movwf	?__tdiv_to_l_+2
  7866  1636  0821               	movf	__tdiv_to_l_@quot+1,w
  7867  1637  00F3               	movwf	?__tdiv_to_l_+1
  7868  1638  0820               	movf	__tdiv_to_l_@quot,w
  7869  1639  00F2               	movwf	?__tdiv_to_l_
  7870  163A  0008               	return
  7871  163B                     __end_of__tdiv_to_l_:	
  7872                           
  7873                           	psect	text682
  7874  14DE                     __ptext682:	
  7875 ;; =============== function _send_char ends ============
  7876                           
  7877                           
  7878 ;; *************** function _abs *****************
  7879 ;; Defined at:
  7880 ;;		line 5 in file "C:\Program Files (x86)\HI-TECH Software\PICC\9.83\sources\abs.c"
  7881 ;; Parameters:    Size  Location     Type
  7882 ;;  a               2    2[COMMON] int 
  7883 ;; Auto vars:     Size  Location     Type
  7884 ;;		None
  7885 ;; Return value:  Size  Location     Type
  7886 ;;                  2    2[COMMON] int 
  7887 ;; Registers used:
  7888 ;;		wreg, status,2, status,0
  7889 ;; Tracked objects:
  7890 ;;		On entry : 60/20
  7891 ;;		On exit  : 60/20
  7892 ;;		Unchanged: FFF9F/0
  7893 ;; Data sizes:     COMMON   BANK0   BANK1   BANK3   BANK2
  7894 ;;      Params:         2       0       0       0       0
  7895 ;;      Locals:         0       0       0       0       0
  7896 ;;      Temps:          2       0       0       0       0
  7897 ;;      Totals:         4       0       0       0       0
  7898 ;;Total ram usage:        4 bytes
  7899 ;; Hardware stack levels used:    1
  7900 ;; Hardware stack levels required when called:    1
  7901 ;; This function calls:
  7902 ;;		Nothing
  7903 ;; This function is called by:
  7904 ;;		_main
  7905 ;; This function uses a non-reentrant model
  7906 ;;
  7907  14DE                     _abs:	
  7908                           
  7909                           ; Regs used in _abs: [wreg+status,2+status,0]
  7910  14DE  1FF3               	btfss	abs@a+1,7
  7911  14DF  0008               	return
  7912  14E0  0972               	comf	abs@a,w
  7913  14E1  00F4               	movwf	??_abs
  7914  14E2  0973               	comf	abs@a+1,w
  7915  14E3  00F5               	movwf	??_abs+1
  7916  14E4  0AF4               	incf	??_abs,f
  7917  14E5  1903               	skipnz
  7918  14E6  0AF5               	incf	??_abs+1,f
  7919  14E7  0874               	movf	??_abs,w
  7920  14E8  00F2               	movwf	?_abs
  7921  14E9  0875               	movf	??_abs+1,w
  7922  14EA  00F3               	movwf	?_abs+1
  7923  14EB  0008               	return
  7924  14EC                     __end_of_abs:	
  7925                           
  7926                           	psect	text683
  7927  152D                     __ptext683:	
  7928 ;; =============== function _abs ends ============
  7929                           
  7930                           
  7931 ;; *************** function _rx *****************
  7932 ;; Defined at:
  7933 ;;		line 107 in file "D:\TTVXL\Project TTVXL\BT n Thi 03\BT n Thi 03.c"
  7934 ;; Parameters:    Size  Location     Type
  7935 ;;		None
  7936 ;; Auto vars:     Size  Location     Type
  7937 ;;		None
  7938 ;; Return value:  Size  Location     Type
  7939 ;;		None               void
  7940 ;; Registers used:
  7941 ;;		wreg
  7942 ;; Tracked objects:
  7943 ;;		On entry : 60/0
  7944 ;;		On exit  : 60/0
  7945 ;;		Unchanged: FFF9F/0
  7946 ;; Data sizes:     COMMON   BANK0   BANK1   BANK3   BANK2
  7947 ;;      Params:         0       0       0       0       0
  7948 ;;      Locals:         0       0       0       0       0
  7949 ;;      Temps:          0       0       0       0       0
  7950 ;;      Totals:         0       0       0       0       0
  7951 ;;Total ram usage:        0 bytes
  7952 ;; Hardware stack levels used:    1
  7953 ;; Hardware stack levels required when called:    1
  7954 ;; This function calls:
  7955 ;;		Nothing
  7956 ;; This function is called by:
  7957 ;;		_main
  7958 ;; This function uses a non-reentrant model
  7959 ;;
  7960  152D                     _rx:	
  7961                           
  7962                           ;BT n Thi 03.c: 108: SYNC = 0; BRGH = 1; BRG16 = 1;
  7963                           
  7964                           ; Regs used in _rx: [wreg]
  7965  152D  1683               	bsf	3,5	;RP0=1, select bank1
  7966  152E  1218               	bcf	24,4
  7967  152F  1518               	bsf	24,2
  7968  1530  1703               	bsf	3,6	;RP1=1, select bank3
  7969  1531  3002               	movlw	2
  7970  1532  1587               	bsf	7,3
  7971                           
  7972                           ;BT n Thi 03.c: 109: SPBRGH = 0x02;
  7973  1533  1303               	bcf	3,6	;RP1=0, select bank1
  7974  1534  009A               	movwf	26	;volatile
  7975                           
  7976                           ;BT n Thi 03.c: 110: SPBRG = 0x08;
  7977  1535  3008               	movlw	8
  7978  1536  0099               	movwf	25	;volatile
  7979                           
  7980                           ;BT n Thi 03.c: 111: CREN = 1; RX9 = 0; SPEN = 1;
  7981  1537  1283               	bcf	3,5	;RP0=0, select bank0
  7982  1538  1618               	bsf	24,4
  7983  1539  1318               	bcf	24,6
  7984  153A  1798               	bsf	24,7
  7985                           
  7986                           ;BT n Thi 03.c: 112: RCIE=1; RCIF=0; PEIE=1; GIE=1;
  7987  153B  1683               	bsf	3,5	;RP0=1, select bank1
  7988  153C  168C               	bsf	12,5
  7989  153D  1283               	bcf	3,5	;RP0=0, select bank0
  7990  153E  128C               	bcf	12,5
  7991  153F  170B               	bsf	11,6
  7992  1540  178B               	bsf	11,7
  7993  1541  0008               	return
  7994  1542                     __end_of_rx:	
  7995                           
  7996                           	psect	text684
  7997  14FA                     __ptext684:	
  7998 ;; =============== function _rx ends ============
  7999                           
  8000                           
  8001 ;; *************** function _tx *****************
  8002 ;; Defined at:
  8003 ;;		line 100 in file "D:\TTVXL\Project TTVXL\BT n Thi 03\BT n Thi 03.c"
  8004 ;; Parameters:    Size  Location     Type
  8005 ;;		None
  8006 ;; Auto vars:     Size  Location     Type
  8007 ;;		None
  8008 ;; Return value:  Size  Location     Type
  8009 ;;		None               void
  8010 ;; Registers used:
  8011 ;;		wreg
  8012 ;; Tracked objects:
  8013 ;;		On entry : 60/0
  8014 ;;		On exit  : 60/0
  8015 ;;		Unchanged: FFF9F/0
  8016 ;; Data sizes:     COMMON   BANK0   BANK1   BANK3   BANK2
  8017 ;;      Params:         0       0       0       0       0
  8018 ;;      Locals:         0       0       0       0       0
  8019 ;;      Temps:          0       0       0       0       0
  8020 ;;      Totals:         0       0       0       0       0
  8021 ;;Total ram usage:        0 bytes
  8022 ;; Hardware stack levels used:    1
  8023 ;; Hardware stack levels required when called:    1
  8024 ;; This function calls:
  8025 ;;		Nothing
  8026 ;; This function is called by:
  8027 ;;		_main
  8028 ;; This function uses a non-reentrant model
  8029 ;;
  8030  14FA                     _tx:	
  8031                           
  8032                           ;BT n Thi 03.c: 101: SYNC = 0; BRGH = 1; BRG16 = 1;
  8033                           
  8034                           ; Regs used in _tx: [wreg]
  8035  14FA  1683               	bsf	3,5	;RP0=1, select bank1
  8036  14FB  1218               	bcf	24,4
  8037  14FC  1518               	bsf	24,2
  8038  14FD  1703               	bsf	3,6	;RP1=1, select bank3
  8039  14FE  3002               	movlw	2
  8040  14FF  1587               	bsf	7,3
  8041                           
  8042                           ;BT n Thi 03.c: 102: SPBRGH = 0x02;
  8043  1500  1303               	bcf	3,6	;RP1=0, select bank1
  8044  1501  009A               	movwf	26	;volatile
  8045                           
  8046                           ;BT n Thi 03.c: 103: SPBRG = 0x08;
  8047  1502  3008               	movlw	8
  8048  1503  0099               	movwf	25	;volatile
  8049                           
  8050                           ;BT n Thi 03.c: 104: TXEN = 1; TX9 = 0; SPEN = 1;
  8051  1504  1698               	bsf	24,5
  8052  1505  1318               	bcf	24,6
  8053  1506  1283               	bcf	3,5	;RP0=0, select bank0
  8054  1507  1798               	bsf	24,7
  8055  1508  0008               	return
  8056  1509                     __end_of_tx:	
  8057                           
  8058                           	psect	text685
  8059  1542                     __ptext685:	
  8060 ;; =============== function _tx ends ============
  8061                           
  8062                           
  8063 ;; *************** function _ngat *****************
  8064 ;; Defined at:
  8065 ;;		line 74 in file "D:\TTVXL\Project TTVXL\BT n Thi 03\BT n Thi 03.c"
  8066 ;; Parameters:    Size  Location     Type
  8067 ;;		None
  8068 ;; Auto vars:     Size  Location     Type
  8069 ;;		None
  8070 ;; Return value:  Size  Location     Type
  8071 ;;		None               void
  8072 ;; Registers used:
  8073 ;;		wreg
  8074 ;; Tracked objects:
  8075 ;;		On entry : 0/0
  8076 ;;		On exit  : 60/0
  8077 ;;		Unchanged: FFF9F/0
  8078 ;; Data sizes:     COMMON   BANK0   BANK1   BANK3   BANK2
  8079 ;;      Params:         0       0       0       0       0
  8080 ;;      Locals:         0       0       0       0       0
  8081 ;;      Temps:          2       0       0       0       0
  8082 ;;      Totals:         2       0       0       0       0
  8083 ;;Total ram usage:        2 bytes
  8084 ;; Hardware stack levels used:    1
  8085 ;; This function calls:
  8086 ;;		Nothing
  8087 ;; This function is called by:
  8088 ;;		Interrupt level 1
  8089 ;; This function uses a non-reentrant model
  8090 ;;
  8091  1542                     _ngat:	
  8092                           
  8093                           ;BT n Thi 03.c: 75: if(CCP1IF)
  8094  1542  1283               	bcf	3,5	;RP0=0, select bank0
  8095  1543  1303               	bcf	3,6	;RP1=0, select bank0
  8096  1544  1D0C               	btfss	12,2
  8097  1545  2D4D               	goto	i1l6417
  8098                           
  8099                           ;BT n Thi 03.c: 76: {
  8100                           ;BT n Thi 03.c: 77: count1=CCPR1;
  8101  1546  0816               	movf	22,w	;volatile
  8102  1547  1683               	bsf	3,5	;RP0=1, select bank1
  8103  1548  00C6               	movwf	(_count1+1)^(0+128)
  8104  1549  1283               	bcf	3,5	;RP0=0, select bank0
  8105  154A  0815               	movf	21,w	;volatile
  8106  154B  1683               	bsf	3,5	;RP0=1, select bank1
  8107  154C  00C5               	movwf	_count1^(0+128)
  8108  154D                     i1l6417:	
  8109                           
  8110                           ;BT n Thi 03.c: 78: }
  8111                           ;BT n Thi 03.c: 79: if(CCP2IF)
  8112  154D  1283               	bcf	3,5	;RP0=0, select bank0
  8113  154E  1C0D               	btfss	13,0
  8114  154F  2D57               	goto	i1l6421
  8115                           
  8116                           ;BT n Thi 03.c: 80: {
  8117                           ;BT n Thi 03.c: 81: count2=CCPR2;
  8118  1550  081C               	movf	28,w	;volatile
  8119  1551  1683               	bsf	3,5	;RP0=1, select bank1
  8120  1552  00C8               	movwf	(_count2+1)^(0+128)
  8121  1553  1283               	bcf	3,5	;RP0=0, select bank0
  8122  1554  081B               	movf	27,w	;volatile
  8123  1555  1683               	bsf	3,5	;RP0=1, select bank1
  8124  1556  00C7               	movwf	_count2^(0+128)
  8125  1557                     i1l6421:	
  8126                           
  8127                           ;BT n Thi 03.c: 82: }
  8128                           ;BT n Thi 03.c: 83: CCP1IF = 0;
  8129  1557  1283               	bcf	3,5	;RP0=0, select bank0
  8130  1558  110C               	bcf	12,2
  8131                           
  8132                           ;BT n Thi 03.c: 84: CCP2IF = 0;
  8133  1559  100D               	bcf	13,0
  8134  155A  0871               	movf	??_ngat+1,w
  8135  155B  008A               	movwf	10
  8136  155C  0E70               	swapf	??_ngat^(0+-128),w
  8137  155D  0083               	movwf	3
  8138  155E  0EFE               	swapf	126,f
  8139  155F  0E7E               	swapf	126,w
  8140  1560  0009               	retfie
  8141  1561                     __end_of_ngat:	
  8142                           
  8143 ;; =============== function _ngat ends ============
  8144  0002                     
  8145                           	psect	intentry
  8146  0004                     __pintentry:	
  8147                           ; Regs used in _ngat: [wreg]
  8148                           
  8149  0004                     interrupt_function:	
  8150  007E                     saved_w	set	btemp
  8151  0004  00FE               	movwf	btemp
  8152  0005  0E03               	swapf	3,w
  8153  0006  00F0               	movwf	??_ngat
  8154  0007  080A               	movf	10,w
  8155  0008  00F1               	movwf	??_ngat+1
  8156  0009  160A  118A  2D42   	ljmp	_ngat
  8157                           
  8158                           	psect	functab
  8159  0100                     __pfunctab:	
  8160  0100                     fptable:	
  8161  0100  00FF               	movwf	(btemp+1)& (0+127)
  8162  0101  3001               	movlw	high fptable
  8163  0102  008A               	movwf	10
  8164  0103  087F               	movf	(btemp+1)& (0+127),w
  8165  0104  0782               	addwf	2,f
  8166  0105                     fpbase:	
  8167  0105  2905               	goto	fpbase	; Call via a null pointer and you will get stuck here.
  8168  0106                     fp__putch:	
  8169  0106  120A  118A  2C7F   	ljmp	_putch
  8170  007E                     btemp	set	126	;btemp
  8171  007E                     wtemp0	set	126


HI-TECH Software PICC Macro Assembler V9.83 build 10920 
Symbol Table                                                                                   Sat Dec 24 02:14:08 2022

         ___altoft@exp 007A                      _d 00C2                      pc 0002         ___bmul@product 0020  
        ___altoft@sign 007B           ___awdiv@sign 0021                     _rx 152D                     _tx 14FA  
                   fsr 0004    ___wmul@multiplicand 0074           ___ftadd@exp1 004B           ___ftadd@exp2 004A  
        ?_lcd_put_byte 0072           ___ftadd@sign 0049                    ?_rx 0070                    ?_tx 0070  
                  _GIE 005F                    _RD1 0041                    _RD2 0042                    _RE1 0049  
                  _RD3 0043                    _RD4 0044                    _RD5 0045                    _RD6 0046  
                  _RD7 0047                    _RX9 00C6                    _TX9 04C6                    _abs 14DE  
                  fsr0 0004                    indf 0000           ___awmod@sign 0077            main@data_tx 00B8  
                 ??_rx 0072                   ??_tx 0072                   ?_abs 0072                   l1080 0000  
                 l1074 0000                   l1092 0000                   l1077 1528                   l1086 0000  
                 l2151 0000                   l1089 0000                   l2243 08C7                   l2148 0000  
                 l2228 083C                   l2182 0000                   l2159 0000                   l3401 0764  
                 l3410 0000                   l3404 0000                   l2348 0000                   l3342 0000  
                 l3432 00A1                   l3337 0000                   l3521 0000                   l3362 0000  
                 l3531 0000                   l3603 0000                   l3611 0000                   l3355 0000  
                 l3374 0000                   l3550 0000                   l3454 0000                   l3535 0000  
                 l3368 0000                   l7001 0000                   l3626 1628                   l3619 0000  
                 l7011 03A8                   l7003 0000                   l3661 16C7                   l7013 0000  
                 l7005 0000                   l7101 0489                   l3662 0000                   l7023 03BE  
                 l7015 0000                   l7007 039E                   l7103 048A                   l3488 159B  
                 l6401 0000                   l7025 0000                   l7017 0000                   l7033 0000  
                 l7105 0000                   l7113 0000                   l6403 0000                   l7027 0000  
                 l7019 03B4                   l7043 0139                   l7035 0000                   l7107 0493  
                 l7123 0000                   l7131 0000                   l7211 0000                   l6405 0000  
                 l3669 16E6                   l6501 0000                   l3589 0000                   l7029 0000  
                 l7045 0144                   l7037 0000                   l7053 010B                   l7061 0000  
                 l7109 0000                   l7301 09F5                   l7221 085B                   l7205 082D  
                 l6407 0000                   l6431 0000                   l6511 0000                   l6503 1651  
                 l7055 0116                   l7071 0535                   l7063 0000                   l7127 0732  
                 l7119 06DE                   l7143 01C6                   l7135 0000                   l7231 0000  
                 l7223 0000                   l7215 0840                   l7207 0000                   l6425 0000  
                 l6441 0000                   l6521 0000                   l6513 0000                   l6505 1656  
                 l7049 0000                   l7065 0000                   l7161 028C                   l7153 0222  
                 l7321 0000                   l7313 0A31                   l7233 0000                   l7241 08C2  
                 l7225 0000                   l7217 084C                   l7209 0837                   l6443 0000  
                 l6515 0000                   l6611 0000                   l6603 0000                   l7091 0571  
                 l7083 0559                   l7075 0541                   l7067 0000                   l7059 0000  
                 l7171 0000                   l7411 0BD1                   l7323 0000                   l7251 08E1  
                 l7243 0000                   l7227 0884                   l6381 0000                   l6437 0647  
                 l6429 0000                   l6461 0000                   l6453 0000                   l6533 16DA  
                 l6525 0000                   l6517 0000                   l6605 0000                   l6621 0000  
                 l6701 02FC                   l7069 0000                   l7149 020B                   l7173 0000  
                 l7181 04A2                   l7501 0DDB                   l7413 0BF6                   l7405 0BEA  
                 l7341 0000                   l7325 0A61                   l7309 0A20                   l7245 08C9  
                 l7237 0000                   l6383 0000                   l6391 0000                   l6471 15F3  
                 l6463 0000                   l6455 15D1                   l6543 16F0                   l6535 0000  
                 l6527 0000                   l6519 1687                   l6615 078B                   l6607 0777  
                 l6631 03F9                   l6623 0000                   l6711 030A                   l6703 0000  
                 l7095 057D                   l7087 0565                   l7079 054D                   l7167 02D1  
                 l7183 04A9                   l7511 0DF3                   l7503 0DDE                   l7423 0C27  
                 l7407 0000                   l7343 0ADA                   l7335 0AA6                   l7327 0000  
                 l7319 0000                   l7271 0000                   l7263 0000                   l7239 0895  
                 l6385 0000                   l6393 0000                   l6449 0FF6                   l6481 0000  
                 l6473 0000                   l6465 0000                   l6457 15D6                   l6537 16E2  
                 l6617 0000                   l6609 0000                   l6633 03FE                   l6625 03F0  
                 l6721 0000                   l6713 0000                   l6801 07E5                   l7097 0000  
                 l7185 04AD                   l7193 04C0                   l7177 0000                   l7521 0E10  
                 l7513 0000                   l7425 0000                   l7417 0C05                   l7409 0BF0  
                 l7361 0B1C                   l7353 0B0B                   l7345 0000                   l7329 0AA4  
                 l7281 0000                   l7273 0000                   l7265 0923                   l7257 08F1  
                 l7249 08CC                   l7601 0000                   l6387 0000                   l6379 0000  
                 l6395 0000                   l6491 1624                   l6467 0000                   l6555 0000  
                 l6547 0000                   l6571 0000                   l6563 0000                   l6643 0000  
                 l6635 0408                   l6651 156B                   l6723 0321                   l6731 0000  
                 l6811 0000                   l7099 0000                   l7179 049C                   l7195 0000  
                 l7523 0000                   l7515 0DFC                   l7451 0CF1                   l7435 0000  
                 l7419 0000                   l7427 0C30                   l7363 0000                   l7275 0000  
                 l7267 0000                   l7259 0000                   l7611 0000                   l7603 0000  
                 l6397 0000                   l6389 0000                   l6477 0000                   l6469 0000  
                 l6557 0000                   l6549 03DC                   l6573 0000                   l6565 00E9  
                 l6581 0000                   l6645 0000                   l6637 040D                   l6629 03F4  
                 l6661 0000                   l6653 1570                   l6725 0000                   l6717 0000  
                 l6813 0338                   l6805 0000                   l6901 0000                   l7189 04B9  
                 l7533 0E2F                   l7525 0E16                   l7461 0D33                   l7445 0D04  
                 l7437 0CB2                   l7429 0C54                   l7373 0B41                   l7365 0B22  
                 l7357 0B0E                   l7349 0B03                   l7293 09B1                   l7285 0978  
                 l7277 0000                   l7453 0D10                   l7197 0000                   l7621 0000  
                 l7613 0000                   l7605 0000                   l6399 0000                   l6487 161C  
                 l6583 0000                   l6647 0000                   l6639 0412                   l6671 0000  
                 l6663 0000                   l6655 0000                   l6727 0329                   l6751 0000  
                 l6831 0000                   l6807 0000                   l6911 004F                   l6903 0000  
                 l7551 0000                   l7535 0000                   l7527 0E1C                   l7455 0000  
                 l7447 0000                   l7391 0B6F                   l7375 0000                   l7367 0B27  
                 l7287 0000                   l7279 0000                   l7631 0000                   l7623 0000  
                 l7615 0000                   l7607 0000                   l6497 1632                   l6489 0000  
                 l6569 00F1                   l6593 0000                   l6585 075E                   l6681 0000  
                 l6673 1597                   l6657 0000                   l6649 0000                   l6745 0000  
                 l6825 034B                   l6833 035E                   l6817 033F                   l6841 0000  
                 l6913 0000                   l7545 0E51                   l7537 0E35                   l7529 0E20  
                 l7473 0000                   l7449 0D0A                   l7377 0B47                   l7369 0B33  
                 l7289 0000                   l7297 09C1                   l7561 080B                   l7641 0000  
                 l7633 1738                   l7625 0000                   l7617 0000                   l7609 0000  
                 l6579 0000                   l6683 15B3                   l6659 0000                   l6739 0F8D  
                 l6747 0FB2                   l6771 0000                   l6763 0FCD                   l6835 0000  
                 l6851 0000                   l6931 0000                   l6907 0048                   l7555 0EA8  
                 l7539 0E3E                   l7483 0D95                   l7475 0D69                   l7467 0D35  
                 l7387 0B6B                   l7379 0B4C                   l7563 0EAE                   l7571 0000  
                 l7643 0000                   l7635 0000                   l7627 0000                   l7619 0000  
                 l6597 0000                   l6589 0000                   l6669 158F                   l6693 0000  
                 l6781 0000                   l6837 0366                   l6845 0000                   l6861 0000  
                 l6853 0000                   l6941 0089                   l6925 0000                   l6917 005E  
                 l7573 0000                   l7581 0000                   l7645 0000                   l7637 0000  
                 l7629 0000                   l6599 0771                   l6679 15A5                   l6695 02F3  
                 l6687 0000                   l6767 0FDC                   l6759 0000                   l6791 0000  
                 l6847 151A                   l6871 0000                   l6863 05A9                   l6943 0000  
                 l6935 007B                   l6927 0000                   l6919 0000                   l7559 0E58  
                 l7495 0DBC                   l7479 0D7D                   l7399 0BCD                   l7567 0000  
                 l7583 0000                   l7639 0000                   l7591 0000                   l6689 0000  
                 l6769 0000                   l6881 0000                   l6873 0000                   l6865 05B6  
                 l6857 0000                   l6849 0000                   l6961 00B7                   l6953 0000  
                 l6937 0080                   l6929 006C                   l7497 0DBF                   l7489 0DA2  
                 l7569 0000                   l7585 0000                   l7577 0000                   l7593 0000  
                 l6699 0000                   l6795 0000                   l6779 0000                   l6883 0000  
                 l6875 05E4                   l6867 05C1                   l6859 0000                   l6891 0000  
                 l6971 0000                   l6963 0000                   l6955 00AC                   l6947 0098  
                 l6939 0085                   l7579 0000                   l7595 0000                   l6789 07BA  
                 l6877 05EF                   l6869 0000                   l6893 0000                   l6885 0000  
                 l6973 00D3                   l6965 0000                   l6949 009D                   l7597 0000  
                 l7589 0000                   l6799 0000                   l6879 05FC                   l6895 0000  
                 l6887 0000                   l6959 0000                   l6991 0000                   l6983 037C  
                 l7599 0000                   l6889 0000                   l6969 0000                   l6993 0000  
                 l6977 0000                   l6899 0000                   l6995 0000                   l6997 0000  
                 l6989 038D                   l6999 0000                   STR_1 107C                   STR_2 1087  
                 STR_3 1090                   _BRGH 04C2                   _CREN 00C4                   u3000 05CB  
                 u3020 05E2                   u3014 05CD                   u3040 05ED                   u3060 05FA  
                 u2245 1602                   u2335 16AB                   u3080 0605                   u4115 0DB2  
                 u4125 0DCD                   u4045 0D62                   u3094 0607                   u2705 0313  
                 u4065 0D77                   u4307 04EE                   u4075 0D8D                   u3700 0000  
                 u4317 0501                   u2590 0000                   u4407 0598                   u4327 0514  
                 u4417 05CF                   u4337 0521                   u3705 0939                   u2595 1574  
                 u2755 0F9B                   u2835 07CD                   u4427 05D5                   u4347 052E  
                 _PEIE 005E                   u2940 05A7                   u4437 0609                   u4357 061F  
                 u3805 0AD3                   u4277 173E                   u4447 060F                   u4367 0625  
                 u4287 174C                   u2960 05B4                   u4377 062F                   u4297 04DB  
                 u3745 09CA                   u4387 0635                   u3755 09FF                   _RCIE 0465  
                 u2980 05BF                   _RCIF 0065                   u4397 0592                   u2895 0351  
                 u3945 0BDA                   u3865 0B30                   u3785 0A1E                   u3955 0C00  
                 u3885 0B55                   _SPEN 00C7                   _TXEN 04C5                   _TXIF 0064  
                 _SYNC 04C4                   abs@a 0072                   _main 1706                   _ngat 1542  
         ___ftpack@arg 0072           ___ftpack@exp 0075           lcd_busy@busy 0073                   btemp 007E  
                 _xung 00C9                   start 000C      ___bmul@multiplier 0021           ___ftmul@cntr 003E  
         ___ftmul@sign 003F           ___fttol@exp1 0030                  ??_abs 0074           ___fttol@lval 002C  
       ??_lcd_put_byte 0073                  ?_main 0070                  ?_ngat 0070        __end_of___awdiv 032E  
      __end_of___lbdiv 0773        __end_of___ftadd 00E7                  _CCPR1 0015                  _CCPR2 001B  
                _BRG16 0C3B        __end_of___awmod 036B        __end_of___lbmod 078F        __end_of___ftneg 1000  
                _ANSEL 0188        __end_of___lldiv 07EE        __end_of___ftmul 03DA        ___awdiv@divisor 0078  
      __end_of___llmod 0FBB        __end_of___ftsub 0025        __end_of___fttol 15BC        ___awdiv@counter 0020  
                _TMR1H 000F                  _TMR1L 000E                  _SPBRG 0099        __end_of__doprnt 0EB2  
                _TXREG 0019           ___lltoft@exp 007A                  _scale 0156        __end_of_isdigit 0FF8  
        ___ftpack@sign 0076                  _putch 047F                  fpbase 0105        __end_of_isprint 0649  
                pclath 000A                  status 0003                  wtemp0 007E        __end_of_sprintf 0800  
      ___lbdiv@divisor 0077        ___lbdiv@counter 0079           __end_of_main 1800           __end_of_ngat 1561  
        lcd_gotoxy@col 0078          lcd_gotoxy@row 0077                 ??_main 0065          ___fttol@sign1 002B  
               ??_ngat 0070   __size_of__tdiv_to_l_ 0078                 _CCP1IE 0462                 _CCP1IF 0062  
               _CCP2IE 0468                 _CCP2IF 0068       __end_of___altoft 0156       ___llmod@dividend 0029  
               ?_scale 0040       ___awdiv@dividend 007A                 ?_putch 002D       __end_of___ftpack 0426  
               _ANSELH 0189       __end_of___lltoft 0127                 i1l1071 0000                 _T1SYNC 0082  
               i1l6421 1557                 i1l6413 0000                 i1l6423 0000                 i1l6417 154D  
         ?_send_string 0070                 _TMR1GE 0086                 _TMR1CS 0081                 _SPBRGH 009A  
               _TMR1ON 0080                 _TRISC1 0439                 _TRISC2 043A                 _TRISD1 0441  
               _TRISD2 0442                 _TRISE1 0449                 _TRISD3 0443                 _TRISD4 0444  
               _TRISD5 0445                 _TRISD6 0446                 _TRISD7 0447           __doprnt$3208 00A0  
     __end_of_lcd_busy 063B       __end_of_lcd_init 0584       __end_of_lcd_putc 04C9                 ___bmul 03DA  
               ___ftge 0FBE                 ___wmul 00E7              ??___awdiv 007C              ??___lbdiv 0078  
            ??___ftadd 0046              ??___awmod 0076              ??___lbmod 0073              ??___ftneg 0075  
            ??___lldiv 007A              ??___ftmul 0037              ??___llmod 007A              ??___ftsub 007C  
            ??___fttol 0028                 _count1 00C5                 _count2 00C7              ??__doprnt 0058  
               _fround 0653       ___awdiv@quotient 0022        ___awmod@divisor 0072           __doprnt@_val 00A7  
         __doprnt@flag 00AB        ___awmod@counter 0076                 _printf 14EC           __doprnt@fval 00B1  
         __doprnt@prec 00B4          lcd_put_byte@b 0072  ___ftmul@f3_as_product 003B                 fptable 0100  
               fptotal 0002              ??_isdigit 0072                 saved_w 007E              ??_isprint 0072  
               putch@c 002D              ??_sprintf 007C       ___lbdiv@dividend 0078        ___lbmod@divisor 0072  
           ___altoft@c 0020        ___lbmod@counter 0075   __end_of_lcd_put_byte 0614             ___ftadd@f1 0040  
           ___ftadd@f2 0043             ___ftge@ff1 0072             ___ftge@ff2 0075             ___ftneg@f1 0072  
  ___bmul@multiplicand 007B             ___ftmul@f1 0031             ___ftmul@f2 0034             ___ftsub@f1 004F  
           ___ftsub@f2 004C             ___fttol@f1 0024         __pcstackCOMMON 0070             ___lltoft@c 0020  
        __end_of_scale 02E8          __end_of_putch 0482       ___lbdiv@quotient 007A             __end_of_rx 1542  
           __end_of_tx 1509             __div_to_l_ 163B      lcd_gotoxy@address 0079             __doprnt@ap 0057  
           __doprnt@pb 00B7        __div_to_l_@exp1 002D        __div_to_l_@cntr 002C                ??_scale 0043  
      __div_to_l_@quot 0028                ??_putch 007B             __pbssBANK1 00C2          __div_to_l_@f1 0072  
        __div_to_l_@f2 0075             __pmaintext 1706                ?___bmul 007B                ?___ftge 0072  
              ?___wmul 0072             __pintentry 0004     __size_of_send_char 0006                _CCP1CON 0017  
              _CCP2CON 001D              ?___altoft 0020                ?_fround 004C              ?___ftpack 0072  
              ?_printf 005D              ?___lltoft 0020                _T1CKPS0 0084                _T1CKPS1 0085  
           _lcd_gotoxy 0482              ?_lcd_busy 0070              ?_lcd_init 0070              ?_lcd_putc 0070  
 __size_of_send_string 000E             _scale$4205 0047        __size_of___bmul 000E        __size_of___ftge 002C  
              ___awdiv 02E8                ___lbdiv 0758                ___ftadd 0025                ___awmod 032E  
              ___lbmod 0773                ___ftneg 0FF8                ___lldiv 07A5        __size_of___wmul 0019  
              ___ftmul 036B                ___llmod 0F7D                ___ftsub 000F                ___fttol 1561  
           ??___altoft 007A                __doprnt 0809             ??___ftpack 0077        __size_of_fround 0105  
           ??___lltoft 007A        __size_of_printf 000E            ?__div_to_l_ 0072                _dpowers 1054  
         __size_of_abs 000E                _isdigit 0FEA       ___awmod@dividend 0074                _isprint 063B  
        __doprnt@integ 00A4  __size_of_lcd_put_byte 0090                _sprintf 07EE          __doprnt@width 00AF  
           ??_lcd_busy 0072             ??_lcd_init 0077             ??_lcd_putc 007A   end_of_initialization 1515  
       lcd_put_byte@rs 0075      __end_of_send_char 152D        ___lldiv@divisor 0072        ___lldiv@counter 0024  
              printf@f 0061         __tdiv_to_l_@f1 0072         __tdiv_to_l_@f2 0075          send_char@data 0072  
        ??__tdiv_to_l_ 0078           _lcd_put_byte 0584       ___lbmod@dividend 0074            ?_lcd_gotoxy 0077  
          ___lbmod@rem 0076    __size_of__div_to_l_ 00BE            ___ftmul@exp 003A         __end_of___bmul 03E8  
       __end_of___ftge 0FEA         __end_of___wmul 0100         __end_of_fround 0758         __end_of_printf 14FA  
  start_initialization 1509    __end_of__tdiv_to_l_ 163B            __end_of_abs 14EC        ___llmod@divisor 0025  
      ___llmod@counter 007A               ??___bmul 007C               ??___ftge 0078    __size_of_lcd_gotoxy 0018  
             ??___wmul 0076            __doprnt@exp 00AD               ??_fround 007C               ??_printf 007C  
    __size_of___altoft 002F             fround@prec 0055      __size_of___ftpack 003E      __size_of___lltoft 001E  
        __pcstackBANK0 0020          __pcstackBANK1 00A0           _isdigit$3718 0072      __size_of_lcd_busy 0027  
    __size_of_lcd_init 00BB              __doprnt@c 00B6              __doprnt@f 0056      __size_of_lcd_putc 002F  
            __pfunctab 0100               ?___awdiv 0078               ?___lbdiv 0077               ?___ftadd 0040  
             ?___awmod 0072              __ptext650 0809              __ptext651 047F               ?___lbmod 0072  
            __ptext660 036B              __ptext652 049A              __ptext661 0025              __ptext653 000F  
            __ptext670 02E8              __ptext662 0614              __ptext654 0156              __ptext671 1561  
            __ptext663 0584              __ptext655 0653              __ptext680 063B              __ptext672 03E8  
            __ptext664 1519              __ptext656 0482              __ptext648 07EE              __ptext681 1527  
            __ptext673 0773              __ptext665 032E              __ptext657 04C9              __ptext649 14EC  
            __ptext682 14DE              __ptext674 0758              __ptext666 07A5              __ptext658 0109  
            __ptext683 152D              __ptext675 00E7              __ptext667 0FBE              __ptext659 0127  
            __ptext684 14FA              __ptext676 03DA              __ptext668 0FF8              __ptext685 1542  
            __ptext677 163B              __ptext669 0F7D              __ptext678 15C3              __ptext679 0FEA  
             ?___ftneg 0072               ?___lldiv 0072               ?___ftmul 0031               ?___llmod 0025  
             ?___ftsub 004C              __npowers_ 1006               ?___fttol 0024               ?__doprnt 0056  
            __pstrings 1000            __tdiv_to_l_ 15C3           ??__div_to_l_ 0020               ?_isdigit 0070  
             ?_isprint 0070               ?_sprintf 005D         __size_of_scale 0192         __size_of_putch 0003  
        ??_send_string 0073            __size_of_rx 0015            __size_of_tx 000F      interrupt_function 0004  
       ___wmul@product 0076              _send_char 1527     __end_of__div_to_l_ 16F9            __stringbase 1005  
    ___wmul@multiplier 0072              lcd_putc@c 007A           ??_lcd_gotoxy 0078       lcd_put_byte@temp 0076  
         _isprint$3721 0072             ?_send_char 0070           send_string@s 0073    __end_of_send_string 1527  
   __end_of_lcd_gotoxy 049A       __size_of___awdiv 0046       __size_of___lbdiv 001B       __size_of___ftadd 00C2  
     __size_of___awmod 003D       __size_of___lbmod 001C       __size_of___ftneg 0008       __size_of___lldiv 0049  
             ___altoft 0127       __size_of___ftmul 006F       __size_of___llmod 003E       __size_of___ftsub 0016  
     __size_of___fttol 005B               ___ftpack 03E8       __size_of__doprnt 06A9            _fround$4203 0052  
          _fround$4204 004F               ___lltoft 0109       __size_of_isdigit 000E       __size_of_isprint 000E  
             __powers_ 102D               _lcd_busy 0614               _lcd_init 04C9               _lcd_putc 049A  
     __size_of_sprintf 0012          __size_of_main 00FA          __size_of_ngat 001F               fp__putch 0106  
             isdigit@c 0073               scale@scl 004A               intlevel1 0100              sprintf@ap 0062  
            sprintf@pb 0063       __tdiv_to_l_@exp1 0025              sprintf@wh 0061       __tdiv_to_l_@cntr 0024  
     __tdiv_to_l_@quot 0020            _send_string 1519       ___lldiv@dividend 0076               isprint@c 0073  
          ??_send_char 0072              stringcode 1000               printf@ap 0062               printf@pb 0063  
         ?__tdiv_to_l_ 0072               sprintf@f 005D       ___lldiv@quotient 0020               stringdir 1000  
             stringtab 1000  
