opt subtitle "HI-TECH Software Omniscient Code Generator (PRO mode) build 10920"

opt pagewidth 120

	opt pm

	processor	16F887
clrc	macro
	bcf	3,0
	endm
clrz	macro
	bcf	3,2
	endm
setc	macro
	bsf	3,0
	endm
setz	macro
	bsf	3,2
	endm
skipc	macro
	btfss	3,0
	endm
skipz	macro
	btfss	3,2
	endm
skipnc	macro
	btfsc	3,0
	endm
skipnz	macro
	btfsc	3,2
	endm
indf	equ	0
indf0	equ	0
pc	equ	2
pcl	equ	2
status	equ	3
fsr	equ	4
fsr0	equ	4
c	equ	1
z	equ	0
pclath	equ	10
# 8 "D:\TTVXL\Project TTVXL\BT01week11ttvxl\BT01week11ttvxl.c"
	psect config,class=CONFIG,delta=2 ;#
# 8 "D:\TTVXL\Project TTVXL\BT01week11ttvxl\BT01week11ttvxl.c"
	dw 0xFFFA & 0xFFF7 & 0xFFEF & 0xFFDF & 0xFFFF & 0xFFFF & 0xFFFF & 0xFBFF & 0xF7FF & 0xEFFF & 0xFFFF ;#
	FNCALL	_main,_lcd_init
	FNCALL	_main,_read_adc_AN3
	FNCALL	_main,_lcd_gotoxy
	FNCALL	_main,_printf
	FNCALL	_main,_read_adc_AN12
	FNCALL	_printf,_putch
	FNCALL	_printf,_isdigit
	FNCALL	_printf,___wmul
	FNCALL	_printf,___ftge
	FNCALL	_printf,___ftneg
	FNCALL	_printf,___awdiv
	FNCALL	_printf,_scale
	FNCALL	_printf,___ftmul
	FNCALL	_printf,_fround
	FNCALL	_printf,___ftadd
	FNCALL	_printf,___fttol
	FNCALL	_printf,__div_to_l_
	FNCALL	_printf,__tdiv_to_l_
	FNCALL	_printf,___lltoft
	FNCALL	_printf,___ftsub
	FNCALL	_printf,___lldiv
	FNCALL	_printf,___llmod
	FNCALL	_putch,_lcd_putc
	FNCALL	_lcd_putc,_lcd_put_byte
	FNCALL	_lcd_putc,_lcd_busy
	FNCALL	_lcd_putc,_lcd_gotoxy
	FNCALL	_lcd_putc,_isprint
	FNCALL	___ftsub,___ftadd
	FNCALL	_scale,___awmod
	FNCALL	_scale,___awdiv
	FNCALL	_scale,___ftmul
	FNCALL	_scale,___bmul
	FNCALL	_fround,___lbmod
	FNCALL	_fround,___bmul
	FNCALL	_fround,___lbdiv
	FNCALL	_fround,___ftmul
	FNCALL	_lcd_gotoxy,_lcd_put_byte
	FNCALL	_lcd_gotoxy,_lcd_busy
	FNCALL	_lcd_init,_lcd_put_byte
	FNCALL	_lcd_init,_lcd_busy
	FNCALL	_read_adc_AN12,___awtoft
	FNCALL	_read_adc_AN12,___ftdiv
	FNCALL	_read_adc_AN12,___ftmul
	FNCALL	_read_adc_AN3,___awtoft
	FNCALL	_read_adc_AN3,___ftdiv
	FNCALL	_read_adc_AN3,___ftmul
	FNCALL	___lltoft,___ftpack
	FNCALL	___awtoft,___ftpack
	FNCALL	___ftmul,___ftpack
	FNCALL	___ftdiv,___ftpack
	FNCALL	___ftadd,___ftpack
	FNROOT	_main
	global	__npowers_
psect	strings,class=STRING,delta=2
global __pstrings
__pstrings:
;	global	stringdir,stringtab,__stringbase
stringtab:
;	String table - string pointers are 1 byte each
stringcode:stringdir:
movlw high(stringdir)
movwf pclath
movf fsr,w
incf fsr
	addwf pc
__stringbase:
	retlw	0
psect	strings
	file	"C:\Program Files (x86)\HI-TECH Software\PICC\9.83\sources\powers.c"
	line	39
__npowers_:
	retlw	0x0
	retlw	0x80
	retlw	0x3f

	retlw	0xcd
	retlw	0xcc
	retlw	0x3d

	retlw	0xd7
	retlw	0x23
	retlw	0x3c

	retlw	0x12
	retlw	0x83
	retlw	0x3a

	retlw	0xb7
	retlw	0xd1
	retlw	0x38

	retlw	0xc6
	retlw	0x27
	retlw	0x37

	retlw	0x38
	retlw	0x86
	retlw	0x35

	retlw	0xc0
	retlw	0xd6
	retlw	0x33

	retlw	0xcc
	retlw	0x2b
	retlw	0x32

	retlw	0x70
	retlw	0x89
	retlw	0x30

	retlw	0xe7
	retlw	0xdb
	retlw	0x2e

	retlw	0xe5
	retlw	0x3c
	retlw	0x1e

	retlw	0x42
	retlw	0xa2
	retlw	0xd

	global	__powers_
psect	strings
	file	"C:\Program Files (x86)\HI-TECH Software\PICC\9.83\sources\powers.c"
	line	7
__powers_:
	retlw	0x0
	retlw	0x80
	retlw	0x3f

	retlw	0x0
	retlw	0x20
	retlw	0x41

	retlw	0x0
	retlw	0xc8
	retlw	0x42

	retlw	0x0
	retlw	0x7a
	retlw	0x44

	retlw	0x40
	retlw	0x1c
	retlw	0x46

	retlw	0x50
	retlw	0xc3
	retlw	0x47

	retlw	0x24
	retlw	0x74
	retlw	0x49

	retlw	0x97
	retlw	0x18
	retlw	0x4b

	retlw	0xbc
	retlw	0xbe
	retlw	0x4c

	retlw	0x6b
	retlw	0x6e
	retlw	0x4e

	retlw	0x3
	retlw	0x15
	retlw	0x50

	retlw	0x79
	retlw	0xad
	retlw	0x60

	retlw	0xf3
	retlw	0x49
	retlw	0x71

	global	_dpowers
psect	strings
	file	"C:\Program Files (x86)\HI-TECH Software\PICC\9.83\sources\doprnt.c"
	line	350
_dpowers:
	retlw	01h
	retlw	0
	retlw	0
	retlw	0

	retlw	0Ah
	retlw	0
	retlw	0
	retlw	0

	retlw	064h
	retlw	0
	retlw	0
	retlw	0

	retlw	0E8h
	retlw	03h
	retlw	0
	retlw	0

	retlw	010h
	retlw	027h
	retlw	0
	retlw	0

	retlw	0A0h
	retlw	086h
	retlw	01h
	retlw	0

	retlw	040h
	retlw	042h
	retlw	0Fh
	retlw	0

	retlw	080h
	retlw	096h
	retlw	098h
	retlw	0

	retlw	0
	retlw	0E1h
	retlw	0F5h
	retlw	05h

	retlw	0
	retlw	0CAh
	retlw	09Ah
	retlw	03Bh

	global	__npowers_
	global	__powers_
	global	_dpowers
	global	_res1
	global	_res2
	global	_adc1
	global	_adc2
	global	_ADRESH
_ADRESH	set	30
	global	_ADCS0
_ADCS0	set	254
	global	_ADCS1
_ADCS1	set	255
	global	_ADON
_ADON	set	248
	global	_CHS0
_CHS0	set	250
	global	_CHS1
_CHS1	set	251
	global	_CHS2
_CHS2	set	252
	global	_CHS3
_CHS3	set	253
	global	_GO_nDONE
_GO_nDONE	set	249
	global	_RD1
_RD1	set	65
	global	_RD2
_RD2	set	66
	global	_RD3
_RD3	set	67
	global	_RD4
_RD4	set	68
	global	_RD5
_RD5	set	69
	global	_RD6
_RD6	set	70
	global	_RD7
_RD7	set	71
	global	_ADRESL
_ADRESL	set	158
	global	_TRISD
_TRISD	set	136
	global	_ADFM
_ADFM	set	1279
	global	_TRISA3
_TRISA3	set	1067
	global	_TRISB0
_TRISB0	set	1072
	global	_TRISD1
_TRISD1	set	1089
	global	_TRISD2
_TRISD2	set	1090
	global	_TRISD3
_TRISD3	set	1091
	global	_TRISD4
_TRISD4	set	1092
	global	_TRISD5
_TRISD5	set	1093
	global	_TRISD6
_TRISD6	set	1094
	global	_TRISD7
_TRISD7	set	1095
	global	_TRISE0
_TRISE0	set	1096
	global	_TRISE1
_TRISE1	set	1097
	global	_VCFG0
_VCFG0	set	1276
	global	_VCFG1
_VCFG1	set	1277
	global	_ANSEL
_ANSEL	set	392
	global	_ANSELH
_ANSELH	set	393
	global	_ANS12
_ANS12	set	3148
	global	_ANS3
_ANS3	set	3139
	
STR_1:	
	retlw	68	;'D'
	retlw	105	;'i'
	retlw	101	;'e'
	retlw	110	;'n'
	retlw	32	;' '
	retlw	97	;'a'
	retlw	112	;'p'
	retlw	32	;' '
	retlw	49	;'1'
	retlw	58	;':'
	retlw	32	;' '
	retlw	37	;'%'
	retlw	51	;'3'
	retlw	46	;'.'
	retlw	49	;'1'
	retlw	102	;'f'
	retlw	0
psect	strings
	
STR_2:	
	retlw	68	;'D'
	retlw	105	;'i'
	retlw	101	;'e'
	retlw	110	;'n'
	retlw	32	;' '
	retlw	97	;'a'
	retlw	112	;'p'
	retlw	32	;' '
	retlw	50	;'2'
	retlw	58	;':'
	retlw	32	;' '
	retlw	37	;'%'
	retlw	51	;'3'
	retlw	46	;'.'
	retlw	49	;'1'
	retlw	102	;'f'
	retlw	0
psect	strings
	file	"BT01week11ttvxl.as"
	line	#
psect cinit,class=CODE,delta=2
global start_initialization
start_initialization:

psect	bssBANK0,class=BANK0,space=1
global __pbssBANK0
__pbssBANK0:
_res1:
       ds      3

_res2:
       ds      3

_adc1:
       ds      2

_adc2:
       ds      2

; Clear objects allocated to BANK0
psect cinit,class=CODE,delta=2
	clrf	((__pbssBANK0)+0)&07Fh
	clrf	((__pbssBANK0)+1)&07Fh
	clrf	((__pbssBANK0)+2)&07Fh
	clrf	((__pbssBANK0)+3)&07Fh
	clrf	((__pbssBANK0)+4)&07Fh
	clrf	((__pbssBANK0)+5)&07Fh
	clrf	((__pbssBANK0)+6)&07Fh
	clrf	((__pbssBANK0)+7)&07Fh
	clrf	((__pbssBANK0)+8)&07Fh
	clrf	((__pbssBANK0)+9)&07Fh
psect cinit,class=CODE,delta=2
global end_of_initialization

;End of C runtime variable initialization code

end_of_initialization:
clrf status
ljmp _main	;jump to C main() function
psect	cstackBANK1,class=BANK1,space=1
global __pcstackBANK1
__pcstackBANK1:
	global	_printf$3162
_printf$3162:	; 4 bytes @ 0x0
	ds	4
	global	printf@ap
printf@ap:	; 1 bytes @ 0x4
	ds	1
	global	printf@integ
printf@integ:	; 3 bytes @ 0x5
	ds	3
	global	printf@_val
printf@_val:	; 4 bytes @ 0x8
	ds	4
	global	printf@flag
printf@flag:	; 2 bytes @ 0xC
	ds	2
	global	printf@f
printf@f:	; 1 bytes @ 0xE
	ds	1
	global	printf@width
printf@width:	; 2 bytes @ 0xF
	ds	2
	global	printf@exp
printf@exp:	; 2 bytes @ 0x11
	ds	2
	global	printf@fval
printf@fval:	; 3 bytes @ 0x13
	ds	3
	global	printf@prec
printf@prec:	; 2 bytes @ 0x16
	ds	2
	global	printf@c
printf@c:	; 1 bytes @ 0x18
	ds	1
psect	cstackCOMMON,class=COMMON,space=1
global __pcstackCOMMON
__pcstackCOMMON:
	global	?_lcd_init
?_lcd_init:	; 0 bytes @ 0x0
	global	?_lcd_putc
?_lcd_putc:	; 0 bytes @ 0x0
	global	?_lcd_put_byte
?_lcd_put_byte:	; 0 bytes @ 0x0
	global	??_lcd_busy
??_lcd_busy:	; 0 bytes @ 0x0
	global	?_isprint
?_isprint:	; 1 bit 
	global	??_isprint
??_isprint:	; 0 bytes @ 0x0
	global	?_isdigit
?_isdigit:	; 1 bit 
	global	??_isdigit
??_isdigit:	; 0 bytes @ 0x0
	global	?_read_adc_AN3
?_read_adc_AN3:	; 0 bytes @ 0x0
	global	?_read_adc_AN12
?_read_adc_AN12:	; 0 bytes @ 0x0
	global	?_main
?_main:	; 0 bytes @ 0x0
	global	?_putch
?_putch:	; 0 bytes @ 0x0
	global	?___ftge
?___ftge:	; 1 bit 
	global	?_lcd_busy
?_lcd_busy:	; 1 bytes @ 0x0
	global	?___lbmod
?___lbmod:	; 1 bytes @ 0x0
	global	?___wmul
?___wmul:	; 2 bytes @ 0x0
	global	?___awmod
?___awmod:	; 2 bytes @ 0x0
	global	?___ftpack
?___ftpack:	; 3 bytes @ 0x0
	global	?___ftneg
?___ftneg:	; 3 bytes @ 0x0
	global	?__tdiv_to_l_
?__tdiv_to_l_:	; 4 bytes @ 0x0
	global	?__div_to_l_
?__div_to_l_:	; 4 bytes @ 0x0
	global	?___lldiv
?___lldiv:	; 4 bytes @ 0x0
	global	lcd_put_byte@b
lcd_put_byte@b:	; 1 bytes @ 0x0
	global	_isdigit$3670
_isdigit$3670:	; 1 bytes @ 0x0
	global	_isprint$3673
_isprint$3673:	; 1 bytes @ 0x0
	global	___lbmod@divisor
___lbmod@divisor:	; 1 bytes @ 0x0
	global	___wmul@multiplier
___wmul@multiplier:	; 2 bytes @ 0x0
	global	___awmod@divisor
___awmod@divisor:	; 2 bytes @ 0x0
	global	___ftneg@f1
___ftneg@f1:	; 3 bytes @ 0x0
	global	___ftge@ff1
___ftge@ff1:	; 3 bytes @ 0x0
	global	__tdiv_to_l_@f1
__tdiv_to_l_@f1:	; 3 bytes @ 0x0
	global	__div_to_l_@f1
__div_to_l_@f1:	; 3 bytes @ 0x0
	global	___ftpack@arg
___ftpack@arg:	; 3 bytes @ 0x0
	global	___lldiv@divisor
___lldiv@divisor:	; 4 bytes @ 0x0
	ds	1
	global	??_lcd_put_byte
??_lcd_put_byte:	; 0 bytes @ 0x1
	global	??___lbmod
??___lbmod:	; 0 bytes @ 0x1
	global	lcd_busy@busy
lcd_busy@busy:	; 1 bytes @ 0x1
	global	isdigit@c
isdigit@c:	; 1 bytes @ 0x1
	global	isprint@c
isprint@c:	; 1 bytes @ 0x1
	ds	1
	global	___lbmod@dividend
___lbmod@dividend:	; 1 bytes @ 0x2
	global	___wmul@multiplicand
___wmul@multiplicand:	; 2 bytes @ 0x2
	global	___awmod@dividend
___awmod@dividend:	; 2 bytes @ 0x2
	ds	1
	global	??___ftneg
??___ftneg:	; 0 bytes @ 0x3
	global	lcd_put_byte@rs
lcd_put_byte@rs:	; 1 bytes @ 0x3
	global	___lbmod@counter
___lbmod@counter:	; 1 bytes @ 0x3
	global	___ftpack@exp
___ftpack@exp:	; 1 bytes @ 0x3
	global	___ftge@ff2
___ftge@ff2:	; 3 bytes @ 0x3
	global	__tdiv_to_l_@f2
__tdiv_to_l_@f2:	; 3 bytes @ 0x3
	global	__div_to_l_@f2
__div_to_l_@f2:	; 3 bytes @ 0x3
	ds	1
	global	??___wmul
??___wmul:	; 0 bytes @ 0x4
	global	??___awmod
??___awmod:	; 0 bytes @ 0x4
	global	lcd_put_byte@temp
lcd_put_byte@temp:	; 1 bytes @ 0x4
	global	___lbmod@rem
___lbmod@rem:	; 1 bytes @ 0x4
	global	___awmod@counter
___awmod@counter:	; 1 bytes @ 0x4
	global	___ftpack@sign
___ftpack@sign:	; 1 bytes @ 0x4
	global	___wmul@product
___wmul@product:	; 2 bytes @ 0x4
	global	___lldiv@dividend
___lldiv@dividend:	; 4 bytes @ 0x4
	ds	1
	global	??_lcd_init
??_lcd_init:	; 0 bytes @ 0x5
	global	?_lcd_gotoxy
?_lcd_gotoxy:	; 0 bytes @ 0x5
	global	??___ftpack
??___ftpack:	; 0 bytes @ 0x5
	global	?___lbdiv
?___lbdiv:	; 1 bytes @ 0x5
	global	lcd_gotoxy@row
lcd_gotoxy@row:	; 1 bytes @ 0x5
	global	___lbdiv@divisor
___lbdiv@divisor:	; 1 bytes @ 0x5
	global	___awmod@sign
___awmod@sign:	; 1 bytes @ 0x5
	ds	1
	global	??_lcd_gotoxy
??_lcd_gotoxy:	; 0 bytes @ 0x6
	global	??__tdiv_to_l_
??__tdiv_to_l_:	; 0 bytes @ 0x6
	global	??__div_to_l_
??__div_to_l_:	; 0 bytes @ 0x6
	global	??___lbdiv
??___lbdiv:	; 0 bytes @ 0x6
	global	??___ftge
??___ftge:	; 0 bytes @ 0x6
	global	?___awdiv
?___awdiv:	; 2 bytes @ 0x6
	global	lcd_gotoxy@col
lcd_gotoxy@col:	; 1 bytes @ 0x6
	global	___lbdiv@dividend
___lbdiv@dividend:	; 1 bytes @ 0x6
	global	___awdiv@divisor
___awdiv@divisor:	; 2 bytes @ 0x6
	ds	1
	global	lcd_gotoxy@address
lcd_gotoxy@address:	; 1 bytes @ 0x7
	global	___lbdiv@counter
___lbdiv@counter:	; 1 bytes @ 0x7
	ds	1
	global	??_lcd_putc
??_lcd_putc:	; 0 bytes @ 0x8
	global	??___lldiv
??___lldiv:	; 0 bytes @ 0x8
	global	?___awtoft
?___awtoft:	; 3 bytes @ 0x8
	global	?___lltoft
?___lltoft:	; 3 bytes @ 0x8
	global	lcd_putc@c
lcd_putc@c:	; 1 bytes @ 0x8
	global	___lbdiv@quotient
___lbdiv@quotient:	; 1 bytes @ 0x8
	global	___awtoft@c
___awtoft@c:	; 2 bytes @ 0x8
	global	___awdiv@dividend
___awdiv@dividend:	; 2 bytes @ 0x8
	global	___lldiv@quotient
___lldiv@quotient:	; 4 bytes @ 0x8
	global	___lltoft@c
___lltoft@c:	; 4 bytes @ 0x8
	ds	1
	global	??_putch
??_putch:	; 0 bytes @ 0x9
	global	?___bmul
?___bmul:	; 1 bytes @ 0x9
	global	putch@c
putch@c:	; 1 bytes @ 0x9
	global	___bmul@multiplicand
___bmul@multiplicand:	; 1 bytes @ 0x9
	ds	1
	global	??___bmul
??___bmul:	; 0 bytes @ 0xA
	global	??___awdiv
??___awdiv:	; 0 bytes @ 0xA
	global	___bmul@product
___bmul@product:	; 1 bytes @ 0xA
	global	___awdiv@counter
___awdiv@counter:	; 1 bytes @ 0xA
	ds	1
	global	??___awtoft
??___awtoft:	; 0 bytes @ 0xB
	global	___bmul@multiplier
___bmul@multiplier:	; 1 bytes @ 0xB
	global	___awtoft@sign
___awtoft@sign:	; 1 bytes @ 0xB
	global	___awdiv@sign
___awdiv@sign:	; 1 bytes @ 0xB
	ds	1
	global	??___lltoft
??___lltoft:	; 0 bytes @ 0xC
	global	___lldiv@counter
___lldiv@counter:	; 1 bytes @ 0xC
	global	___lltoft@exp
___lltoft@exp:	; 1 bytes @ 0xC
	global	___awdiv@quotient
___awdiv@quotient:	; 2 bytes @ 0xC
	ds	1
	global	??___llmod
??___llmod:	; 0 bytes @ 0xD
	global	___llmod@counter
___llmod@counter:	; 1 bytes @ 0xD
	ds	1
	global	??_fround
??_fround:	; 0 bytes @ 0xE
	global	??___ftsub
??___ftsub:	; 0 bytes @ 0xE
psect	cstackBANK0,class=BANK0,space=1
global __pcstackBANK0
__pcstackBANK0:
	global	?___ftdiv
?___ftdiv:	; 3 bytes @ 0x0
	global	?___fttol
?___fttol:	; 4 bytes @ 0x0
	global	?___llmod
?___llmod:	; 4 bytes @ 0x0
	global	___ftdiv@f2
___ftdiv@f2:	; 3 bytes @ 0x0
	global	___fttol@f1
___fttol@f1:	; 3 bytes @ 0x0
	global	___llmod@divisor
___llmod@divisor:	; 4 bytes @ 0x0
	global	__tdiv_to_l_@quot
__tdiv_to_l_@quot:	; 4 bytes @ 0x0
	global	__div_to_l_@quot
__div_to_l_@quot:	; 4 bytes @ 0x0
	ds	3
	global	___ftdiv@f1
___ftdiv@f1:	; 3 bytes @ 0x3
	ds	1
	global	??___fttol
??___fttol:	; 0 bytes @ 0x4
	global	__tdiv_to_l_@cntr
__tdiv_to_l_@cntr:	; 1 bytes @ 0x4
	global	__div_to_l_@cntr
__div_to_l_@cntr:	; 1 bytes @ 0x4
	global	___llmod@dividend
___llmod@dividend:	; 4 bytes @ 0x4
	ds	1
	global	__tdiv_to_l_@exp1
__tdiv_to_l_@exp1:	; 1 bytes @ 0x5
	global	__div_to_l_@exp1
__div_to_l_@exp1:	; 1 bytes @ 0x5
	ds	1
	global	??___ftdiv
??___ftdiv:	; 0 bytes @ 0x6
	ds	1
	global	___fttol@sign1
___fttol@sign1:	; 1 bytes @ 0x7
	ds	1
	global	___fttol@lval
___fttol@lval:	; 4 bytes @ 0x8
	ds	1
	global	___ftdiv@cntr
___ftdiv@cntr:	; 1 bytes @ 0x9
	ds	1
	global	___ftdiv@f3
___ftdiv@f3:	; 3 bytes @ 0xA
	ds	2
	global	___fttol@exp1
___fttol@exp1:	; 1 bytes @ 0xC
	ds	1
	global	___ftdiv@exp
___ftdiv@exp:	; 1 bytes @ 0xD
	ds	1
	global	___ftdiv@sign
___ftdiv@sign:	; 1 bytes @ 0xE
	ds	1
	global	?___ftmul
?___ftmul:	; 3 bytes @ 0xF
	global	___ftmul@f1
___ftmul@f1:	; 3 bytes @ 0xF
	ds	3
	global	___ftmul@f2
___ftmul@f2:	; 3 bytes @ 0x12
	ds	3
	global	??___ftmul
??___ftmul:	; 0 bytes @ 0x15
	ds	3
	global	___ftmul@exp
___ftmul@exp:	; 1 bytes @ 0x18
	ds	1
	global	___ftmul@f3_as_product
___ftmul@f3_as_product:	; 3 bytes @ 0x19
	ds	3
	global	___ftmul@cntr
___ftmul@cntr:	; 1 bytes @ 0x1C
	ds	1
	global	___ftmul@sign
___ftmul@sign:	; 1 bytes @ 0x1D
	ds	1
	global	??_read_adc_AN3
??_read_adc_AN3:	; 0 bytes @ 0x1E
	global	??_read_adc_AN12
??_read_adc_AN12:	; 0 bytes @ 0x1E
	global	?_scale
?_scale:	; 3 bytes @ 0x1E
	global	?___ftadd
?___ftadd:	; 3 bytes @ 0x1E
	global	___ftadd@f1
___ftadd@f1:	; 3 bytes @ 0x1E
	ds	3
	global	??_scale
??_scale:	; 0 bytes @ 0x21
	global	___ftadd@f2
___ftadd@f2:	; 3 bytes @ 0x21
	ds	3
	global	??___ftadd
??___ftadd:	; 0 bytes @ 0x24
	ds	1
	global	_scale$4112
_scale$4112:	; 3 bytes @ 0x25
	ds	2
	global	___ftadd@sign
___ftadd@sign:	; 1 bytes @ 0x27
	ds	1
	global	scale@scl
scale@scl:	; 1 bytes @ 0x28
	global	___ftadd@exp2
___ftadd@exp2:	; 1 bytes @ 0x28
	ds	1
	global	___ftadd@exp1
___ftadd@exp1:	; 1 bytes @ 0x29
	ds	1
	global	?_fround
?_fround:	; 3 bytes @ 0x2A
	global	?___ftsub
?___ftsub:	; 3 bytes @ 0x2A
	global	___ftsub@f2
___ftsub@f2:	; 3 bytes @ 0x2A
	ds	3
	global	___ftsub@f1
___ftsub@f1:	; 3 bytes @ 0x2D
	global	_fround$4111
_fround$4111:	; 3 bytes @ 0x2D
	ds	3
	global	_fround$4110
_fround$4110:	; 3 bytes @ 0x30
	ds	3
	global	fround@prec
fround@prec:	; 1 bytes @ 0x33
	ds	1
	global	?_printf
?_printf:	; 2 bytes @ 0x34
	ds	3
	global	??_printf
??_printf:	; 0 bytes @ 0x37
	ds	5
	global	??_main
??_main:	; 0 bytes @ 0x3C
	ds	2
;;Data sizes: Strings 34, constant 118, data 0, bss 10, persistent 0 stack 0
;;Auto spaces:   Size  Autos    Used
;; COMMON          14     14      14
;; BANK0           80     62      72
;; BANK1           80     25      25
;; BANK3           96      0       0
;; BANK2           96      0       0

;;
;; Pointer list with targets:

;; ?___ftpack	float  size(1) Largest target is 0
;;
;; ?___lldiv	unsigned long  size(1) Largest target is 0
;;
;; ?___llmod	unsigned long  size(1) Largest target is 0
;;
;; ?___ftsub	float  size(1) Largest target is 0
;;
;; ?___lltoft	float  size(1) Largest target is 0
;;
;; ?__tdiv_to_l_	unsigned long  size(1) Largest target is 0
;;
;; ?__div_to_l_	unsigned long  size(1) Largest target is 0
;;
;; ?___fttol	long  size(1) Largest target is 0
;;
;; ?___ftadd	float  size(1) Largest target is 0
;;
;; ?___ftneg	float  size(1) Largest target is 0
;;
;; ?___awmod	int  size(1) Largest target is 40
;;		 -> dpowers(CODE[40]), 
;;
;; ?___awdiv	int  size(1) Largest target is 0
;;
;; ?_scale	int  size(1) Largest target is 0
;;
;; ?___wmul	unsigned int  size(1) Largest target is 0
;;
;; ?_fround	unsigned int  size(1) Largest target is 0
;;
;; ?___ftdiv	float  size(1) Largest target is 0
;;
;; ?___awtoft	float  size(1) Largest target is 0
;;
;; ?___ftmul	float  size(1) Largest target is 0
;;
;; printf@f	PTR const unsigned char  size(1) Largest target is 17
;;		 -> STR_2(CODE[17]), STR_1(CODE[17]), 
;;
;; ?_printf	int  size(1) Largest target is 0
;;
;; printf@ap	PTR void [1] size(1) Largest target is 2
;;		 -> ?_printf(BANK0[2]), 
;;
;; S3151$_cp	PTR const unsigned char  size(1) Largest target is 0
;;
;; _val._str._cp	PTR const unsigned char  size(1) Largest target is 0
;;


;;
;; Critical Paths under _main in COMMON
;;
;;   _printf->___awdiv
;;   _printf->__div_to_l_
;;   _printf->___llmod
;;   _putch->_lcd_putc
;;   _lcd_putc->_lcd_gotoxy
;;   _scale->___awdiv
;;   _lcd_gotoxy->_lcd_put_byte
;;   _lcd_init->_lcd_put_byte
;;   ___lltoft->___ftpack
;;   ___awtoft->___ftpack
;;   ___ftmul->___awdiv
;;   ___ftdiv->___awtoft
;;   ___llmod->___lldiv
;;   ___awdiv->___awmod
;;   ___fttol->___awdiv
;;   ___lbdiv->___lbmod
;;   ___bmul->___lbdiv
;;
;; Critical Paths under _main in BANK0
;;
;;   _main->_printf
;;   _printf->_fround
;;   ___ftsub->___ftadd
;;   _scale->___ftmul
;;   _fround->___ftadd
;;   _read_adc_AN12->___ftmul
;;   _read_adc_AN3->___ftmul
;;   ___ftmul->___ftdiv
;;   ___ftadd->___ftmul
;;
;; Critical Paths under _main in BANK1
;;
;;   _main->_printf
;;
;; Critical Paths under _main in BANK3
;;
;;   None.
;;
;; Critical Paths under _main in BANK2
;;
;;   None.

;;
;;Main: autosize = 0, tempsize = 2, incstack = 0, save=0
;;

;;
;;Call Graph Tables:
;;
;; ---------------------------------------------------------------------------------
;; (Depth) Function   	        Calls       Base Space   Used Autos Params    Refs
;; ---------------------------------------------------------------------------------
;; (0) _main                                                 2     2      0   13752
;;                                             60 BANK0      2     2      0
;;                           _lcd_init
;;                       _read_adc_AN3
;;                         _lcd_gotoxy
;;                             _printf
;;                      _read_adc_AN12
;; ---------------------------------------------------------------------------------
;; (1) _printf                                              37    34      3   10547
;;                                             52 BANK0      8     5      3
;;                                              0 BANK1     25    25      0
;;                              _putch
;;                            _isdigit
;;                             ___wmul
;;                             ___ftge
;;                            ___ftneg
;;                            ___awdiv
;;                              _scale
;;                            ___ftmul
;;                             _fround
;;                            ___ftadd
;;                            ___fttol
;;                         __div_to_l_
;;                        __tdiv_to_l_
;;                           ___lltoft
;;                            ___ftsub
;;                            ___lldiv
;;                            ___llmod
;; ---------------------------------------------------------------------------------
;; (2) _putch                                                1     1      0     713
;;                                              9 COMMON     1     1      0
;;                           _lcd_putc
;; ---------------------------------------------------------------------------------
;; (3) _lcd_putc                                             1     1      0     691
;;                                              8 COMMON     1     1      0
;;                       _lcd_put_byte
;;                           _lcd_busy
;;                         _lcd_gotoxy
;;                            _isprint
;; ---------------------------------------------------------------------------------
;; (2) ___ftsub                                              6     0      6    1094
;;                                             42 BANK0      6     0      6
;;                            ___ftadd
;;                           ___lltoft (ARG)
;; ---------------------------------------------------------------------------------
;; (2) _scale                                               14    11      3    1660
;;                                             30 BANK0     11     8      3
;;                            ___awmod
;;                            ___awdiv
;;                            ___ftmul
;;                             ___bmul
;;                            ___fttol (ARG)
;; ---------------------------------------------------------------------------------
;; (2) _fround                                              13    10      3    1187
;;                                             42 BANK0     10     7      3
;;                            ___lbmod
;;                             ___bmul
;;                            ___lbdiv
;;                            ___ftmul
;;                            ___ftadd (ARG)
;; ---------------------------------------------------------------------------------
;; (4) _lcd_gotoxy                                           3     2      1     313
;;                                              5 COMMON     3     2      1
;;                       _lcd_put_byte
;;                           _lcd_busy
;; ---------------------------------------------------------------------------------
;; (1) _lcd_init                                             4     4      0     244
;;                                              5 COMMON     3     3      0
;;                       _lcd_put_byte
;;                           _lcd_busy
;; ---------------------------------------------------------------------------------
;; (1) _read_adc_AN12                                        2     2      0    1324
;;                                             30 BANK0      2     2      0
;;                           ___awtoft
;;                            ___ftdiv
;;                            ___ftmul
;; ---------------------------------------------------------------------------------
;; (1) _read_adc_AN3                                         2     2      0    1324
;;                                             30 BANK0      2     2      0
;;                           ___awtoft
;;                            ___ftdiv
;;                            ___ftmul
;; ---------------------------------------------------------------------------------
;; (2) ___lltoft                                             5     1      4     278
;;                                              8 COMMON     5     1      4
;;                           ___ftpack
;; ---------------------------------------------------------------------------------
;; (2) ___awtoft                                             4     1      3     300
;;                                              8 COMMON     4     1      3
;;                           ___ftpack
;; ---------------------------------------------------------------------------------
;; (2) ___ftmul                                             15     9      6     535
;;                                             15 BANK0     15     9      6
;;                           ___ftpack
;;                            ___fttol (ARG)
;;                            ___awdiv (ARG)
;;                            ___awmod (ARG)
;;                             ___bmul (ARG)
;;                            ___lbdiv (ARG)
;;                            ___lbmod (ARG)
;;                            ___ftdiv (ARG)
;;                           ___awtoft (ARG)
;; ---------------------------------------------------------------------------------
;; (2) ___ftdiv                                             15     9      6     489
;;                                              0 BANK0     15     9      6
;;                           ___ftpack
;;                           ___awtoft (ARG)
;; ---------------------------------------------------------------------------------
;; (3) ___ftadd                                             12     6      6    1049
;;                                             30 BANK0     12     6      6
;;                           ___ftpack
;;                            ___lbmod (ARG)
;;                             ___bmul (ARG)
;;                            ___lbdiv (ARG)
;;                            ___ftmul (ARG)
;; ---------------------------------------------------------------------------------
;; (5) _lcd_busy                                             2     2      0      23
;;                                              0 COMMON     2     2      0
;; ---------------------------------------------------------------------------------
;; (5) _lcd_put_byte                                         5     4      1     221
;;                                              0 COMMON     5     4      1
;; ---------------------------------------------------------------------------------
;; (3) ___awmod                                              6     2      4     296
;;                                              0 COMMON     6     2      4
;; ---------------------------------------------------------------------------------
;; (2) ___lldiv                                             13     5      8     162
;;                                              0 COMMON    13     5      8
;; ---------------------------------------------------------------------------------
;; (2) ___ftge                                               6     0      6     136
;;                                              0 COMMON     6     0      6
;; ---------------------------------------------------------------------------------
;; (2) ___ftneg                                              3     0      3      45
;;                                              0 COMMON     3     0      3
;; ---------------------------------------------------------------------------------
;; (2) ___llmod                                              9     1      8     159
;;                                             13 COMMON     1     1      0
;;                                              0 BANK0      8     0      8
;;                            ___lldiv (ARG)
;; ---------------------------------------------------------------------------------
;; (3) ___awdiv                                              8     4      4     300
;;                                              6 COMMON     8     4      4
;;                            ___awmod (ARG)
;; ---------------------------------------------------------------------------------
;; (2) ___fttol                                             13     9      4     252
;;                                              0 BANK0     13     9      4
;;                           ___ftpack (ARG)
;;                            ___awmod (ARG)
;;                            ___awdiv (ARG)
;;                             ___bmul (ARG)
;; ---------------------------------------------------------------------------------
;; (3) ___ftpack                                             8     3      5     209
;;                                              0 COMMON     8     3      5
;; ---------------------------------------------------------------------------------
;; (3) ___lbmod                                              5     4      1     159
;;                                              0 COMMON     5     4      1
;; ---------------------------------------------------------------------------------
;; (3) ___lbdiv                                              4     3      1     162
;;                                              5 COMMON     4     3      1
;;                            ___lbmod (ARG)
;; ---------------------------------------------------------------------------------
;; (2) ___wmul                                               6     2      4      92
;;                                              0 COMMON     6     2      4
;; ---------------------------------------------------------------------------------
;; (3) ___bmul                                               3     2      1      40
;;                                              9 COMMON     3     2      1
;;                            ___lbmod (ARG)
;;                            ___lbdiv (ARG)
;; ---------------------------------------------------------------------------------
;; (2) __div_to_l_                                          20    14      6     446
;;                                              0 COMMON    14     8      6
;;                                              0 BANK0      6     6      0
;; ---------------------------------------------------------------------------------
;; (2) __tdiv_to_l_                                         15     9      6     303
;;                                              0 COMMON     9     3      6
;;                                              0 BANK0      6     6      0
;; ---------------------------------------------------------------------------------
;; (2) _isdigit                                              2     2      0      68
;;                                              0 COMMON     2     2      0
;; ---------------------------------------------------------------------------------
;; (4) _isprint                                              2     2      0      68
;;                                              0 COMMON     2     2      0
;; ---------------------------------------------------------------------------------
;; Estimated maximum stack depth 5
;; ---------------------------------------------------------------------------------

;; Call Graph Graphs:

;; _main (ROOT)
;;   _lcd_init
;;     _lcd_put_byte
;;     _lcd_busy
;;   _read_adc_AN3
;;     ___awtoft
;;       ___ftpack
;;     ___ftdiv
;;       ___ftpack
;;       ___awtoft (ARG)
;;         ___ftpack
;;     ___ftmul
;;       ___ftpack
;;       ___fttol (ARG)
;;         ___ftpack (ARG)
;;         ___awmod (ARG)
;;         ___awdiv (ARG)
;;           ___awmod (ARG)
;;         ___bmul (ARG)
;;           ___lbmod (ARG)
;;           ___lbdiv (ARG)
;;             ___lbmod (ARG)
;;       ___awdiv (ARG)
;;         ___awmod (ARG)
;;       ___awmod (ARG)
;;       ___bmul (ARG)
;;         ___lbmod (ARG)
;;         ___lbdiv (ARG)
;;           ___lbmod (ARG)
;;       ___lbdiv (ARG)
;;         ___lbmod (ARG)
;;       ___lbmod (ARG)
;;       ___ftdiv (ARG)
;;         ___ftpack
;;         ___awtoft (ARG)
;;           ___ftpack
;;       ___awtoft (ARG)
;;         ___ftpack
;;   _lcd_gotoxy
;;     _lcd_put_byte
;;     _lcd_busy
;;   _printf
;;     _putch
;;       _lcd_putc
;;         _lcd_put_byte
;;         _lcd_busy
;;         _lcd_gotoxy
;;           _lcd_put_byte
;;           _lcd_busy
;;         _isprint
;;     _isdigit
;;     ___wmul
;;     ___ftge
;;     ___ftneg
;;     ___awdiv
;;       ___awmod (ARG)
;;     _scale
;;       ___awmod
;;       ___awdiv
;;         ___awmod (ARG)
;;       ___ftmul
;;         ___ftpack
;;         ___fttol (ARG)
;;           ___ftpack (ARG)
;;           ___awmod (ARG)
;;           ___awdiv (ARG)
;;             ___awmod (ARG)
;;           ___bmul (ARG)
;;             ___lbmod (ARG)
;;             ___lbdiv (ARG)
;;               ___lbmod (ARG)
;;         ___awdiv (ARG)
;;           ___awmod (ARG)
;;         ___awmod (ARG)
;;         ___bmul (ARG)
;;           ___lbmod (ARG)
;;           ___lbdiv (ARG)
;;             ___lbmod (ARG)
;;         ___lbdiv (ARG)
;;           ___lbmod (ARG)
;;         ___lbmod (ARG)
;;         ___ftdiv (ARG)
;;           ___ftpack
;;           ___awtoft (ARG)
;;             ___ftpack
;;         ___awtoft (ARG)
;;           ___ftpack
;;       ___bmul
;;         ___lbmod (ARG)
;;         ___lbdiv (ARG)
;;           ___lbmod (ARG)
;;       ___fttol (ARG)
;;         ___ftpack (ARG)
;;         ___awmod (ARG)
;;         ___awdiv (ARG)
;;           ___awmod (ARG)
;;         ___bmul (ARG)
;;           ___lbmod (ARG)
;;           ___lbdiv (ARG)
;;             ___lbmod (ARG)
;;     ___ftmul
;;       ___ftpack
;;       ___fttol (ARG)
;;         ___ftpack (ARG)
;;         ___awmod (ARG)
;;         ___awdiv (ARG)
;;           ___awmod (ARG)
;;         ___bmul (ARG)
;;           ___lbmod (ARG)
;;           ___lbdiv (ARG)
;;             ___lbmod (ARG)
;;       ___awdiv (ARG)
;;         ___awmod (ARG)
;;       ___awmod (ARG)
;;       ___bmul (ARG)
;;         ___lbmod (ARG)
;;         ___lbdiv (ARG)
;;           ___lbmod (ARG)
;;       ___lbdiv (ARG)
;;         ___lbmod (ARG)
;;       ___lbmod (ARG)
;;       ___ftdiv (ARG)
;;         ___ftpack
;;         ___awtoft (ARG)
;;           ___ftpack
;;       ___awtoft (ARG)
;;         ___ftpack
;;     _fround
;;       ___lbmod
;;       ___bmul
;;         ___lbmod (ARG)
;;         ___lbdiv (ARG)
;;           ___lbmod (ARG)
;;       ___lbdiv
;;         ___lbmod (ARG)
;;       ___ftmul
;;         ___ftpack
;;         ___fttol (ARG)
;;           ___ftpack (ARG)
;;           ___awmod (ARG)
;;           ___awdiv (ARG)
;;             ___awmod (ARG)
;;           ___bmul (ARG)
;;             ___lbmod (ARG)
;;             ___lbdiv (ARG)
;;               ___lbmod (ARG)
;;         ___awdiv (ARG)
;;           ___awmod (ARG)
;;         ___awmod (ARG)
;;         ___bmul (ARG)
;;           ___lbmod (ARG)
;;           ___lbdiv (ARG)
;;             ___lbmod (ARG)
;;         ___lbdiv (ARG)
;;           ___lbmod (ARG)
;;         ___lbmod (ARG)
;;         ___ftdiv (ARG)
;;           ___ftpack
;;           ___awtoft (ARG)
;;             ___ftpack
;;         ___awtoft (ARG)
;;           ___ftpack
;;       ___ftadd (ARG)
;;         ___ftpack
;;         ___lbmod (ARG)
;;         ___bmul (ARG)
;;           ___lbmod (ARG)
;;           ___lbdiv (ARG)
;;             ___lbmod (ARG)
;;         ___lbdiv (ARG)
;;           ___lbmod (ARG)
;;         ___ftmul (ARG)
;;           ___ftpack
;;           ___fttol (ARG)
;;             ___ftpack (ARG)
;;             ___awmod (ARG)
;;             ___awdiv (ARG)
;;               ___awmod (ARG)
;;             ___bmul (ARG)
;;               ___lbmod (ARG)
;;               ___lbdiv (ARG)
;;                 ___lbmod (ARG)
;;           ___awdiv (ARG)
;;             ___awmod (ARG)
;;           ___awmod (ARG)
;;           ___bmul (ARG)
;;             ___lbmod (ARG)
;;             ___lbdiv (ARG)
;;               ___lbmod (ARG)
;;           ___lbdiv (ARG)
;;             ___lbmod (ARG)
;;           ___lbmod (ARG)
;;           ___ftdiv (ARG)
;;             ___ftpack
;;             ___awtoft (ARG)
;;               ___ftpack
;;           ___awtoft (ARG)
;;             ___ftpack
;;     ___ftadd
;;       ___ftpack
;;       ___lbmod (ARG)
;;       ___bmul (ARG)
;;         ___lbmod (ARG)
;;         ___lbdiv (ARG)
;;           ___lbmod (ARG)
;;       ___lbdiv (ARG)
;;         ___lbmod (ARG)
;;       ___ftmul (ARG)
;;         ___ftpack
;;         ___fttol (ARG)
;;           ___ftpack (ARG)
;;           ___awmod (ARG)
;;           ___awdiv (ARG)
;;             ___awmod (ARG)
;;           ___bmul (ARG)
;;             ___lbmod (ARG)
;;             ___lbdiv (ARG)
;;               ___lbmod (ARG)
;;         ___awdiv (ARG)
;;           ___awmod (ARG)
;;         ___awmod (ARG)
;;         ___bmul (ARG)
;;           ___lbmod (ARG)
;;           ___lbdiv (ARG)
;;             ___lbmod (ARG)
;;         ___lbdiv (ARG)
;;           ___lbmod (ARG)
;;         ___lbmod (ARG)
;;         ___ftdiv (ARG)
;;           ___ftpack
;;           ___awtoft (ARG)
;;             ___ftpack
;;         ___awtoft (ARG)
;;           ___ftpack
;;     ___fttol
;;       ___ftpack (ARG)
;;       ___awmod (ARG)
;;       ___awdiv (ARG)
;;         ___awmod (ARG)
;;       ___bmul (ARG)
;;         ___lbmod (ARG)
;;         ___lbdiv (ARG)
;;           ___lbmod (ARG)
;;     __div_to_l_
;;     __tdiv_to_l_
;;     ___lltoft
;;       ___ftpack
;;     ___ftsub
;;       ___ftadd
;;         ___ftpack
;;         ___lbmod (ARG)
;;         ___bmul (ARG)
;;           ___lbmod (ARG)
;;           ___lbdiv (ARG)
;;             ___lbmod (ARG)
;;         ___lbdiv (ARG)
;;           ___lbmod (ARG)
;;         ___ftmul (ARG)
;;           ___ftpack
;;           ___fttol (ARG)
;;             ___ftpack (ARG)
;;             ___awmod (ARG)
;;             ___awdiv (ARG)
;;               ___awmod (ARG)
;;             ___bmul (ARG)
;;               ___lbmod (ARG)
;;               ___lbdiv (ARG)
;;                 ___lbmod (ARG)
;;           ___awdiv (ARG)
;;             ___awmod (ARG)
;;           ___awmod (ARG)
;;           ___bmul (ARG)
;;             ___lbmod (ARG)
;;             ___lbdiv (ARG)
;;               ___lbmod (ARG)
;;           ___lbdiv (ARG)
;;             ___lbmod (ARG)
;;           ___lbmod (ARG)
;;           ___ftdiv (ARG)
;;             ___ftpack
;;             ___awtoft (ARG)
;;               ___ftpack
;;           ___awtoft (ARG)
;;             ___ftpack
;;       ___lltoft (ARG)
;;         ___ftpack
;;     ___lldiv
;;     ___llmod
;;       ___lldiv (ARG)
;;   _read_adc_AN12
;;     ___awtoft
;;       ___ftpack
;;     ___ftdiv
;;       ___ftpack
;;       ___awtoft (ARG)
;;         ___ftpack
;;     ___ftmul
;;       ___ftpack
;;       ___fttol (ARG)
;;         ___ftpack (ARG)
;;         ___awmod (ARG)
;;         ___awdiv (ARG)
;;           ___awmod (ARG)
;;         ___bmul (ARG)
;;           ___lbmod (ARG)
;;           ___lbdiv (ARG)
;;             ___lbmod (ARG)
;;       ___awdiv (ARG)
;;         ___awmod (ARG)
;;       ___awmod (ARG)
;;       ___bmul (ARG)
;;         ___lbmod (ARG)
;;         ___lbdiv (ARG)
;;           ___lbmod (ARG)
;;       ___lbdiv (ARG)
;;         ___lbmod (ARG)
;;       ___lbmod (ARG)
;;       ___ftdiv (ARG)
;;         ___ftpack
;;         ___awtoft (ARG)
;;           ___ftpack
;;       ___awtoft (ARG)
;;         ___ftpack
;;

;; Address spaces:

;;Name               Size   Autos  Total    Cost      Usage
;;BITCOMMON            E      0       0       0        0.0%
;;EEDATA             100      0       0       0        0.0%
;;NULL                 0      0       0       0        0.0%
;;CODE                 0      0       0       0        0.0%
;;COMMON               E      E       E       1      100.0%
;;BITSFR0              0      0       0       1        0.0%
;;SFR0                 0      0       0       1        0.0%
;;BITSFR1              0      0       0       2        0.0%
;;SFR1                 0      0       0       2        0.0%
;;STACK                0      0       5       2        0.0%
;;ABS                  0      0      6F       3        0.0%
;;BITBANK0            50      0       0       4        0.0%
;;BITSFR3              0      0       0       4        0.0%
;;SFR3                 0      0       0       4        0.0%
;;BANK0               50     3E      48       5       90.0%
;;BITSFR2              0      0       0       5        0.0%
;;SFR2                 0      0       0       5        0.0%
;;BITBANK1            50      0       0       6        0.0%
;;BANK1               50     19      19       7       31.3%
;;BITBANK3            60      0       0       8        0.0%
;;BANK3               60      0       0       9        0.0%
;;BITBANK2            60      0       0      10        0.0%
;;BANK2               60      0       0      11        0.0%
;;DATA                 0      0      74      12        0.0%

	global	_main
psect	maintext,global,class=CODE,delta=2
global __pmaintext
__pmaintext:

;; *************** function _main *****************
;; Defined at:
;;		line 36 in file "D:\TTVXL\Project TTVXL\BT01week11ttvxl\BT01week11ttvxl.c"
;; Parameters:    Size  Location     Type
;;		None
;; Auto vars:     Size  Location     Type
;;		None
;; Return value:  Size  Location     Type
;;		None               void
;; Registers used:
;;		wreg, fsr0l, fsr0h, status,2, status,0, btemp+1, pclath, cstack
;; Tracked objects:
;;		On entry : 17F/0
;;		On exit  : 60/20
;;		Unchanged: 0/0
;; Data sizes:     COMMON   BANK0   BANK1   BANK3   BANK2
;;      Params:         0       0       0       0       0
;;      Locals:         0       0       0       0       0
;;      Temps:          0       2       0       0       0
;;      Totals:         0       2       0       0       0
;;Total ram usage:        2 bytes
;; Hardware stack levels required when called:    5
;; This function calls:
;;		_lcd_init
;;		_read_adc_AN3
;;		_lcd_gotoxy
;;		_printf
;;		_read_adc_AN12
;; This function is called by:
;;		Startup code after reset
;; This function uses a non-reentrant model
;;
psect	maintext
	file	"D:\TTVXL\Project TTVXL\BT01week11ttvxl\BT01week11ttvxl.c"
	line	36
	global	__size_of_main
	__size_of_main	equ	__end_of_main-_main
	
_main:	
	opt	stack 3
; Regs used in _main: [wreg-fsr0h+status,2+status,0+btemp+1+pclath+cstack]
	line	37
	
l7084:	
;BT01week11ttvxl.c: 37: ANSEL = ANSELH = 0;
	bsf	status, 5	;RP0=1, select bank3
	bsf	status, 6	;RP1=1, select bank3
	clrf	(393)^0180h	;volatile
	clrf	(392)^0180h	;volatile
	line	38
	
l7086:	
;BT01week11ttvxl.c: 38: lcd_init();
	fcall	_lcd_init
	line	39
	
l7088:	
;BT01week11ttvxl.c: 39: TRISE0 = TRISE1 = 0;
	bsf	status, 5	;RP0=1, select bank1
	bcf	(1097/8)^080h,(1097)&7
	bcf	(1096/8)^080h,(1096)&7
	line	40
	
l7090:	
;BT01week11ttvxl.c: 40: TRISD= 0x00;
	clrf	(136)^080h	;volatile
	line	41
	
l7092:	
;BT01week11ttvxl.c: 41: TRISA3 = 1;
	bsf	(1067/8)^080h,(1067)&7
	line	42
	
l7094:	
;BT01week11ttvxl.c: 42: ANS3 = 1;
	bsf	status, 6	;RP1=1, select bank3
	bsf	(3139/8)^0180h,(3139)&7
	line	43
	
l7096:	
;BT01week11ttvxl.c: 43: TRISB0 = 1;
	bcf	status, 6	;RP1=0, select bank1
	bsf	(1072/8)^080h,(1072)&7
	line	44
	
l7098:	
;BT01week11ttvxl.c: 44: ANS12 = 1;
	bsf	status, 6	;RP1=1, select bank3
	bsf	(3148/8)^0180h,(3148)&7
	line	46
	
l7100:	
;BT01week11ttvxl.c: 46: VCFG1 = 0;VCFG0 = 0;
	bcf	status, 6	;RP1=0, select bank1
	bcf	(1277/8)^080h,(1277)&7
	
l7102:	
	bcf	(1276/8)^080h,(1276)&7
	line	47
	
l7104:	
;BT01week11ttvxl.c: 47: ADCS1 = 0; ADCS0 = 1;
	bcf	status, 5	;RP0=0, select bank0
	bcf	(255/8),(255)&7
	
l7106:	
	bsf	(254/8),(254)&7
	line	48
	
l7108:	
;BT01week11ttvxl.c: 48: ADFM = 1;
	bsf	status, 5	;RP0=1, select bank1
	bsf	(1279/8)^080h,(1279)&7
	line	49
	
l7110:	
;BT01week11ttvxl.c: 49: ADON = 1;
	bcf	status, 5	;RP0=0, select bank0
	bsf	(248/8),(248)&7
	line	50
	
l7112:	
;BT01week11ttvxl.c: 50: _delay((unsigned long)((10)*(4000000/4000.0)));
	opt asmopt_off
movlw	13
movwf	((??_main+0)+0+1),f
	movlw	251
movwf	((??_main+0)+0),f
u3797:
	decfsz	((??_main+0)+0),f
	goto	u3797
	decfsz	((??_main+0)+0+1),f
	goto	u3797
	nop2
opt asmopt_on

	line	53
	
l7114:	
;BT01week11ttvxl.c: 52: {
;BT01week11ttvxl.c: 53: read_adc_AN3();
	fcall	_read_adc_AN3
	line	54
	
l7116:	
;BT01week11ttvxl.c: 54: lcd_gotoxy(0,0);
	clrf	(?_lcd_gotoxy)
	movlw	(0)
	fcall	_lcd_gotoxy
	line	55
	
l7118:	
;BT01week11ttvxl.c: 55: printf("Dien ap 1: %3.1f",res1);
	movf	(_res1),w
	movwf	(?_printf)
	movf	(_res1+1),w
	movwf	(?_printf+1)
	movf	(_res1+2),w
	movwf	(?_printf+2)
	movlw	((STR_1-__stringbase))&0ffh
	fcall	_printf
	line	56
	
l7120:	
;BT01week11ttvxl.c: 56: read_adc_AN12();
	fcall	_read_adc_AN12
	line	57
	
l7122:	
;BT01week11ttvxl.c: 57: lcd_gotoxy(0,1);
	clrf	(?_lcd_gotoxy)
	incf	(?_lcd_gotoxy),f
	movlw	(0)
	fcall	_lcd_gotoxy
	line	58
	
l7124:	
;BT01week11ttvxl.c: 58: printf("Dien ap 2: %3.1f",res2);
	movf	(_res2),w
	movwf	(?_printf)
	movf	(_res2+1),w
	movwf	(?_printf+1)
	movf	(_res2+2),w
	movwf	(?_printf+2)
	movlw	((STR_2-__stringbase))&0ffh
	fcall	_printf
	goto	l7114
	global	start
	ljmp	start
	opt stack 0
psect	maintext
	line	60
GLOBAL	__end_of_main
	__end_of_main:
;; =============== function _main ends ============

	signat	_main,88
	global	_printf
psect	text547,local,class=CODE,delta=2
global __ptext547
__ptext547:

;; *************** function _printf *****************
;; Defined at:
;;		line 461 in file "C:\Program Files (x86)\HI-TECH Software\PICC\9.83\lib\doprnt.c"
;; Parameters:    Size  Location     Type
;;  f               1    wreg     PTR const unsigned char 
;;		 -> STR_2(17), STR_1(17), 
;; Auto vars:     Size  Location     Type
;;  f               1   14[BANK1 ] PTR const unsigned char 
;;		 -> STR_2(17), STR_1(17), 
;;  _val            4    8[BANK1 ] struct .
;;  fval            3   19[BANK1 ] struct .
;;  integ           3    5[BANK1 ] struct .
;;  ival            3    0        struct .
;;  prec            2   22[BANK1 ] int 
;;  exp             2   17[BANK1 ] int 
;;  width           2   15[BANK1 ] int 
;;  flag            2   12[BANK1 ] unsigned short 
;;  c               1   24[BANK1 ] char 
;;  ap              1    4[BANK1 ] PTR void [1]
;;		 -> ?_printf(2), 
;;  d               1    0        unsigned char 
;; Return value:  Size  Location     Type
;;                  2   52[BANK0 ] int 
;; Registers used:
;;		wreg, fsr0l, fsr0h, status,2, status,0, btemp+1, pclath, cstack
;; Tracked objects:
;;		On entry : 60/0
;;		On exit  : 60/20
;;		Unchanged: 0/0
;; Data sizes:     COMMON   BANK0   BANK1   BANK3   BANK2
;;      Params:         0       3       0       0       0
;;      Locals:         0       0      25       0       0
;;      Temps:          0       5       0       0       0
;;      Totals:         0       8      25       0       0
;;Total ram usage:       33 bytes
;; Hardware stack levels used:    1
;; Hardware stack levels required when called:    4
;; This function calls:
;;		_putch
;;		_isdigit
;;		___wmul
;;		___ftge
;;		___ftneg
;;		___awdiv
;;		_scale
;;		___ftmul
;;		_fround
;;		___ftadd
;;		___fttol
;;		__div_to_l_
;;		__tdiv_to_l_
;;		___lltoft
;;		___ftsub
;;		___lldiv
;;		___llmod
;; This function is called by:
;;		_main
;; This function uses a non-reentrant model
;;
psect	text547
	file	"C:\Program Files (x86)\HI-TECH Software\PICC\9.83\sources\doprnt.c"
	line	461
	global	__size_of_printf
	__size_of_printf	equ	__end_of_printf-_printf
	
_printf:	
	opt	stack 3
; Regs used in _printf: [wreg-fsr0h+status,2+status,0+btemp+1+pclath+cstack]
;printf@f stored from wreg
	line	537
	bsf	status, 5	;RP0=1, select bank1
	movwf	(printf@f)^080h
	
l6856:	
	movlw	(?_printf)&0ffh
	movwf	(printf@ap)^080h
	line	540
	goto	l7082
	line	542
	
l6858:	
	movf	(printf@c)^080h,w
	xorlw	025h
	skipnz
	goto	u3351
	goto	u3350
u3351:
	goto	l6862
u3350:
	line	545
	
l6860:	
	movf	(printf@c)^080h,w
	fcall	_putch
	line	546
	goto	l7082
	line	550
	
l6862:	
	clrf	(printf@width)^080h
	clrf	(printf@width+1)^080h
	line	552
	clrf	(printf@flag)^080h
	clrf	(printf@flag+1)^080h
	line	601
	
l6864:	
	movf	(printf@f)^080h,w
	movwf	fsr0
	fcall	stringdir
	fcall	_isdigit
	btfss	status,0
	goto	u3361
	goto	u3360
u3361:
	goto	l6874
u3360:
	line	602
	
l6866:	
	clrf	(printf@width)^080h
	clrf	(printf@width+1)^080h
	line	604
	
l6868:	
	movf	(printf@width+1)^080h,w
	movwf	(?___wmul+1)
	movf	(printf@width)^080h,w
	movwf	(?___wmul)
	movlw	0Ah
	movwf	0+(?___wmul)+02h
	clrf	1+(?___wmul)+02h
	fcall	___wmul
	movf	(printf@f)^080h,w
	movwf	fsr0
	fcall	stringdir
	addwf	(0+(?___wmul)),w
	bcf	status, 5	;RP0=0, select bank0
	movwf	(??_printf+0)+0
	movlw	0
	skipnc
	movlw	1
	addwf	(1+(?___wmul)),w
	movwf	1+(??_printf+0)+0
	movf	0+(??_printf+0)+0,w
	addlw	low(0FFD0h)
	bsf	status, 5	;RP0=1, select bank1
	movwf	(printf@width)^080h
	bcf	status, 5	;RP0=0, select bank0
	movf	1+(??_printf+0)+0,w
	skipnc
	addlw	1
	addlw	high(0FFD0h)
	bsf	status, 5	;RP0=1, select bank1
	movwf	1+(printf@width)^080h
	
l6870:	
	incf	(printf@f)^080h,f
	line	605
	
l6872:	
	movf	(printf@f)^080h,w
	movwf	fsr0
	fcall	stringdir
	fcall	_isdigit
	btfsc	status,0
	goto	u3371
	goto	u3370
u3371:
	goto	l6868
u3370:
	line	614
	
l6874:	
	movf	(printf@f)^080h,w
	movwf	fsr0
	fcall	stringdir
	xorlw	02Eh
	skipz
	goto	u3381
	goto	u3380
u3381:
	goto	l6888
u3380:
	line	615
	
l6876:	
	bsf	(printf@flag)^080h+(14/8),(14)&7
	line	616
	
l6878:	
	incf	(printf@f)^080h,f
	line	624
	
l6880:	
	clrf	(printf@prec)^080h
	clrf	(printf@prec+1)^080h
	line	625
	goto	l6886
	line	626
	
l6882:	
	movf	(printf@prec+1)^080h,w
	movwf	(?___wmul+1)
	movf	(printf@prec)^080h,w
	movwf	(?___wmul)
	movlw	0Ah
	movwf	0+(?___wmul)+02h
	clrf	1+(?___wmul)+02h
	fcall	___wmul
	movf	(printf@f)^080h,w
	movwf	fsr0
	fcall	stringdir
	addwf	(0+(?___wmul)),w
	bcf	status, 5	;RP0=0, select bank0
	movwf	(??_printf+0)+0
	movlw	0
	skipnc
	movlw	1
	addwf	(1+(?___wmul)),w
	movwf	1+(??_printf+0)+0
	movf	0+(??_printf+0)+0,w
	addlw	low(0FFD0h)
	bsf	status, 5	;RP0=1, select bank1
	movwf	(printf@prec)^080h
	bcf	status, 5	;RP0=0, select bank0
	movf	1+(??_printf+0)+0,w
	skipnc
	addlw	1
	addlw	high(0FFD0h)
	bsf	status, 5	;RP0=1, select bank1
	movwf	1+(printf@prec)^080h
	
l6884:	
	incf	(printf@f)^080h,f
	line	625
	
l6886:	
	movf	(printf@f)^080h,w
	movwf	fsr0
	fcall	stringdir
	fcall	_isdigit
	btfsc	status,0
	goto	u3391
	goto	u3390
u3391:
	goto	l6882
u3390:
	goto	l6894
	line	629
	
l6888:	
	clrf	(printf@prec)^080h
	clrf	(printf@prec+1)^080h
	line	631
	
l6890:	
	bsf	(printf@flag)^080h+(12/8),(12)&7
	goto	l6894
	line	665
	
l2212:	
	line	666
	bsf	(printf@flag)^080h+(10/8),(10)&7
	line	667
	goto	l6896
	line	638
	
l6894:	
	movf	(printf@f)^080h,w
	incf	(printf@f)^080h,f
	movwf	fsr0
	fcall	stringdir
	movwf	(printf@c)^080h
	; Switch size 1, requested type "space"
; Number of cases is 2, Range of values is 0 to 102
; switch strategies available:
; Name         Instructions Cycles
; simple_byte            7     4 (average)
; jumptable            260     6 (fixed)
; rangetable           107     6 (fixed)
; spacedrange          212     9 (fixed)
; locatedrange         103     3 (fixed)
;	Chosen strategy is simple_byte

	opt asmopt_off
	xorlw	0^0	; case 0
	skipnz
	goto	l2273
	xorlw	102^0	; case 102
	skipnz
	goto	l2212
	goto	l7082
	opt asmopt_on

	line	828
	
l6896:	
	movlw	low(0700h)
	andwf	(printf@flag)^080h,w
	bcf	status, 5	;RP0=0, select bank0
	movwf	(??_printf+0)+0
	movlw	high(0700h)
	bsf	status, 5	;RP0=1, select bank1
	andwf	(printf@flag+1)^080h,w
	bcf	status, 5	;RP0=0, select bank0
	movwf	1+(??_printf+0)+0
	movf	1+(??_printf+0)+0,w
	iorwf	0+(??_printf+0)+0,w
	skipnz
	goto	u3401
	goto	u3400
u3401:
	goto	l7038
u3400:
	line	830
	
l6898:	
	bsf	status, 5	;RP0=1, select bank1
	btfss	(printf@flag+1)^080h,(12)&7
	goto	u3411
	goto	u3410
u3411:
	goto	l6902
u3410:
	line	832
	
l6900:	
	movlw	06h
	movwf	(printf@prec)^080h
	clrf	(printf@prec+1)^080h
	line	833
	
l6902:	
	movf	(printf@ap)^080h,w
	movwf	fsr0
	bcf	status, 7	;select IRP bank0
	movf	indf,w
	movwf	(printf@fval)^080h
	incf	fsr0,f
	movf	indf,w
	movwf	(printf@fval+1)^080h
	incf	fsr0,f
	movf	indf,w
	movwf	(printf@fval+2)^080h
	
l6904:	
	movlw	(03h)
	addwf	(printf@ap)^080h,f
	line	834
	
l6906:	
	movf	(printf@fval)^080h,w
	movwf	(?___ftge)
	movf	(printf@fval+1)^080h,w
	movwf	(?___ftge+1)
	movf	(printf@fval+2)^080h,w
	movwf	(?___ftge+2)
	clrf	0+(?___ftge)+03h
	clrf	1+(?___ftge)+03h
	clrf	2+(?___ftge)+03h
	fcall	___ftge
	btfsc	status,0
	goto	u3421
	goto	u3420
u3421:
	goto	l6912
u3420:
	line	835
	
l6908:	
	movf	(printf@fval)^080h,w
	movwf	(?___ftneg)
	movf	(printf@fval+1)^080h,w
	movwf	(?___ftneg+1)
	movf	(printf@fval+2)^080h,w
	movwf	(?___ftneg+2)
	fcall	___ftneg
	movf	(0+(?___ftneg)),w
	movwf	(printf@fval)^080h
	movf	(1+(?___ftneg)),w
	movwf	(printf@fval+1)^080h
	movf	(2+(?___ftneg)),w
	movwf	(printf@fval+2)^080h
	line	836
	
l6910:	
	movlw	03h
	iorwf	(printf@flag)^080h,f
	line	838
	
l6912:	
	clrf	(printf@exp)^080h
	clrf	(printf@exp+1)^080h
	line	839
	
l6914:	
	movf	(printf@fval+2)^080h,w
	iorwf	(printf@fval+1)^080h,w
	iorwf	(printf@fval)^080h,w
	skipnz
	goto	u3431
	goto	u3430
u3431:
	goto	l6944
u3430:
	line	840
	
l6916:	
	movlw	low(printf@fval)
	movwf	fsr0
	movf	indf,w
	bcf	status, 5	;RP0=0, select bank0
	movwf	(??_printf+0)+0+0
	incf	fsr0,f
	movf	indf,w
	movwf	(??_printf+0)+0+1
	incf	fsr0,f
	movf	indf,w
	movwf	(??_printf+0)+0+2
	incf	fsr0,f
	movf	indf,w
	movwf	(??_printf+0)+0+3
	movlw	0Fh
u3445:
	clrc
	rrf	(??_printf+0)+3,f
	rrf	(??_printf+0)+2,f
	rrf	(??_printf+0)+1,f
	rrf	(??_printf+0)+0,f
u3440:
	addlw	-1
	skipz
	goto	u3445
	movf	1+(??_printf+0)+0,w
	bsf	status, 5	;RP0=1, select bank1
	movwf	(printf@exp+1)^080h
	bcf	status, 5	;RP0=0, select bank0
	movf	0+(??_printf+0)+0,w
	bsf	status, 5	;RP0=1, select bank1
	movwf	(printf@exp)^080h
	
l6918:	
	movlw	0FFh
	andwf	(printf@exp)^080h,f
	clrf	(printf@exp+1)^080h
	
l6920:	
	movlw	-126
	addwf	(printf@exp)^080h,f
	skipc
	decf	(printf@exp+1)^080h,f
	line	841
	
l6922:	
	movlw	-1
	addwf	(printf@exp)^080h,f
	skipc
	decf	(printf@exp+1)^080h,f
	line	842
	
l6924:	
	movlw	03h
	movwf	(?___wmul)
	clrf	(?___wmul+1)
	movf	(printf@exp+1)^080h,w
	movwf	1+(?___wmul)+02h
	movf	(printf@exp)^080h,w
	movwf	0+(?___wmul)+02h
	fcall	___wmul
	movf	(1+(?___wmul)),w
	movwf	(printf@exp+1)^080h
	movf	(0+(?___wmul)),w
	movwf	(printf@exp)^080h
	line	843
	
l6926:	
	movlw	0Ah
	movwf	(?___awdiv)
	clrf	(?___awdiv+1)
	movf	(printf@exp+1)^080h,w
	movwf	1+(?___awdiv)+02h
	movf	(printf@exp)^080h,w
	movwf	0+(?___awdiv)+02h
	fcall	___awdiv
	movf	(1+(?___awdiv)),w
	movwf	(printf@exp+1)^080h
	movf	(0+(?___awdiv)),w
	movwf	(printf@exp)^080h
	line	844
	
l6928:	
	btfss	(printf@exp+1)^080h,7
	goto	u3451
	goto	u3450
u3451:
	goto	l6932
u3450:
	line	845
	
l6930:	
	movlw	-1
	addwf	(printf@exp)^080h,f
	skipc
	decf	(printf@exp+1)^080h,f
	line	849
	
l6932:	
	decf	(printf@exp)^080h,w
	xorlw	0ffh
	fcall	_scale
	movf	(0+(?_scale)),w
	bsf	status, 5	;RP0=1, select bank1
	movwf	(printf@integ)^080h
	bcf	status, 5	;RP0=0, select bank0
	movf	(1+(?_scale)),w
	bsf	status, 5	;RP0=1, select bank1
	movwf	(printf@integ+1)^080h
	bcf	status, 5	;RP0=0, select bank0
	movf	(2+(?_scale)),w
	bsf	status, 5	;RP0=1, select bank1
	movwf	(printf@integ+2)^080h
	line	850
	
l6934:	
	movf	(printf@fval)^080h,w
	bcf	status, 5	;RP0=0, select bank0
	movwf	(?___ftmul)
	bsf	status, 5	;RP0=1, select bank1
	movf	(printf@fval+1)^080h,w
	bcf	status, 5	;RP0=0, select bank0
	movwf	(?___ftmul+1)
	bsf	status, 5	;RP0=1, select bank1
	movf	(printf@fval+2)^080h,w
	bcf	status, 5	;RP0=0, select bank0
	movwf	(?___ftmul+2)
	bsf	status, 5	;RP0=1, select bank1
	movf	(printf@integ)^080h,w
	bcf	status, 5	;RP0=0, select bank0
	movwf	0+(?___ftmul)+03h
	bsf	status, 5	;RP0=1, select bank1
	movf	(printf@integ+1)^080h,w
	bcf	status, 5	;RP0=0, select bank0
	movwf	1+(?___ftmul)+03h
	bsf	status, 5	;RP0=1, select bank1
	movf	(printf@integ+2)^080h,w
	bcf	status, 5	;RP0=0, select bank0
	movwf	2+(?___ftmul)+03h
	fcall	___ftmul
	movf	(0+(?___ftmul)),w
	bsf	status, 5	;RP0=1, select bank1
	movwf	(printf@integ)^080h
	bcf	status, 5	;RP0=0, select bank0
	movf	(1+(?___ftmul)),w
	bsf	status, 5	;RP0=1, select bank1
	movwf	(printf@integ+1)^080h
	bcf	status, 5	;RP0=0, select bank0
	movf	(2+(?___ftmul)),w
	bsf	status, 5	;RP0=1, select bank1
	movwf	(printf@integ+2)^080h
	line	851
	
l6936:	
	movf	(printf@integ)^080h,w
	movwf	(?___ftge)
	movf	(printf@integ+1)^080h,w
	movwf	(?___ftge+1)
	movf	(printf@integ+2)^080h,w
	movwf	(?___ftge+2)
	movlw	0x0
	movwf	0+(?___ftge)+03h
	movlw	0x80
	movwf	1+(?___ftge)+03h
	movlw	0x3f
	movwf	2+(?___ftge)+03h
	fcall	___ftge
	btfsc	status,0
	goto	u3461
	goto	u3460
u3461:
	goto	l6940
u3460:
	line	852
	
l6938:	
	movlw	-1
	addwf	(printf@exp)^080h,f
	skipc
	decf	(printf@exp+1)^080h,f
	goto	l6944
	line	853
	
l6940:	
	movf	(printf@integ)^080h,w
	movwf	(?___ftge)
	movf	(printf@integ+1)^080h,w
	movwf	(?___ftge+1)
	movf	(printf@integ+2)^080h,w
	movwf	(?___ftge+2)
	movlw	0x0
	movwf	0+(?___ftge)+03h
	movlw	0x20
	movwf	1+(?___ftge)+03h
	movlw	0x41
	movwf	2+(?___ftge)+03h
	fcall	___ftge
	btfss	status,0
	goto	u3471
	goto	u3470
u3471:
	goto	l6944
u3470:
	line	854
	
l6942:	
	incf	(printf@exp)^080h,f
	skipnz
	incf	(printf@exp+1)^080h,f
	line	1115
	
l6944:	
	movf	(printf@prec+1)^080h,w
	xorlw	80h
	movwf	btemp+1
	movlw	(high(0Dh))^80h
	subwf	btemp+1,w
	skipz
	goto	u3485
	movlw	low(0Dh)
	subwf	(printf@prec)^080h,w
u3485:

	skipnc
	goto	u3481
	goto	u3480
u3481:
	goto	l6948
u3480:
	line	1116
	
l6946:	
	bsf	status, 5	;RP0=1, select bank1
	bcf	status, 6	;RP1=0, select bank1
	movf	(printf@prec)^080h,w
	fcall	_fround
	movf	(0+(?_fround)),w
	movwf	(?___ftadd)
	movf	(1+(?_fround)),w
	movwf	(?___ftadd+1)
	movf	(2+(?_fround)),w
	movwf	(?___ftadd+2)
	bsf	status, 5	;RP0=1, select bank1
	movf	(printf@fval)^080h,w
	bcf	status, 5	;RP0=0, select bank0
	movwf	0+(?___ftadd)+03h
	bsf	status, 5	;RP0=1, select bank1
	movf	(printf@fval+1)^080h,w
	bcf	status, 5	;RP0=0, select bank0
	movwf	1+(?___ftadd)+03h
	bsf	status, 5	;RP0=1, select bank1
	movf	(printf@fval+2)^080h,w
	bcf	status, 5	;RP0=0, select bank0
	movwf	2+(?___ftadd)+03h
	fcall	___ftadd
	movf	(0+(?___ftadd)),w
	bsf	status, 5	;RP0=1, select bank1
	movwf	(printf@fval)^080h
	bcf	status, 5	;RP0=0, select bank0
	movf	(1+(?___ftadd)),w
	bsf	status, 5	;RP0=1, select bank1
	movwf	(printf@fval+1)^080h
	bcf	status, 5	;RP0=0, select bank0
	movf	(2+(?___ftadd)),w
	bsf	status, 5	;RP0=1, select bank1
	movwf	(printf@fval+2)^080h
	line	1119
	
l6948:	
	bsf	status, 5	;RP0=1, select bank1
	bcf	status, 6	;RP1=0, select bank1
	movf	(printf@exp+1)^080h,w
	xorlw	80h
	movwf	btemp+1
	movlw	(high(0Ah))^80h
	subwf	btemp+1,w
	skipz
	goto	u3495
	movlw	low(0Ah)
	subwf	(printf@exp)^080h,w
u3495:

	skipnc
	goto	u3491
	goto	u3490
u3491:
	goto	l6956
u3490:
	
l6950:	
	bsf	status, 5	;RP0=1, select bank1
	bcf	status, 6	;RP1=0, select bank1
	movf	(printf@fval+2)^080h,w
	iorwf	(printf@fval+1)^080h,w
	iorwf	(printf@fval)^080h,w
	skipnz
	goto	u3501
	goto	u3500
u3501:
	goto	l6972
u3500:
	
l6952:	
	movf	(printf@fval)^080h,w
	bcf	status, 5	;RP0=0, select bank0
	movwf	(?___fttol)
	bsf	status, 5	;RP0=1, select bank1
	movf	(printf@fval+1)^080h,w
	bcf	status, 5	;RP0=0, select bank0
	movwf	(?___fttol+1)
	bsf	status, 5	;RP0=1, select bank1
	movf	(printf@fval+2)^080h,w
	bcf	status, 5	;RP0=0, select bank0
	movwf	(?___fttol+2)
	fcall	___fttol
	movf	(3+(?___fttol)),w
	iorwf	(2+(?___fttol)),w
	iorwf	(1+(?___fttol)),w
	iorwf	(0+(?___fttol)),w
	skipz
	goto	u3511
	goto	u3510
u3511:
	goto	l6972
u3510:
	
l6954:	
	bsf	status, 5	;RP0=1, select bank1
	movf	(printf@exp+1)^080h,w
	xorlw	80h
	movwf	btemp+1
	movlw	(high(02h))^80h
	subwf	btemp+1,w
	skipz
	goto	u3525
	movlw	low(02h)
	subwf	(printf@exp)^080h,w
u3525:

	skipc
	goto	u3521
	goto	u3520
u3521:
	goto	l6972
u3520:
	line	1123
	
l6956:	
	bsf	status, 5	;RP0=1, select bank1
	bcf	status, 6	;RP1=0, select bank1
	movf	(printf@integ)^080h,w
	movwf	(?___ftge)
	movf	(printf@integ+1)^080h,w
	movwf	(?___ftge+1)
	movf	(printf@integ+2)^080h,w
	movwf	(?___ftge+2)
	movlw	0x70
	movwf	0+(?___ftge)+03h
	movlw	0x89
	movwf	1+(?___ftge)+03h
	movlw	0x40
	movwf	2+(?___ftge)+03h
	fcall	___ftge
	btfsc	status,0
	goto	u3531
	goto	u3530
u3531:
	goto	l6960
u3530:
	line	1124
	
l6958:	
	movlw	-9
	addwf	(printf@exp)^080h,f
	skipc
	decf	(printf@exp+1)^080h,f
	line	1125
	goto	l6962
	line	1126
	
l6960:	
	movlw	-8
	addwf	(printf@exp)^080h,f
	skipc
	decf	(printf@exp+1)^080h,f
	line	1128
	
l6962:	
	movf	(printf@exp)^080h,w
	fcall	_scale
	movf	(0+(?_scale)),w
	bsf	status, 5	;RP0=1, select bank1
	movwf	(printf@integ)^080h
	bcf	status, 5	;RP0=0, select bank0
	movf	(1+(?_scale)),w
	bsf	status, 5	;RP0=1, select bank1
	movwf	(printf@integ+1)^080h
	bcf	status, 5	;RP0=0, select bank0
	movf	(2+(?_scale)),w
	bsf	status, 5	;RP0=1, select bank1
	movwf	(printf@integ+2)^080h
	line	1129
	
l6966:	
	movf	(printf@fval)^080h,w
	movwf	(?__tdiv_to_l_)
	movf	(printf@fval+1)^080h,w
	movwf	(?__tdiv_to_l_+1)
	movf	(printf@fval+2)^080h,w
	movwf	(?__tdiv_to_l_+2)
	movf	(printf@integ)^080h,w
	movwf	0+(?__tdiv_to_l_)+03h
	movf	(printf@integ+1)^080h,w
	movwf	1+(?__tdiv_to_l_)+03h
	movf	(printf@integ+2)^080h,w
	movwf	2+(?__tdiv_to_l_)+03h
	fcall	__tdiv_to_l_
	movf	(3+(?__tdiv_to_l_)),w
	bsf	status, 5	;RP0=1, select bank1
	movwf	(_printf$3162+3)^080h
	movf	(2+(?__tdiv_to_l_)),w
	movwf	(_printf$3162+2)^080h
	movf	(1+(?__tdiv_to_l_)),w
	movwf	(_printf$3162+1)^080h
	movf	(0+(?__tdiv_to_l_)),w
	movwf	(_printf$3162)^080h

	
l6968:	
	movf	(_printf$3162+3)^080h,w
	movwf	(printf@_val+3)^080h
	movf	(_printf$3162+2)^080h,w
	movwf	(printf@_val+2)^080h
	movf	(_printf$3162+1)^080h,w
	movwf	(printf@_val+1)^080h
	movf	(_printf$3162)^080h,w
	movwf	(printf@_val)^080h

	line	1132
	
l6970:	
	clrf	(printf@fval)^080h
	clrf	(printf@fval+1)^080h
	clrf	(printf@fval+2)^080h
	line	1133
	goto	l6976
	line	1134
	
l6972:	
	bsf	status, 5	;RP0=1, select bank1
	bcf	status, 6	;RP1=0, select bank1
	movf	(printf@fval)^080h,w
	bcf	status, 5	;RP0=0, select bank0
	movwf	(?___fttol)
	bsf	status, 5	;RP0=1, select bank1
	movf	(printf@fval+1)^080h,w
	bcf	status, 5	;RP0=0, select bank0
	movwf	(?___fttol+1)
	bsf	status, 5	;RP0=1, select bank1
	movf	(printf@fval+2)^080h,w
	bcf	status, 5	;RP0=0, select bank0
	movwf	(?___fttol+2)
	fcall	___fttol
	movf	(3+(?___fttol)),w
	bsf	status, 5	;RP0=1, select bank1
	movwf	(printf@_val+3)^080h
	bcf	status, 5	;RP0=0, select bank0
	movf	(2+(?___fttol)),w
	bsf	status, 5	;RP0=1, select bank1
	movwf	(printf@_val+2)^080h
	bcf	status, 5	;RP0=0, select bank0
	movf	(1+(?___fttol)),w
	bsf	status, 5	;RP0=1, select bank1
	movwf	(printf@_val+1)^080h
	bcf	status, 5	;RP0=0, select bank0
	movf	(0+(?___fttol)),w
	bsf	status, 5	;RP0=1, select bank1
	movwf	(printf@_val)^080h

	line	1135
	movf	(printf@_val+3)^080h,w
	movwf	(?___lltoft+3)
	movf	(printf@_val+2)^080h,w
	movwf	(?___lltoft+2)
	movf	(printf@_val+1)^080h,w
	movwf	(?___lltoft+1)
	movf	(printf@_val)^080h,w
	movwf	(?___lltoft)

	fcall	___lltoft
	movf	(0+(?___lltoft)),w
	bcf	status, 5	;RP0=0, select bank0
	movwf	(?___ftsub)
	movf	(1+(?___lltoft)),w
	movwf	(?___ftsub+1)
	movf	(2+(?___lltoft)),w
	movwf	(?___ftsub+2)
	bsf	status, 5	;RP0=1, select bank1
	movf	(printf@fval)^080h,w
	bcf	status, 5	;RP0=0, select bank0
	movwf	0+(?___ftsub)+03h
	bsf	status, 5	;RP0=1, select bank1
	movf	(printf@fval+1)^080h,w
	bcf	status, 5	;RP0=0, select bank0
	movwf	1+(?___ftsub)+03h
	bsf	status, 5	;RP0=1, select bank1
	movf	(printf@fval+2)^080h,w
	bcf	status, 5	;RP0=0, select bank0
	movwf	2+(?___ftsub)+03h
	fcall	___ftsub
	movf	(0+(?___ftsub)),w
	bsf	status, 5	;RP0=1, select bank1
	movwf	(printf@fval)^080h
	bcf	status, 5	;RP0=0, select bank0
	movf	(1+(?___ftsub)),w
	bsf	status, 5	;RP0=1, select bank1
	movwf	(printf@fval+1)^080h
	bcf	status, 5	;RP0=0, select bank0
	movf	(2+(?___ftsub)),w
	bsf	status, 5	;RP0=1, select bank1
	movwf	(printf@fval+2)^080h
	line	1136
	
l6974:	
	clrf	(printf@exp)^080h
	clrf	(printf@exp+1)^080h
	line	1139
	
l6976:	
	clrf	(printf@c)^080h
	incf	(printf@c)^080h,f
	line	1140
	
l6982:	
	movf	(printf@c)^080h,w
	bcf	status, 5	;RP0=0, select bank0
	movwf	(??_printf+0)+0
	clrc
	rlf	(??_printf+0)+0,f
	clrc
	rlf	(??_printf+0)+0,w
	addlw	low((_dpowers-__stringbase))
	movwf	fsr0
	fcall	stringdir
	movwf	((??_printf+1)+0)
	fcall	stringdir
	movwf	((??_printf+1)+0+1)
	fcall	stringdir
	movwf	((??_printf+1)+0+2)
	fcall	stringdir
	movwf	((??_printf+1)+0+3)
	movf	3+(??_printf+1)+0,w
	bsf	status, 5	;RP0=1, select bank1
	subwf	(printf@_val+3)^080h,w
	skipz
	goto	u3545
	bcf	status, 5	;RP0=0, select bank0
	movf	2+(??_printf+1)+0,w
	bsf	status, 5	;RP0=1, select bank1
	subwf	(printf@_val+2)^080h,w
	skipz
	goto	u3545
	bcf	status, 5	;RP0=0, select bank0
	movf	1+(??_printf+1)+0,w
	bsf	status, 5	;RP0=1, select bank1
	subwf	(printf@_val+1)^080h,w
	skipz
	goto	u3545
	bcf	status, 5	;RP0=0, select bank0
	movf	0+(??_printf+1)+0,w
	bsf	status, 5	;RP0=1, select bank1
	subwf	(printf@_val)^080h,w
u3545:
	skipnc
	goto	u3541
	goto	u3540
u3541:
	goto	l6986
u3540:
	goto	l6990
	line	1139
	
l6986:	
	incf	(printf@c)^080h,f
	
l6988:	
	movf	(printf@c)^080h,w
	xorlw	0Ah
	skipz
	goto	u3551
	goto	u3550
u3551:
	goto	l6982
u3550:
	line	1145
	
l6990:	
	movf	(printf@prec)^080h,w
	addwf	(printf@c)^080h,w
	bcf	status, 5	;RP0=0, select bank0
	movwf	(??_printf+0)+0
	bsf	status, 5	;RP0=1, select bank1
	movf	(printf@prec+1)^080h,w
	skipnc
	incf	(printf@prec+1)^080h,w
	addlw	0
	btfsc	(printf@c)^080h,7
	addlw	0ffh
	bcf	status, 5	;RP0=0, select bank0
	movwf	(??_printf+0)+0+1
	bsf	status, 5	;RP0=1, select bank1
	movf	(printf@exp)^080h,w
	bcf	status, 5	;RP0=0, select bank0
	addwf	0+(??_printf+0)+0,w
	movwf	(??_printf+2)+0
	bsf	status, 5	;RP0=1, select bank1
	movf	(printf@exp+1)^080h,w
	skipnc
	incf	(printf@exp+1)^080h,w
	bcf	status, 5	;RP0=0, select bank0
	addwf	1+(??_printf+0)+0,w
	movwf	1+(??_printf+2)+0
	movf	0+(??_printf+2)+0,w
	bsf	status, 5	;RP0=1, select bank1
	subwf	(printf@width)^080h,f
	bcf	status, 5	;RP0=0, select bank0
	movf	1+(??_printf+2)+0,w
	bsf	status, 5	;RP0=1, select bank1
	skipc
	decf	(printf@width+1)^080h,f
	subwf	(printf@width+1)^080h,f
	line	1150
	
l6992:	
	movf	(printf@prec+1)^080h,w
	iorwf	(printf@prec)^080h,w
	skipnz
	goto	u3561
	goto	u3560
u3561:
	goto	l6996
u3560:
	line	1151
	
l6994:	
	movlw	-1
	addwf	(printf@width)^080h,f
	skipc
	decf	(printf@width+1)^080h,f
	line	1152
	
l6996:	
	movf	(printf@flag)^080h,w
	andlw	03h
	btfsc	status,2
	goto	u3571
	goto	u3570
u3571:
	goto	l7004
u3570:
	line	1153
	
l6998:	
	movlw	-1
	bsf	status, 5	;RP0=1, select bank1
	bcf	status, 6	;RP1=0, select bank1
	addwf	(printf@width)^080h,f
	skipc
	decf	(printf@width+1)^080h,f
	goto	l7004
	line	1182
	
l7000:	
	movlw	(020h)
	fcall	_putch
	goto	l6998
	line	1181
	
l7004:	
	movf	(printf@width+1)^080h,w
	xorlw	80h
	movwf	btemp+1
	movlw	(high(01h))^80h
	subwf	btemp+1,w
	skipz
	goto	u3585
	movlw	low(01h)
	subwf	(printf@width)^080h,w
u3585:

	skipnc
	goto	u3581
	goto	u3580
u3581:
	goto	l7000
u3580:
	line	1189
	
l7006:	
	bsf	status, 5	;RP0=1, select bank1
	bcf	status, 6	;RP1=0, select bank1
	movf	(printf@flag)^080h,w
	andlw	03h
	btfsc	status,2
	goto	u3591
	goto	u3590
u3591:
	goto	l7012
u3590:
	line	1191
	
l7008:	
	movlw	(02Dh)
	fcall	_putch
	goto	l7012
	line	1201
	
l7010:	
	movlw	0Ah
	bcf	status, 5	;RP0=0, select bank0
	movwf	(?___llmod)
	clrf	(?___llmod+1)
	clrf	(?___llmod+2)
	clrf	(?___llmod+3)

	bsf	status, 5	;RP0=1, select bank1
	movf	(printf@c)^080h,w
	bcf	status, 5	;RP0=0, select bank0
	movwf	(??_printf+0)+0
	clrc
	rlf	(??_printf+0)+0,f
	clrc
	rlf	(??_printf+0)+0,w
	addlw	low((_dpowers-__stringbase))
	movwf	fsr0
	fcall	stringdir
	movwf	(?___lldiv)
	fcall	stringdir
	movwf	(?___lldiv+1)
	fcall	stringdir
	movwf	(?___lldiv+2)
	fcall	stringdir
	movwf	(?___lldiv+3)
	bsf	status, 5	;RP0=1, select bank1
	movf	(printf@_val+3)^080h,w
	movwf	3+(?___lldiv)+04h
	movf	(printf@_val+2)^080h,w
	movwf	2+(?___lldiv)+04h
	movf	(printf@_val+1)^080h,w
	movwf	1+(?___lldiv)+04h
	movf	(printf@_val)^080h,w
	movwf	0+(?___lldiv)+04h

	fcall	___lldiv
	movf	(3+(?___lldiv)),w
	bcf	status, 5	;RP0=0, select bank0
	movwf	3+(?___llmod)+04h
	movf	(2+(?___lldiv)),w
	movwf	2+(?___llmod)+04h
	movf	(1+(?___lldiv)),w
	movwf	1+(?___llmod)+04h
	movf	(0+(?___lldiv)),w
	movwf	0+(?___llmod)+04h

	fcall	___llmod
	movf	0+(((0+(?___llmod)))),w
	addlw	030h
	fcall	_putch
	line	1197
	
l7012:	
	bsf	status, 5	;RP0=1, select bank1
	bcf	status, 6	;RP1=0, select bank1
	decf	(printf@c)^080h,f
	incf	((printf@c)^080h),w
	skipz
	goto	u3601
	goto	u3600
u3601:
	goto	l7010
u3600:
	goto	l7018
	line	1205
	
l7014:	
	movlw	(030h)
	fcall	_putch
	line	1206
	
l7016:	
	movlw	-1
	bsf	status, 5	;RP0=1, select bank1
	bcf	status, 6	;RP1=0, select bank1
	addwf	(printf@exp)^080h,f
	skipc
	decf	(printf@exp+1)^080h,f
	line	1204
	
l7018:	
	movf	(printf@exp+1)^080h,w
	xorlw	80h
	movwf	btemp+1
	movlw	(high(01h))^80h
	subwf	btemp+1,w
	skipz
	goto	u3615
	movlw	low(01h)
	subwf	(printf@exp)^080h,w
u3615:

	skipnc
	goto	u3611
	goto	u3610
u3611:
	goto	l7014
u3610:
	line	1208
	
l7020:	
	bsf	status, 5	;RP0=1, select bank1
	bcf	status, 6	;RP1=0, select bank1
	movf	(printf@prec+1)^080h,w
	xorlw	80h
	movwf	btemp+1
	movlw	(high(09h))^80h
	subwf	btemp+1,w
	skipz
	goto	u3625
	movlw	low(09h)
	subwf	(printf@prec)^080h,w
u3625:

	skipc
	goto	u3621
	goto	u3620
u3621:
	goto	l7024
u3620:
	line	1209
	
l7022:	
	movlw	(08h)
	bsf	status, 5	;RP0=1, select bank1
	bcf	status, 6	;RP1=0, select bank1
	movwf	(printf@c)^080h
	goto	l2250
	line	1211
	
l7024:	
	bsf	status, 5	;RP0=1, select bank1
	bcf	status, 6	;RP1=0, select bank1
	movf	(printf@prec)^080h,w
	movwf	(printf@c)^080h
	
l2250:	
	line	1212
	movf	(printf@c)^080h,w
	bcf	status, 5	;RP0=0, select bank0
	movwf	(??_printf+0)+0
	clrf	(??_printf+0)+0+1
	btfsc	(??_printf+0)+0,7
	decf	(??_printf+0)+0+1,f
	movf	0+(??_printf+0)+0,w
	bsf	status, 5	;RP0=1, select bank1
	subwf	(printf@prec)^080h,f
	bcf	status, 5	;RP0=0, select bank0
	movf	1+(??_printf+0)+0,w
	bsf	status, 5	;RP0=1, select bank1
	skipc
	decf	(printf@prec+1)^080h,f
	subwf	(printf@prec+1)^080h,f
	line	1216
	movf	(printf@c)^080h,w
	skipz
	goto	u3630
	goto	l2251
u3630:
	line	1218
	
l7026:	
	movlw	(02Eh)
	fcall	_putch
	
l2251:	
	line	1224
	bsf	status, 5	;RP0=1, select bank1
	bcf	status, 6	;RP1=0, select bank1
	movf	(printf@c)^080h,w
	fcall	_scale
	movf	(0+(?_scale)),w
	movwf	0+(?___ftmul)+03h
	movf	(1+(?_scale)),w
	movwf	1+(?___ftmul)+03h
	movf	(2+(?_scale)),w
	movwf	2+(?___ftmul)+03h
	bsf	status, 5	;RP0=1, select bank1
	movf	(printf@fval)^080h,w
	bcf	status, 5	;RP0=0, select bank0
	movwf	(?___ftmul)
	bsf	status, 5	;RP0=1, select bank1
	movf	(printf@fval+1)^080h,w
	bcf	status, 5	;RP0=0, select bank0
	movwf	(?___ftmul+1)
	bsf	status, 5	;RP0=1, select bank1
	movf	(printf@fval+2)^080h,w
	bcf	status, 5	;RP0=0, select bank0
	movwf	(?___ftmul+2)
	fcall	___ftmul
	movf	(0+(?___ftmul)),w
	movwf	(?___fttol)
	movf	(1+(?___ftmul)),w
	movwf	(?___fttol+1)
	movf	(2+(?___ftmul)),w
	movwf	(?___fttol+2)
	fcall	___fttol
	movf	(3+(?___fttol)),w
	bsf	status, 5	;RP0=1, select bank1
	movwf	(printf@_val+3)^080h
	bcf	status, 5	;RP0=0, select bank0
	movf	(2+(?___fttol)),w
	bsf	status, 5	;RP0=1, select bank1
	movwf	(printf@_val+2)^080h
	bcf	status, 5	;RP0=0, select bank0
	movf	(1+(?___fttol)),w
	bsf	status, 5	;RP0=1, select bank1
	movwf	(printf@_val+1)^080h
	bcf	status, 5	;RP0=0, select bank0
	movf	(0+(?___fttol)),w
	bsf	status, 5	;RP0=1, select bank1
	movwf	(printf@_val)^080h

	line	1225
	goto	l7030
	line	1226
	
l7028:	
	movlw	0Ah
	bcf	status, 5	;RP0=0, select bank0
	movwf	(?___llmod)
	clrf	(?___llmod+1)
	clrf	(?___llmod+2)
	clrf	(?___llmod+3)

	bsf	status, 5	;RP0=1, select bank1
	movf	(printf@c)^080h,w
	bcf	status, 5	;RP0=0, select bank0
	movwf	(??_printf+0)+0
	clrc
	rlf	(??_printf+0)+0,f
	clrc
	rlf	(??_printf+0)+0,w
	addlw	low((_dpowers-__stringbase))
	movwf	fsr0
	fcall	stringdir
	movwf	(?___lldiv)
	fcall	stringdir
	movwf	(?___lldiv+1)
	fcall	stringdir
	movwf	(?___lldiv+2)
	fcall	stringdir
	movwf	(?___lldiv+3)
	bsf	status, 5	;RP0=1, select bank1
	movf	(printf@_val+3)^080h,w
	movwf	3+(?___lldiv)+04h
	movf	(printf@_val+2)^080h,w
	movwf	2+(?___lldiv)+04h
	movf	(printf@_val+1)^080h,w
	movwf	1+(?___lldiv)+04h
	movf	(printf@_val)^080h,w
	movwf	0+(?___lldiv)+04h

	fcall	___lldiv
	movf	(3+(?___lldiv)),w
	bcf	status, 5	;RP0=0, select bank0
	movwf	3+(?___llmod)+04h
	movf	(2+(?___lldiv)),w
	movwf	2+(?___llmod)+04h
	movf	(1+(?___lldiv)),w
	movwf	1+(?___llmod)+04h
	movf	(0+(?___lldiv)),w
	movwf	0+(?___llmod)+04h

	fcall	___llmod
	movf	0+(((0+(?___llmod)))),w
	addlw	030h
	fcall	_putch
	line	1227
	bsf	status, 5	;RP0=1, select bank1
	bcf	status, 6	;RP1=0, select bank1
	movf	(printf@c)^080h,w
	bcf	status, 5	;RP0=0, select bank0
	movwf	(??_printf+0)+0
	clrc
	rlf	(??_printf+0)+0,f
	clrc
	rlf	(??_printf+0)+0,w
	addlw	low((_dpowers-__stringbase))
	movwf	fsr0
	fcall	stringdir
	movwf	(?___llmod)
	fcall	stringdir
	movwf	(?___llmod+1)
	fcall	stringdir
	movwf	(?___llmod+2)
	fcall	stringdir
	movwf	(?___llmod+3)
	bsf	status, 5	;RP0=1, select bank1
	movf	(printf@_val+3)^080h,w
	bcf	status, 5	;RP0=0, select bank0
	movwf	3+(?___llmod)+04h
	bsf	status, 5	;RP0=1, select bank1
	movf	(printf@_val+2)^080h,w
	bcf	status, 5	;RP0=0, select bank0
	movwf	2+(?___llmod)+04h
	bsf	status, 5	;RP0=1, select bank1
	movf	(printf@_val+1)^080h,w
	bcf	status, 5	;RP0=0, select bank0
	movwf	1+(?___llmod)+04h
	bsf	status, 5	;RP0=1, select bank1
	movf	(printf@_val)^080h,w
	bcf	status, 5	;RP0=0, select bank0
	movwf	0+(?___llmod)+04h

	fcall	___llmod
	movf	(3+(?___llmod)),w
	bsf	status, 5	;RP0=1, select bank1
	movwf	(printf@_val+3)^080h
	bcf	status, 5	;RP0=0, select bank0
	movf	(2+(?___llmod)),w
	bsf	status, 5	;RP0=1, select bank1
	movwf	(printf@_val+2)^080h
	bcf	status, 5	;RP0=0, select bank0
	movf	(1+(?___llmod)),w
	bsf	status, 5	;RP0=1, select bank1
	movwf	(printf@_val+1)^080h
	bcf	status, 5	;RP0=0, select bank0
	movf	(0+(?___llmod)),w
	bsf	status, 5	;RP0=1, select bank1
	movwf	(printf@_val)^080h

	line	1225
	
l7030:	
	decf	(printf@c)^080h,f
	incf	((printf@c)^080h),w
	skipz
	goto	u3641
	goto	u3640
u3641:
	goto	l7028
u3640:
	goto	l7036
	line	1231
	
l7032:	
	movlw	(030h)
	fcall	_putch
	line	1232
	
l7034:	
	movlw	-1
	bsf	status, 5	;RP0=1, select bank1
	bcf	status, 6	;RP1=0, select bank1
	addwf	(printf@prec)^080h,f
	skipc
	decf	(printf@prec+1)^080h,f
	line	1230
	
l7036:	
	movf	((printf@prec+1)^080h),w
	iorwf	((printf@prec)^080h),w
	skipz
	goto	u3651
	goto	u3650
u3651:
	goto	l7032
u3650:
	goto	l7082
	line	1285
	
l7038:	
	bsf	status, 5	;RP0=1, select bank1
	movf	((printf@prec+1)^080h),w
	iorwf	((printf@prec)^080h),w
	skipz
	goto	u3661
	goto	u3660
u3661:
	goto	l7044
u3660:
	
l7040:	
	movf	(printf@_val+3)^080h,w
	iorwf	(printf@_val+2)^080h,w
	iorwf	(printf@_val+1)^080h,w
	iorwf	(printf@_val)^080h,w
	skipz
	goto	u3671
	goto	u3670
u3671:
	goto	l7044
u3670:
	line	1286
	
l7042:	
	incf	(printf@prec)^080h,f
	skipnz
	incf	(printf@prec+1)^080h,f
	line	1334
	
l7044:	
	movf	(printf@c)^080h,w
	bcf	status, 5	;RP0=0, select bank0
	movwf	(??_printf+0)+0
	clrf	(??_printf+0)+0+1
	btfsc	(??_printf+0)+0,7
	decf	(??_printf+0)+0+1,f
	movf	1+(??_printf+0)+0,w
	xorlw	80h
	movwf	(??_printf+2)+0
	bsf	status, 5	;RP0=1, select bank1
	movf	(printf@prec+1)^080h,w
	xorlw	80h
	bcf	status, 5	;RP0=0, select bank0
	subwf	(??_printf+2)+0,w
	skipz
	goto	u3685
	bsf	status, 5	;RP0=1, select bank1
	movf	(printf@prec)^080h,w
	bcf	status, 5	;RP0=0, select bank0
	subwf	0+(??_printf+0)+0,w
u3685:

	skipnc
	goto	u3681
	goto	u3680
u3681:
	goto	l7048
u3680:
	line	1335
	
l7046:	
	bsf	status, 5	;RP0=1, select bank1
	bcf	status, 6	;RP1=0, select bank1
	movf	(printf@prec)^080h,w
	movwf	(printf@c)^080h
	goto	l7052
	line	1336
	
l7048:	
	bsf	status, 5	;RP0=1, select bank1
	bcf	status, 6	;RP1=0, select bank1
	movf	(printf@c)^080h,w
	bcf	status, 5	;RP0=0, select bank0
	movwf	(??_printf+0)+0
	clrf	(??_printf+0)+0+1
	btfsc	(??_printf+0)+0,7
	decf	(??_printf+0)+0+1,f
	bsf	status, 5	;RP0=1, select bank1
	movf	(printf@prec+1)^080h,w
	xorlw	80h
	bcf	status, 5	;RP0=0, select bank0
	movwf	(??_printf+2)+0
	movf	1+(??_printf+0)+0,w
	xorlw	80h
	subwf	(??_printf+2)+0,w
	skipz
	goto	u3695
	movf	0+(??_printf+0)+0,w
	bsf	status, 5	;RP0=1, select bank1
	subwf	(printf@prec)^080h,w
u3695:

	skipnc
	goto	u3691
	goto	u3690
u3691:
	goto	l7052
u3690:
	line	1337
	
l7050:	
	bsf	status, 5	;RP0=1, select bank1
	bcf	status, 6	;RP1=0, select bank1
	movf	(printf@c)^080h,w
	movwf	(printf@prec)^080h
	clrf	(printf@prec+1)^080h
	btfsc	(printf@prec)^080h,7
	decf	(printf@prec+1)^080h,f
	line	1340
	
l7052:	
	bsf	status, 5	;RP0=1, select bank1
	bcf	status, 6	;RP1=0, select bank1
	movf	(printf@width+1)^080h,w
	iorwf	(printf@width)^080h,w
	skipnz
	goto	u3701
	goto	u3700
u3701:
	goto	l7058
u3700:
	
l7054:	
	movf	(printf@flag)^080h,w
	andlw	03h
	btfsc	status,2
	goto	u3711
	goto	u3710
u3711:
	goto	l7058
u3710:
	line	1341
	
l7056:	
	movlw	-1
	addwf	(printf@width)^080h,f
	skipc
	decf	(printf@width+1)^080h,f
	line	1343
	
l7058:	
	btfss	(printf@flag+1)^080h,(14)&7
	goto	u3721
	goto	u3720
u3721:
	goto	l7066
u3720:
	line	1344
	
l7060:	
	movf	(printf@prec+1)^080h,w
	xorlw	80h
	bcf	status, 5	;RP0=0, select bank0
	movwf	(??_printf+0)+0
	bsf	status, 5	;RP0=1, select bank1
	movf	(printf@width+1)^080h,w
	xorlw	80h
	bcf	status, 5	;RP0=0, select bank0
	subwf	(??_printf+0)+0,w
	skipz
	goto	u3735
	bsf	status, 5	;RP0=1, select bank1
	movf	(printf@width)^080h,w
	subwf	(printf@prec)^080h,w
u3735:

	skipnc
	goto	u3731
	goto	u3730
u3731:
	goto	l7064
u3730:
	line	1345
	
l7062:	
	bsf	status, 5	;RP0=1, select bank1
	bcf	status, 6	;RP1=0, select bank1
	movf	(printf@prec)^080h,w
	subwf	(printf@width)^080h,f
	movf	(printf@prec+1)^080h,w
	skipc
	decf	(printf@width+1)^080h,f
	subwf	(printf@width+1)^080h,f
	goto	l7066
	line	1347
	
l7064:	
	bsf	status, 5	;RP0=1, select bank1
	bcf	status, 6	;RP1=0, select bank1
	clrf	(printf@width)^080h
	clrf	(printf@width+1)^080h
	line	1376
	
l7066:	
	movf	(printf@c)^080h,w
	bcf	status, 5	;RP0=0, select bank0
	movwf	(??_printf+0)+0
	clrf	(??_printf+0)+0+1
	btfsc	(??_printf+0)+0,7
	decf	(??_printf+0)+0+1,f
	movf	1+(??_printf+0)+0,w
	xorlw	80h
	movwf	(??_printf+2)+0
	bsf	status, 5	;RP0=1, select bank1
	movf	(printf@width+1)^080h,w
	xorlw	80h
	bcf	status, 5	;RP0=0, select bank0
	subwf	(??_printf+2)+0,w
	skipz
	goto	u3745
	bsf	status, 5	;RP0=1, select bank1
	movf	(printf@width)^080h,w
	bcf	status, 5	;RP0=0, select bank0
	subwf	0+(??_printf+0)+0,w
u3745:

	skipnc
	goto	u3741
	goto	u3740
u3741:
	goto	l7070
u3740:
	line	1377
	
l7068:	
	bsf	status, 5	;RP0=1, select bank1
	bcf	status, 6	;RP1=0, select bank1
	movf	(printf@c)^080h,w
	bcf	status, 5	;RP0=0, select bank0
	movwf	(??_printf+0)+0
	clrf	(??_printf+0)+0+1
	btfsc	(??_printf+0)+0,7
	decf	(??_printf+0)+0+1,f
	movf	0+(??_printf+0)+0,w
	bsf	status, 5	;RP0=1, select bank1
	subwf	(printf@width)^080h,f
	bcf	status, 5	;RP0=0, select bank0
	movf	1+(??_printf+0)+0,w
	bsf	status, 5	;RP0=1, select bank1
	skipc
	decf	(printf@width+1)^080h,f
	subwf	(printf@width+1)^080h,f
	goto	l7072
	line	1379
	
l7070:	
	bsf	status, 5	;RP0=1, select bank1
	bcf	status, 6	;RP1=0, select bank1
	clrf	(printf@width)^080h
	clrf	(printf@width+1)^080h
	line	1423
	
l7072:	
	movf	(printf@width+1)^080h,w
	iorwf	(printf@width)^080h,w
	skipnz
	goto	u3751
	goto	u3750
u3751:
	goto	l7078
u3750:
	line	1425
	
l7074:	
	movlw	(020h)
	fcall	_putch
	line	1426
	
l7076:	
	movlw	-1
	bsf	status, 5	;RP0=1, select bank1
	bcf	status, 6	;RP1=0, select bank1
	addwf	(printf@width)^080h,f
	skipc
	decf	(printf@width+1)^080h,f
	movf	(((printf@width+1)^080h)),w
	iorwf	(((printf@width)^080h)),w
	skipz
	goto	u3761
	goto	u3760
u3761:
	goto	l7074
u3760:
	line	1433
	
l7078:	
	movf	(printf@flag)^080h,w
	andlw	03h
	btfsc	status,2
	goto	u3771
	goto	u3770
u3771:
	goto	l7082
u3770:
	line	1434
	
l7080:	
	movlw	(02Dh)
	fcall	_putch
	line	540
	
l7082:	
	bsf	status, 5	;RP0=1, select bank1
	bcf	status, 6	;RP1=0, select bank1
	movf	(printf@f)^080h,w
	incf	(printf@f)^080h,f
	movwf	fsr0
	fcall	stringdir
	movwf	(printf@c)^080h
	movf	((printf@c)^080h),f
	skipz
	goto	u3781
	goto	u3780
u3781:
	goto	l6858
u3780:
	line	1533
	
l2273:	
	return
	opt stack 0
GLOBAL	__end_of_printf
	__end_of_printf:
;; =============== function _printf ends ============

	signat	_printf,602
	global	_putch
psect	text548,local,class=CODE,delta=2
global __ptext548
__ptext548:

;; *************** function _putch *****************
;; Defined at:
;;		line 62 in file "D:\TTVXL\Project TTVXL\BT01week11ttvxl\BT01week11ttvxl.c"
;; Parameters:    Size  Location     Type
;;  c               1    wreg     unsigned char 
;; Auto vars:     Size  Location     Type
;;  c               1    9[COMMON] unsigned char 
;; Return value:  Size  Location     Type
;;		None               void
;; Registers used:
;;		wreg, fsr0l, fsr0h, status,2, status,0, pclath, cstack
;; Tracked objects:
;;		On entry : 0/20
;;		On exit  : 0/0
;;		Unchanged: 0/0
;; Data sizes:     COMMON   BANK0   BANK1   BANK3   BANK2
;;      Params:         0       0       0       0       0
;;      Locals:         1       0       0       0       0
;;      Temps:          0       0       0       0       0
;;      Totals:         1       0       0       0       0
;;Total ram usage:        1 bytes
;; Hardware stack levels used:    1
;; Hardware stack levels required when called:    3
;; This function calls:
;;		_lcd_putc
;; This function is called by:
;;		_printf
;; This function uses a non-reentrant model
;;
psect	text548
	file	"D:\TTVXL\Project TTVXL\BT01week11ttvxl\BT01week11ttvxl.c"
	line	62
	global	__size_of_putch
	__size_of_putch	equ	__end_of_putch-_putch
	
_putch:	
	opt	stack 3
; Regs used in _putch: [wreg-fsr0h+status,2+status,0+pclath+cstack]
;putch@c stored from wreg
	movwf	(putch@c)
	line	63
	
l6854:	
;BT01week11ttvxl.c: 63: lcd_putc(c);
	movf	(putch@c),w
	fcall	_lcd_putc
	line	64
	
l1065:	
	return
	opt stack 0
GLOBAL	__end_of_putch
	__end_of_putch:
;; =============== function _putch ends ============

	signat	_putch,4216
	global	_lcd_putc
psect	text549,local,class=CODE,delta=2
global __ptext549
__ptext549:

;; *************** function _lcd_putc *****************
;; Defined at:
;;		line 143 in file "D:\TTVXL\Library\lcd(16).c"
;; Parameters:    Size  Location     Type
;;  c               1    wreg     unsigned char 
;; Auto vars:     Size  Location     Type
;;  c               1    8[COMMON] unsigned char 
;; Return value:  Size  Location     Type
;;		None               void
;; Registers used:
;;		wreg, fsr0l, fsr0h, status,2, status,0, pclath, cstack
;; Tracked objects:
;;		On entry : 0/20
;;		On exit  : 0/0
;;		Unchanged: 0/0
;; Data sizes:     COMMON   BANK0   BANK1   BANK3   BANK2
;;      Params:         0       0       0       0       0
;;      Locals:         1       0       0       0       0
;;      Temps:          0       0       0       0       0
;;      Totals:         1       0       0       0       0
;;Total ram usage:        1 bytes
;; Hardware stack levels used:    1
;; Hardware stack levels required when called:    2
;; This function calls:
;;		_lcd_put_byte
;;		_lcd_busy
;;		_lcd_gotoxy
;;		_isprint
;; This function is called by:
;;		_putch
;; This function uses a non-reentrant model
;;
psect	text549
	file	"D:\TTVXL\Library\lcd(16).c"
	line	143
	global	__size_of_lcd_putc
	__size_of_lcd_putc	equ	__end_of_lcd_putc-_lcd_putc
	
_lcd_putc:	
	opt	stack 3
; Regs used in _lcd_putc: [wreg-fsr0h+status,2+status,0+pclath+cstack]
;lcd_putc@c stored from wreg
	movwf	(lcd_putc@c)
	line	144
	
l6836:	
;lcd(16).c: 144: switch(c){
	goto	l6852
	line	146
	
l6838:	
;lcd(16).c: 146: lcd_put_byte(0, 1);
	clrf	(?_lcd_put_byte)
	incf	(?_lcd_put_byte),f
	movlw	(0)
	fcall	_lcd_put_byte
	line	147
;lcd(16).c: 147: while(lcd_busy());
	
l6840:	
	fcall	_lcd_busy
	iorlw	0
	skipz
	goto	u3321
	goto	u3320
u3321:
	goto	l6840
u3320:
	goto	l2147
	line	150
	
l6842:	
;lcd(16).c: 150: lcd_gotoxy(0, 1);
	clrf	(?_lcd_gotoxy)
	incf	(?_lcd_gotoxy),f
	movlw	(0)
	fcall	_lcd_gotoxy
	line	151
;lcd(16).c: 151: break;
	goto	l2147
	line	153
	
l6844:	
;lcd(16).c: 153: if(isprint(c)){
	movf	(lcd_putc@c),w
	fcall	_isprint
	btfss	status,0
	goto	u3331
	goto	u3330
u3331:
	goto	l2147
u3330:
	line	154
	
l6846:	
;lcd(16).c: 154: lcd_put_byte(1, c);
	movf	(lcd_putc@c),w
	movwf	(?_lcd_put_byte)
	movlw	(01h)
	fcall	_lcd_put_byte
	line	155
;lcd(16).c: 155: while(lcd_busy());
	
l6848:	
	fcall	_lcd_busy
	iorlw	0
	skipz
	goto	u3341
	goto	u3340
u3341:
	goto	l6848
u3340:
	goto	l2147
	line	144
	
l6852:	
	movf	(lcd_putc@c),w
	; Switch size 1, requested type "space"
; Number of cases is 2, Range of values is 10 to 12
; switch strategies available:
; Name         Instructions Cycles
; simple_byte            7     4 (average)
; direct_byte           20    11 (fixed)
; jumptable            263     9 (fixed)
;	Chosen strategy is simple_byte

	opt asmopt_off
	xorlw	10^0	; case 10
	skipnz
	goto	l6842
	xorlw	12^10	; case 12
	skipnz
	goto	l6838
	goto	l6844
	opt asmopt_on

	line	159
	
l2147:	
	return
	opt stack 0
GLOBAL	__end_of_lcd_putc
	__end_of_lcd_putc:
;; =============== function _lcd_putc ends ============

	signat	_lcd_putc,4216
	global	___ftsub
psect	text550,local,class=CODE,delta=2
global __ptext550
__ptext550:

;; *************** function ___ftsub *****************
;; Defined at:
;;		line 17 in file "C:\Program Files (x86)\HI-TECH Software\PICC\9.83\sources\ftsub.c"
;; Parameters:    Size  Location     Type
;;  f2              3   42[BANK0 ] float 
;;  f1              3   45[BANK0 ] float 
;; Auto vars:     Size  Location     Type
;;		None
;; Return value:  Size  Location     Type
;;                  3   42[BANK0 ] float 
;; Registers used:
;;		wreg, status,2, status,0, pclath, cstack
;; Tracked objects:
;;		On entry : 60/0
;;		On exit  : 60/0
;;		Unchanged: FFF9F/0
;; Data sizes:     COMMON   BANK0   BANK1   BANK3   BANK2
;;      Params:         0       6       0       0       0
;;      Locals:         0       0       0       0       0
;;      Temps:          0       0       0       0       0
;;      Totals:         0       6       0       0       0
;;Total ram usage:        6 bytes
;; Hardware stack levels used:    1
;; Hardware stack levels required when called:    2
;; This function calls:
;;		___ftadd
;; This function is called by:
;;		_printf
;; This function uses a non-reentrant model
;;
psect	text550
	file	"C:\Program Files (x86)\HI-TECH Software\PICC\9.83\sources\ftsub.c"
	line	17
	global	__size_of___ftsub
	__size_of___ftsub	equ	__end_of___ftsub-___ftsub
	
___ftsub:	
	opt	stack 4
; Regs used in ___ftsub: [wreg+status,2+status,0+pclath+cstack]
	line	18
	
l6830:	
	movlw	080h
	xorwf	(___ftsub@f2+2),f
	line	19
	
l6832:	
	movf	(___ftsub@f1),w
	movwf	(?___ftadd)
	movf	(___ftsub@f1+1),w
	movwf	(?___ftadd+1)
	movf	(___ftsub@f1+2),w
	movwf	(?___ftadd+2)
	movf	(___ftsub@f2),w
	movwf	0+(?___ftadd)+03h
	movf	(___ftsub@f2+1),w
	movwf	1+(?___ftadd)+03h
	movf	(___ftsub@f2+2),w
	movwf	2+(?___ftadd)+03h
	fcall	___ftadd
	movf	(0+(?___ftadd)),w
	movwf	(?___ftsub)
	movf	(1+(?___ftadd)),w
	movwf	(?___ftsub+1)
	movf	(2+(?___ftadd)),w
	movwf	(?___ftsub+2)
	line	20
	
l3359:	
	return
	opt stack 0
GLOBAL	__end_of___ftsub
	__end_of___ftsub:
;; =============== function ___ftsub ends ============

	signat	___ftsub,8315
	global	_scale
psect	text551,local,class=CODE,delta=2
global __ptext551
__ptext551:

;; *************** function _scale *****************
;; Defined at:
;;		line 422 in file "C:\Program Files (x86)\HI-TECH Software\PICC\9.83\lib\doprnt.c"
;; Parameters:    Size  Location     Type
;;  scl             1    wreg     char 
;; Auto vars:     Size  Location     Type
;;  scl             1   40[BANK0 ] char 
;; Return value:  Size  Location     Type
;;                  3   30[BANK0 ] char 
;; Registers used:
;;		wreg, fsr0l, fsr0h, status,2, status,0, pclath, cstack
;; Tracked objects:
;;		On entry : 60/20
;;		On exit  : 60/0
;;		Unchanged: FFF9F/0
;; Data sizes:     COMMON   BANK0   BANK1   BANK3   BANK2
;;      Params:         0       3       0       0       0
;;      Locals:         0       4       0       0       0
;;      Temps:          0       4       0       0       0
;;      Totals:         0      11       0       0       0
;;Total ram usage:       11 bytes
;; Hardware stack levels used:    1
;; Hardware stack levels required when called:    2
;; This function calls:
;;		___awmod
;;		___awdiv
;;		___ftmul
;;		___bmul
;; This function is called by:
;;		_printf
;; This function uses a non-reentrant model
;;
psect	text551
	file	"C:\Program Files (x86)\HI-TECH Software\PICC\9.83\sources\doprnt.c"
	line	422
	global	__size_of_scale
	__size_of_scale	equ	__end_of_scale-_scale
	
_scale:	
	opt	stack 4
; Regs used in _scale: [wreg-fsr0h+status,2+status,0+pclath+cstack]
;scale@scl stored from wreg
	line	424
	bcf	status, 5	;RP0=0, select bank0
	movwf	(scale@scl)
	
l6790:	
	btfss	(scale@scl),7
	goto	u3271
	goto	u3270
u3271:
	goto	l6812
u3270:
	line	425
	
l6792:	
	comf	(scale@scl),f
	incf	(scale@scl),f
	line	426
	
l6794:	
	movf	(scale@scl),w
	xorlw	80h
	addlw	-((06Eh)^80h)
	skipc
	goto	u3281
	goto	u3280
u3281:
	goto	l6802
u3280:
	line	427
	
l6796:	
	movlw	0Ah
	movwf	(?___awdiv)
	clrf	(?___awdiv+1)
	movf	(scale@scl),w
	movwf	0+(?___awmod)+02h
	clrf	1+(?___awmod)+02h
	btfsc	0+(?___awmod)+02h,7
	decf	1+(?___awmod)+02h,f
	movlw	064h
	movwf	(?___awmod)
	clrf	(?___awmod+1)
	fcall	___awmod
	movf	(1+(?___awmod)),w
	movwf	1+(?___awdiv)+02h
	movf	(0+(?___awmod)),w
	movwf	0+(?___awdiv)+02h
	fcall	___awdiv
	movf	(0+?___awdiv),w
	movwf	(??_scale+0)+0
	movf	(1+?___awdiv),w
	movwf	((??_scale+0)+0+1)
	movf	0+(??_scale+0)+0,w
	addwf	0+(??_scale+0)+0,w
	addwf	0+(??_scale+0)+0,w
	addlw	low((__npowers_-__stringbase)+01Bh)
	movwf	fsr0
	fcall	stringdir
	movwf	(?___ftmul)
	fcall	stringdir
	movwf	(?___ftmul+1)
	fcall	stringdir
	movwf	(?___ftmul+2)
	movlw	064h
	movwf	(?___awdiv)
	clrf	(?___awdiv+1)
	movf	(scale@scl),w
	movwf	0+(?___awdiv)+02h
	clrf	1+(?___awdiv)+02h
	btfsc	0+(?___awdiv)+02h,7
	decf	1+(?___awdiv)+02h,f
	fcall	___awdiv
	movf	(0+?___awdiv),w
	movwf	(??_scale+2)+0
	movf	(1+?___awdiv),w
	movwf	((??_scale+2)+0+1)
	movf	0+(??_scale+2)+0,w
	addwf	0+(??_scale+2)+0,w
	addwf	0+(??_scale+2)+0,w
	addlw	low((__npowers_-__stringbase)+036h)
	movwf	fsr0
	fcall	stringdir
	movwf	0+(?___ftmul)+03h
	fcall	stringdir
	movwf	1+(?___ftmul)+03h
	fcall	stringdir
	movwf	2+(?___ftmul)+03h
	fcall	___ftmul
	movf	(0+(?___ftmul)),w
	movwf	(_scale$4112)
	movf	(1+(?___ftmul)),w
	movwf	(_scale$4112+1)
	movf	(2+(?___ftmul)),w
	movwf	(_scale$4112+2)
	movlw	0Ah
	movwf	(?___awmod)
	clrf	(?___awmod+1)
	movf	(scale@scl),w
	movwf	0+(?___awmod)+02h
	clrf	1+(?___awmod)+02h
	btfsc	0+(?___awmod)+02h,7
	decf	1+(?___awmod)+02h,f
	fcall	___awmod
	movf	(0+?___awmod),w
	movwf	(??_scale+0)+0
	movf	(1+?___awmod),w
	movwf	((??_scale+0)+0+1)
	movf	0+(??_scale+0)+0,w
	addwf	0+(??_scale+0)+0,w
	addwf	0+(??_scale+0)+0,w
	addlw	low((__npowers_-__stringbase))
	movwf	fsr0
	fcall	stringdir
	movwf	(?___ftmul)
	fcall	stringdir
	movwf	(?___ftmul+1)
	fcall	stringdir
	movwf	(?___ftmul+2)
	movf	(_scale$4112),w
	movwf	0+(?___ftmul)+03h
	movf	(_scale$4112+1),w
	movwf	1+(?___ftmul)+03h
	movf	(_scale$4112+2),w
	movwf	2+(?___ftmul)+03h
	fcall	___ftmul
	movf	(0+(?___ftmul)),w
	movwf	(?_scale)
	movf	(1+(?___ftmul)),w
	movwf	(?_scale+1)
	movf	(2+(?___ftmul)),w
	movwf	(?_scale+2)
	goto	l2190
	line	428
	
l6802:	
	movf	(scale@scl),w
	xorlw	80h
	addlw	-((0Bh)^80h)
	skipc
	goto	u3291
	goto	u3290
u3291:
	goto	l6808
u3290:
	line	429
	
l6804:	
	movlw	0Ah
	movwf	(?___awmod)
	clrf	(?___awmod+1)
	movf	(scale@scl),w
	movwf	0+(?___awmod)+02h
	clrf	1+(?___awmod)+02h
	btfsc	0+(?___awmod)+02h,7
	decf	1+(?___awmod)+02h,f
	fcall	___awmod
	movf	(0+?___awmod),w
	movwf	(??_scale+0)+0
	movf	(1+?___awmod),w
	movwf	((??_scale+0)+0+1)
	movf	0+(??_scale+0)+0,w
	addwf	0+(??_scale+0)+0,w
	addwf	0+(??_scale+0)+0,w
	addlw	low((__npowers_-__stringbase))
	movwf	fsr0
	fcall	stringdir
	movwf	(?___ftmul)
	fcall	stringdir
	movwf	(?___ftmul+1)
	fcall	stringdir
	movwf	(?___ftmul+2)
	movlw	0Ah
	movwf	(?___awdiv)
	clrf	(?___awdiv+1)
	movf	(scale@scl),w
	movwf	0+(?___awdiv)+02h
	clrf	1+(?___awdiv)+02h
	btfsc	0+(?___awdiv)+02h,7
	decf	1+(?___awdiv)+02h,f
	fcall	___awdiv
	movf	(0+?___awdiv),w
	movwf	(??_scale+2)+0
	movf	(1+?___awdiv),w
	movwf	((??_scale+2)+0+1)
	movf	0+(??_scale+2)+0,w
	addwf	0+(??_scale+2)+0,w
	addwf	0+(??_scale+2)+0,w
	addlw	low((__npowers_-__stringbase)+01Bh)
	movwf	fsr0
	fcall	stringdir
	movwf	0+(?___ftmul)+03h
	fcall	stringdir
	movwf	1+(?___ftmul)+03h
	fcall	stringdir
	movwf	2+(?___ftmul)+03h
	fcall	___ftmul
	movf	(0+(?___ftmul)),w
	movwf	(?_scale)
	movf	(1+(?___ftmul)),w
	movwf	(?_scale+1)
	movf	(2+(?___ftmul)),w
	movwf	(?_scale+2)
	goto	l2190
	line	430
	
l6808:	
	movlw	(03h)
	movwf	(?___bmul)
	movf	(scale@scl),w
	fcall	___bmul
	addlw	low((__npowers_-__stringbase))
	movwf	fsr0
	fcall	stringdir
	movwf	(?_scale)
	fcall	stringdir
	movwf	(?_scale+1)
	fcall	stringdir
	movwf	(?_scale+2)
	goto	l2190
	line	432
	
l6812:	
	movf	(scale@scl),w
	xorlw	80h
	addlw	-((06Eh)^80h)
	skipc
	goto	u3301
	goto	u3300
u3301:
	goto	l6820
u3300:
	line	433
	
l6814:	
	movlw	0Ah
	movwf	(?___awdiv)
	clrf	(?___awdiv+1)
	movf	(scale@scl),w
	movwf	0+(?___awmod)+02h
	clrf	1+(?___awmod)+02h
	btfsc	0+(?___awmod)+02h,7
	decf	1+(?___awmod)+02h,f
	movlw	064h
	movwf	(?___awmod)
	clrf	(?___awmod+1)
	fcall	___awmod
	movf	(1+(?___awmod)),w
	movwf	1+(?___awdiv)+02h
	movf	(0+(?___awmod)),w
	movwf	0+(?___awdiv)+02h
	fcall	___awdiv
	movf	(0+?___awdiv),w
	movwf	(??_scale+0)+0
	movf	(1+?___awdiv),w
	movwf	((??_scale+0)+0+1)
	movf	0+(??_scale+0)+0,w
	addwf	0+(??_scale+0)+0,w
	addwf	0+(??_scale+0)+0,w
	addlw	low((__powers_-__stringbase)+01Bh)
	movwf	fsr0
	fcall	stringdir
	movwf	(?___ftmul)
	fcall	stringdir
	movwf	(?___ftmul+1)
	fcall	stringdir
	movwf	(?___ftmul+2)
	movlw	064h
	movwf	(?___awdiv)
	clrf	(?___awdiv+1)
	movf	(scale@scl),w
	movwf	0+(?___awdiv)+02h
	clrf	1+(?___awdiv)+02h
	btfsc	0+(?___awdiv)+02h,7
	decf	1+(?___awdiv)+02h,f
	fcall	___awdiv
	movf	(0+?___awdiv),w
	movwf	(??_scale+2)+0
	movf	(1+?___awdiv),w
	movwf	((??_scale+2)+0+1)
	movf	0+(??_scale+2)+0,w
	addwf	0+(??_scale+2)+0,w
	addwf	0+(??_scale+2)+0,w
	addlw	low((__powers_-__stringbase)+036h)
	movwf	fsr0
	fcall	stringdir
	movwf	0+(?___ftmul)+03h
	fcall	stringdir
	movwf	1+(?___ftmul)+03h
	fcall	stringdir
	movwf	2+(?___ftmul)+03h
	fcall	___ftmul
	movf	(0+(?___ftmul)),w
	movwf	(_scale$4112)
	movf	(1+(?___ftmul)),w
	movwf	(_scale$4112+1)
	movf	(2+(?___ftmul)),w
	movwf	(_scale$4112+2)
	movlw	0Ah
	movwf	(?___awmod)
	clrf	(?___awmod+1)
	movf	(scale@scl),w
	movwf	0+(?___awmod)+02h
	clrf	1+(?___awmod)+02h
	btfsc	0+(?___awmod)+02h,7
	decf	1+(?___awmod)+02h,f
	fcall	___awmod
	movf	(0+?___awmod),w
	movwf	(??_scale+0)+0
	movf	(1+?___awmod),w
	movwf	((??_scale+0)+0+1)
	movf	0+(??_scale+0)+0,w
	addwf	0+(??_scale+0)+0,w
	addwf	0+(??_scale+0)+0,w
	addlw	low((__powers_-__stringbase))
	movwf	fsr0
	fcall	stringdir
	movwf	(?___ftmul)
	fcall	stringdir
	movwf	(?___ftmul+1)
	fcall	stringdir
	movwf	(?___ftmul+2)
	movf	(_scale$4112),w
	movwf	0+(?___ftmul)+03h
	movf	(_scale$4112+1),w
	movwf	1+(?___ftmul)+03h
	movf	(_scale$4112+2),w
	movwf	2+(?___ftmul)+03h
	fcall	___ftmul
	movf	(0+(?___ftmul)),w
	movwf	(?_scale)
	movf	(1+(?___ftmul)),w
	movwf	(?_scale+1)
	movf	(2+(?___ftmul)),w
	movwf	(?_scale+2)
	goto	l2190
	line	434
	
l6820:	
	movf	(scale@scl),w
	xorlw	80h
	addlw	-((0Bh)^80h)
	skipc
	goto	u3311
	goto	u3310
u3311:
	goto	l6826
u3310:
	line	435
	
l6822:	
	movlw	0Ah
	movwf	(?___awmod)
	clrf	(?___awmod+1)
	movf	(scale@scl),w
	movwf	0+(?___awmod)+02h
	clrf	1+(?___awmod)+02h
	btfsc	0+(?___awmod)+02h,7
	decf	1+(?___awmod)+02h,f
	fcall	___awmod
	movf	(0+?___awmod),w
	movwf	(??_scale+0)+0
	movf	(1+?___awmod),w
	movwf	((??_scale+0)+0+1)
	movf	0+(??_scale+0)+0,w
	addwf	0+(??_scale+0)+0,w
	addwf	0+(??_scale+0)+0,w
	addlw	low((__powers_-__stringbase))
	movwf	fsr0
	fcall	stringdir
	movwf	(?___ftmul)
	fcall	stringdir
	movwf	(?___ftmul+1)
	fcall	stringdir
	movwf	(?___ftmul+2)
	movlw	0Ah
	movwf	(?___awdiv)
	clrf	(?___awdiv+1)
	movf	(scale@scl),w
	movwf	0+(?___awdiv)+02h
	clrf	1+(?___awdiv)+02h
	btfsc	0+(?___awdiv)+02h,7
	decf	1+(?___awdiv)+02h,f
	fcall	___awdiv
	movf	(0+?___awdiv),w
	movwf	(??_scale+2)+0
	movf	(1+?___awdiv),w
	movwf	((??_scale+2)+0+1)
	movf	0+(??_scale+2)+0,w
	addwf	0+(??_scale+2)+0,w
	addwf	0+(??_scale+2)+0,w
	addlw	low((__powers_-__stringbase)+01Bh)
	movwf	fsr0
	fcall	stringdir
	movwf	0+(?___ftmul)+03h
	fcall	stringdir
	movwf	1+(?___ftmul)+03h
	fcall	stringdir
	movwf	2+(?___ftmul)+03h
	fcall	___ftmul
	movf	(0+(?___ftmul)),w
	movwf	(?_scale)
	movf	(1+(?___ftmul)),w
	movwf	(?_scale+1)
	movf	(2+(?___ftmul)),w
	movwf	(?_scale+2)
	goto	l2190
	line	436
	
l6826:	
	movlw	(03h)
	movwf	(?___bmul)
	movf	(scale@scl),w
	fcall	___bmul
	addlw	low((__powers_-__stringbase))
	movwf	fsr0
	fcall	stringdir
	movwf	(?_scale)
	fcall	stringdir
	movwf	(?_scale+1)
	fcall	stringdir
	movwf	(?_scale+2)
	line	437
	
l2190:	
	return
	opt stack 0
GLOBAL	__end_of_scale
	__end_of_scale:
;; =============== function _scale ends ============

	signat	_scale,4219
	global	_fround
psect	text552,local,class=CODE,delta=2
global __ptext552
__ptext552:

;; *************** function _fround *****************
;; Defined at:
;;		line 406 in file "C:\Program Files (x86)\HI-TECH Software\PICC\9.83\lib\doprnt.c"
;; Parameters:    Size  Location     Type
;;  prec            1    wreg     unsigned char 
;; Auto vars:     Size  Location     Type
;;  prec            1   51[BANK0 ] unsigned char 
;; Return value:  Size  Location     Type
;;                  3   42[BANK0 ] unsigned char 
;; Registers used:
;;		wreg, fsr0l, fsr0h, status,2, status,0, pclath, cstack
;; Tracked objects:
;;		On entry : 60/20
;;		On exit  : 60/0
;;		Unchanged: FFF9F/0
;; Data sizes:     COMMON   BANK0   BANK1   BANK3   BANK2
;;      Params:         0       3       0       0       0
;;      Locals:         0       7       0       0       0
;;      Temps:          0       0       0       0       0
;;      Totals:         0      10       0       0       0
;;Total ram usage:       10 bytes
;; Hardware stack levels used:    1
;; Hardware stack levels required when called:    2
;; This function calls:
;;		___lbmod
;;		___bmul
;;		___lbdiv
;;		___ftmul
;; This function is called by:
;;		_printf
;; This function uses a non-reentrant model
;;
psect	text552
	file	"C:\Program Files (x86)\HI-TECH Software\PICC\9.83\sources\doprnt.c"
	line	406
	global	__size_of_fround
	__size_of_fround	equ	__end_of_fround-_fround
	
_fround:	
	opt	stack 4
; Regs used in _fround: [wreg-fsr0h+status,2+status,0+pclath+cstack]
;fround@prec stored from wreg
	line	409
	bcf	status, 5	;RP0=0, select bank0
	movwf	(fround@prec)
	
l6768:	
	movlw	(06Eh)
	subwf	(fround@prec),w
	skipc
	goto	u3251
	goto	u3250
u3251:
	goto	l6778
u3250:
	line	410
	
l6770:	
	movlw	(03h)
	movwf	(?___bmul)
	movlw	(0Ah)
	movwf	(?___lbdiv)
	movlw	(064h)
	movwf	(?___lbmod)
	movf	(fround@prec),w
	fcall	___lbmod
	fcall	___lbdiv
	fcall	___bmul
	addlw	low((__npowers_-__stringbase)+01Bh)
	movwf	fsr0
	fcall	stringdir
	movwf	(?___ftmul)
	fcall	stringdir
	movwf	(?___ftmul+1)
	fcall	stringdir
	movwf	(?___ftmul+2)
	movlw	(03h)
	movwf	(?___bmul)
	movlw	(064h)
	movwf	(?___lbdiv)
	movf	(fround@prec),w
	fcall	___lbdiv
	fcall	___bmul
	addlw	low((__npowers_-__stringbase)+036h)
	movwf	fsr0
	fcall	stringdir
	movwf	0+(?___ftmul)+03h
	fcall	stringdir
	movwf	1+(?___ftmul)+03h
	fcall	stringdir
	movwf	2+(?___ftmul)+03h
	fcall	___ftmul
	movf	(0+(?___ftmul)),w
	movwf	(_fround$4110)
	movf	(1+(?___ftmul)),w
	movwf	(_fround$4110+1)
	movf	(2+(?___ftmul)),w
	movwf	(_fround$4110+2)
	movlw	(03h)
	movwf	(?___bmul)
	movlw	(0Ah)
	movwf	(?___lbmod)
	movf	(fround@prec),w
	fcall	___lbmod
	fcall	___bmul
	addlw	low((__npowers_-__stringbase))
	movwf	fsr0
	fcall	stringdir
	movwf	(?___ftmul)
	fcall	stringdir
	movwf	(?___ftmul+1)
	fcall	stringdir
	movwf	(?___ftmul+2)
	movf	(_fround$4110),w
	movwf	0+(?___ftmul)+03h
	movf	(_fround$4110+1),w
	movwf	1+(?___ftmul)+03h
	movf	(_fround$4110+2),w
	movwf	2+(?___ftmul)+03h
	fcall	___ftmul
	movf	(0+(?___ftmul)),w
	movwf	(_fround$4111)
	movf	(1+(?___ftmul)),w
	movwf	(_fround$4111+1)
	movf	(2+(?___ftmul)),w
	movwf	(_fround$4111+2)
	
l6772:	
	movlw	0x0
	movwf	(?___ftmul)
	movlw	0x0
	movwf	(?___ftmul+1)
	movlw	0x3f
	movwf	(?___ftmul+2)
	movf	(_fround$4111),w
	movwf	0+(?___ftmul)+03h
	movf	(_fround$4111+1),w
	movwf	1+(?___ftmul)+03h
	movf	(_fround$4111+2),w
	movwf	2+(?___ftmul)+03h
	fcall	___ftmul
	movf	(0+(?___ftmul)),w
	movwf	(?_fround)
	movf	(1+(?___ftmul)),w
	movwf	(?_fround+1)
	movf	(2+(?___ftmul)),w
	movwf	(?_fround+2)
	goto	l2183
	line	411
	
l6778:	
	movlw	(0Bh)
	subwf	(fround@prec),w
	skipc
	goto	u3261
	goto	u3260
u3261:
	goto	l6786
u3260:
	line	412
	
l6780:	
	movlw	(03h)
	movwf	(?___bmul)
	movlw	(0Ah)
	movwf	(?___lbmod)
	movf	(fround@prec),w
	fcall	___lbmod
	fcall	___bmul
	addlw	low((__npowers_-__stringbase))
	movwf	fsr0
	fcall	stringdir
	movwf	(?___ftmul)
	fcall	stringdir
	movwf	(?___ftmul+1)
	fcall	stringdir
	movwf	(?___ftmul+2)
	movlw	(03h)
	movwf	(?___bmul)
	movlw	(0Ah)
	movwf	(?___lbdiv)
	movf	(fround@prec),w
	fcall	___lbdiv
	fcall	___bmul
	addlw	low((__npowers_-__stringbase)+01Bh)
	movwf	fsr0
	fcall	stringdir
	movwf	0+(?___ftmul)+03h
	fcall	stringdir
	movwf	1+(?___ftmul)+03h
	fcall	stringdir
	movwf	2+(?___ftmul)+03h
	fcall	___ftmul
	movf	(0+(?___ftmul)),w
	movwf	(_fround$4110)
	movf	(1+(?___ftmul)),w
	movwf	(_fround$4110+1)
	movf	(2+(?___ftmul)),w
	movwf	(_fround$4110+2)
	
l6782:	
	movlw	0x0
	movwf	(?___ftmul)
	movlw	0x0
	movwf	(?___ftmul+1)
	movlw	0x3f
	movwf	(?___ftmul+2)
	movf	(_fround$4110),w
	movwf	0+(?___ftmul)+03h
	movf	(_fround$4110+1),w
	movwf	1+(?___ftmul)+03h
	movf	(_fround$4110+2),w
	movwf	2+(?___ftmul)+03h
	fcall	___ftmul
	movf	(0+(?___ftmul)),w
	movwf	(?_fround)
	movf	(1+(?___ftmul)),w
	movwf	(?_fround+1)
	movf	(2+(?___ftmul)),w
	movwf	(?_fround+2)
	goto	l2183
	line	413
	
l6786:	
	movlw	0x0
	movwf	(?___ftmul)
	movlw	0x0
	movwf	(?___ftmul+1)
	movlw	0x3f
	movwf	(?___ftmul+2)
	movlw	(03h)
	movwf	(?___bmul)
	movf	(fround@prec),w
	fcall	___bmul
	addlw	low((__npowers_-__stringbase))
	movwf	fsr0
	fcall	stringdir
	movwf	0+(?___ftmul)+03h
	fcall	stringdir
	movwf	1+(?___ftmul)+03h
	fcall	stringdir
	movwf	2+(?___ftmul)+03h
	fcall	___ftmul
	movf	(0+(?___ftmul)),w
	movwf	(?_fround)
	movf	(1+(?___ftmul)),w
	movwf	(?_fround+1)
	movf	(2+(?___ftmul)),w
	movwf	(?_fround+2)
	line	414
	
l2183:	
	return
	opt stack 0
GLOBAL	__end_of_fround
	__end_of_fround:
;; =============== function _fround ends ============

	signat	_fround,4219
	global	_lcd_gotoxy
psect	text553,local,class=CODE,delta=2
global __ptext553
__ptext553:

;; *************** function _lcd_gotoxy *****************
;; Defined at:
;;		line 162 in file "D:\TTVXL\Library\lcd(16).c"
;; Parameters:    Size  Location     Type
;;  col             1    wreg     unsigned char 
;;  row             1    5[COMMON] unsigned char 
;; Auto vars:     Size  Location     Type
;;  col             1    6[COMMON] unsigned char 
;;  address         1    7[COMMON] unsigned char 
;; Return value:  Size  Location     Type
;;		None               void
;; Registers used:
;;		wreg, status,2, status,0, pclath, cstack
;; Tracked objects:
;;		On entry : 0/0
;;		On exit  : 60/0
;;		Unchanged: 0/0
;; Data sizes:     COMMON   BANK0   BANK1   BANK3   BANK2
;;      Params:         1       0       0       0       0
;;      Locals:         2       0       0       0       0
;;      Temps:          0       0       0       0       0
;;      Totals:         3       0       0       0       0
;;Total ram usage:        3 bytes
;; Hardware stack levels used:    1
;; Hardware stack levels required when called:    1
;; This function calls:
;;		_lcd_put_byte
;;		_lcd_busy
;; This function is called by:
;;		_main
;;		_lcd_putc
;; This function uses a non-reentrant model
;;
psect	text553
	file	"D:\TTVXL\Library\lcd(16).c"
	line	162
	global	__size_of_lcd_gotoxy
	__size_of_lcd_gotoxy	equ	__end_of_lcd_gotoxy-_lcd_gotoxy
	
_lcd_gotoxy:	
	opt	stack 3
; Regs used in _lcd_gotoxy: [wreg+status,2+status,0+pclath+cstack]
;lcd_gotoxy@col stored from wreg
	line	165
	movwf	(lcd_gotoxy@col)
	
l6756:	
;lcd(16).c: 163: unsigned char address;
;lcd(16).c: 165: if(row!=0)
	movf	(lcd_gotoxy@row),w
	skipz
	goto	u3230
	goto	l6760
u3230:
	line	166
	
l6758:	
;lcd(16).c: 166: address=0x40;
	movlw	(040h)
	movwf	(lcd_gotoxy@address)
	goto	l6762
	line	168
	
l6760:	
;lcd(16).c: 167: else
;lcd(16).c: 168: address=0;
	clrf	(lcd_gotoxy@address)
	line	170
	
l6762:	
;lcd(16).c: 170: address += col;
	movf	(lcd_gotoxy@col),w
	addwf	(lcd_gotoxy@address),f
	line	171
	
l6764:	
;lcd(16).c: 171: lcd_put_byte(0,0x80|address);
	movf	(lcd_gotoxy@address),w
	iorlw	080h
	movwf	(?_lcd_put_byte)
	movlw	(0)
	fcall	_lcd_put_byte
	line	172
;lcd(16).c: 172: while(lcd_busy());
	
l6766:	
	fcall	_lcd_busy
	iorlw	0
	skipz
	goto	u3241
	goto	u3240
u3241:
	goto	l6766
u3240:
	line	173
	
l2155:	
	return
	opt stack 0
GLOBAL	__end_of_lcd_gotoxy
	__end_of_lcd_gotoxy:
;; =============== function _lcd_gotoxy ends ============

	signat	_lcd_gotoxy,8312
	global	_lcd_init
psect	text554,local,class=CODE,delta=2
global __ptext554
__ptext554:

;; *************** function _lcd_init *****************
;; Defined at:
;;		line 5 in file "D:\TTVXL\Library\lcd(16).c"
;; Parameters:    Size  Location     Type
;;		None
;; Auto vars:     Size  Location     Type
;;  i               1    0        unsigned char 
;; Return value:  Size  Location     Type
;;		None               void
;; Registers used:
;;		wreg, status,2, status,0, pclath, cstack
;; Tracked objects:
;;		On entry : 17F/60
;;		On exit  : 60/0
;;		Unchanged: 0/0
;; Data sizes:     COMMON   BANK0   BANK1   BANK3   BANK2
;;      Params:         0       0       0       0       0
;;      Locals:         0       0       0       0       0
;;      Temps:          3       0       0       0       0
;;      Totals:         3       0       0       0       0
;;Total ram usage:        3 bytes
;; Hardware stack levels used:    1
;; Hardware stack levels required when called:    1
;; This function calls:
;;		_lcd_put_byte
;;		_lcd_busy
;; This function is called by:
;;		_main
;; This function uses a non-reentrant model
;;
psect	text554
	file	"D:\TTVXL\Library\lcd(16).c"
	line	5
	global	__size_of_lcd_init
	__size_of_lcd_init	equ	__end_of_lcd_init-_lcd_init
	
_lcd_init:	
	opt	stack 6
; Regs used in _lcd_init: [wreg+status,2+status,0+pclath+cstack]
	line	7
	
l6718:	
;lcd(16).c: 6: unsigned char i;
;lcd(16).c: 7: TRISD3 = 0;
	bcf	status, 6	;RP1=0, select bank1
	bcf	(1091/8)^080h,(1091)&7
	line	8
;lcd(16).c: 8: TRISD1 = 0;
	bcf	(1089/8)^080h,(1089)&7
	line	9
;lcd(16).c: 9: TRISD2 = 0;
	bcf	(1090/8)^080h,(1090)&7
	line	10
;lcd(16).c: 10: TRISD4 = 0;
	bcf	(1092/8)^080h,(1092)&7
	line	11
;lcd(16).c: 11: TRISD5 = 0;
	bcf	(1093/8)^080h,(1093)&7
	line	12
;lcd(16).c: 12: TRISD6 = 0;
	bcf	(1094/8)^080h,(1094)&7
	line	13
;lcd(16).c: 13: TRISD7 = 0;
	bcf	(1095/8)^080h,(1095)&7
	line	14
;lcd(16).c: 14: RD3 = 0;
	bcf	status, 5	;RP0=0, select bank0
	bcf	(67/8),(67)&7
	line	15
;lcd(16).c: 15: RD1 = 0;
	bcf	(65/8),(65)&7
	line	16
;lcd(16).c: 16: RD2 = 0;
	bcf	(66/8),(66)&7
	line	18
	
l6720:	
;lcd(16).c: 18: _delay((unsigned long)((100)*(20000000/4000.0)));
	opt asmopt_off
movlw  3
movwf	((??_lcd_init+0)+0+2),f
movlw	138
movwf	((??_lcd_init+0)+0+1),f
	movlw	86
movwf	((??_lcd_init+0)+0),f
u3807:
	decfsz	((??_lcd_init+0)+0),f
	goto	u3807
	decfsz	((??_lcd_init+0)+0+1),f
	goto	u3807
	decfsz	((??_lcd_init+0)+0+2),f
	goto	u3807
	nop2
opt asmopt_on

	line	21
	
l6722:	
;lcd(16).c: 21: lcd_put_byte(0,0x30);
	movlw	(030h)
	movwf	(?_lcd_put_byte)
	movlw	(0)
	fcall	_lcd_put_byte
	line	22
	
l6724:	
;lcd(16).c: 22: _delay((unsigned long)((50)*(20000000/4000.0)));
	opt asmopt_off
movlw  2
movwf	((??_lcd_init+0)+0+2),f
movlw	69
movwf	((??_lcd_init+0)+0+1),f
	movlw	169
movwf	((??_lcd_init+0)+0),f
u3817:
	decfsz	((??_lcd_init+0)+0),f
	goto	u3817
	decfsz	((??_lcd_init+0)+0+1),f
	goto	u3817
	decfsz	((??_lcd_init+0)+0+2),f
	goto	u3817
	nop2
opt asmopt_on

	line	23
;lcd(16).c: 23: lcd_put_byte(0,0x30);
	movlw	(030h)
	movwf	(?_lcd_put_byte)
	movlw	(0)
	fcall	_lcd_put_byte
	line	24
	
l6726:	
;lcd(16).c: 24: _delay((unsigned long)((50)*(20000000/4000.0)));
	opt asmopt_off
movlw  2
movwf	((??_lcd_init+0)+0+2),f
movlw	69
movwf	((??_lcd_init+0)+0+1),f
	movlw	169
movwf	((??_lcd_init+0)+0),f
u3827:
	decfsz	((??_lcd_init+0)+0),f
	goto	u3827
	decfsz	((??_lcd_init+0)+0+1),f
	goto	u3827
	decfsz	((??_lcd_init+0)+0+2),f
	goto	u3827
	nop2
opt asmopt_on

	line	25
	
l6728:	
;lcd(16).c: 25: lcd_put_byte(0,0x32);
	movlw	(032h)
	movwf	(?_lcd_put_byte)
	movlw	(0)
	fcall	_lcd_put_byte
	line	26
;lcd(16).c: 26: _delay((unsigned long)((100)*(20000000/4000.0)));
	opt asmopt_off
movlw  3
movwf	((??_lcd_init+0)+0+2),f
movlw	138
movwf	((??_lcd_init+0)+0+1),f
	movlw	86
movwf	((??_lcd_init+0)+0),f
u3837:
	decfsz	((??_lcd_init+0)+0),f
	goto	u3837
	decfsz	((??_lcd_init+0)+0+1),f
	goto	u3837
	decfsz	((??_lcd_init+0)+0+2),f
	goto	u3837
	nop2
opt asmopt_on

	line	27
;lcd(16).c: 27: _delay((unsigned long)((100)*(20000000/4000.0)));
	opt asmopt_off
movlw  3
movwf	((??_lcd_init+0)+0+2),f
movlw	138
movwf	((??_lcd_init+0)+0+1),f
	movlw	86
movwf	((??_lcd_init+0)+0),f
u3847:
	decfsz	((??_lcd_init+0)+0),f
	goto	u3847
	decfsz	((??_lcd_init+0)+0+1),f
	goto	u3847
	decfsz	((??_lcd_init+0)+0+2),f
	goto	u3847
	nop2
opt asmopt_on

	line	28
;lcd(16).c: 28: _delay((unsigned long)((100)*(20000000/4000.0)));
	opt asmopt_off
movlw  3
movwf	((??_lcd_init+0)+0+2),f
movlw	138
movwf	((??_lcd_init+0)+0+1),f
	movlw	86
movwf	((??_lcd_init+0)+0),f
u3857:
	decfsz	((??_lcd_init+0)+0),f
	goto	u3857
	decfsz	((??_lcd_init+0)+0+1),f
	goto	u3857
	decfsz	((??_lcd_init+0)+0+2),f
	goto	u3857
	nop2
opt asmopt_on

	line	30
;lcd(16).c: 30: while(lcd_busy());
	
l6730:	
	fcall	_lcd_busy
	iorlw	0
	skipz
	goto	u3161
	goto	u3160
u3161:
	goto	l6730
u3160:
	line	31
	
l6732:	
;lcd(16).c: 31: lcd_put_byte(0,0b00101100 & 0b00111000);
	movlw	(028h)
	movwf	(?_lcd_put_byte)
	movlw	(0)
	fcall	_lcd_put_byte
	line	32
;lcd(16).c: 32: while(lcd_busy());
	
l6734:	
	fcall	_lcd_busy
	iorlw	0
	skipz
	goto	u3171
	goto	u3170
u3171:
	goto	l6734
u3170:
	line	34
	
l6736:	
;lcd(16).c: 34: lcd_put_byte(0,0b00001011&0b00001101&0b00001110);
	movlw	(08h)
	movwf	(?_lcd_put_byte)
	movlw	(0)
	fcall	_lcd_put_byte
	line	35
;lcd(16).c: 35: while(lcd_busy());
	
l6738:	
	fcall	_lcd_busy
	iorlw	0
	skipz
	goto	u3181
	goto	u3180
u3181:
	goto	l6738
u3180:
	line	36
	
l6740:	
;lcd(16).c: 36: lcd_put_byte(0,0b00001111&0b00001101&0b00001110);
	movlw	(0Ch)
	movwf	(?_lcd_put_byte)
	movlw	(0)
	fcall	_lcd_put_byte
	line	37
;lcd(16).c: 37: while(lcd_busy());
	
l6742:	
	fcall	_lcd_busy
	iorlw	0
	skipz
	goto	u3191
	goto	u3190
u3191:
	goto	l6742
u3190:
	line	39
	
l6744:	
;lcd(16).c: 39: lcd_put_byte(0,0x01);
	clrf	(?_lcd_put_byte)
	incf	(?_lcd_put_byte),f
	movlw	(0)
	fcall	_lcd_put_byte
	line	40
;lcd(16).c: 40: while(lcd_busy());
	
l6746:	
	fcall	_lcd_busy
	iorlw	0
	skipz
	goto	u3201
	goto	u3200
u3201:
	goto	l6746
u3200:
	line	41
	
l6748:	
;lcd(16).c: 41: lcd_put_byte(0,0b00000100);
	movlw	(04h)
	movwf	(?_lcd_put_byte)
	movlw	(0)
	fcall	_lcd_put_byte
	line	42
;lcd(16).c: 42: while(lcd_busy());
	
l6750:	
	fcall	_lcd_busy
	iorlw	0
	skipz
	goto	u3211
	goto	u3210
u3211:
	goto	l6750
u3210:
	line	43
	
l6752:	
;lcd(16).c: 43: lcd_put_byte(0,0x01);
	clrf	(?_lcd_put_byte)
	incf	(?_lcd_put_byte),f
	movlw	(0)
	fcall	_lcd_put_byte
	line	44
;lcd(16).c: 44: while(lcd_busy());
	
l6754:	
	fcall	_lcd_busy
	iorlw	0
	skipz
	goto	u3221
	goto	u3220
u3221:
	goto	l6754
u3220:
	line	45
	
l2121:	
	return
	opt stack 0
GLOBAL	__end_of_lcd_init
	__end_of_lcd_init:
;; =============== function _lcd_init ends ============

	signat	_lcd_init,88
	global	_read_adc_AN12
psect	text555,local,class=CODE,delta=2
global __ptext555
__ptext555:

;; *************** function _read_adc_AN12 *****************
;; Defined at:
;;		line 26 in file "D:\TTVXL\Project TTVXL\BT01week11ttvxl\BT01week11ttvxl.c"
;; Parameters:    Size  Location     Type
;;		None
;; Auto vars:     Size  Location     Type
;;		None
;; Return value:  Size  Location     Type
;;		None               void
;; Registers used:
;;		wreg, status,2, status,0, pclath, cstack
;; Tracked objects:
;;		On entry : 60/20
;;		On exit  : 60/0
;;		Unchanged: 0/0
;; Data sizes:     COMMON   BANK0   BANK1   BANK3   BANK2
;;      Params:         0       0       0       0       0
;;      Locals:         0       0       0       0       0
;;      Temps:          0       2       0       0       0
;;      Totals:         0       2       0       0       0
;;Total ram usage:        2 bytes
;; Hardware stack levels used:    1
;; Hardware stack levels required when called:    2
;; This function calls:
;;		___awtoft
;;		___ftdiv
;;		___ftmul
;; This function is called by:
;;		_main
;; This function uses a non-reentrant model
;;
psect	text555
	file	"D:\TTVXL\Project TTVXL\BT01week11ttvxl\BT01week11ttvxl.c"
	line	26
	global	__size_of_read_adc_AN12
	__size_of_read_adc_AN12	equ	__end_of_read_adc_AN12-_read_adc_AN12
	
_read_adc_AN12:	
	opt	stack 5
; Regs used in _read_adc_AN12: [wreg+status,2+status,0+pclath+cstack]
	line	27
	
l6708:	
;BT01week11ttvxl.c: 27: CHS3 = 1; CHS2 = 1;CHS1 =0;CHS0 =0;
	bcf	status, 5	;RP0=0, select bank0
	bsf	(253/8),(253)&7
	bsf	(252/8),(252)&7
	bcf	(251/8),(251)&7
	bcf	(250/8),(250)&7
	line	28
	
l6710:	
;BT01week11ttvxl.c: 28: _delay((unsigned long)((10)*(4000000/4000.0)));
	opt asmopt_off
movlw	13
movwf	((??_read_adc_AN12+0)+0+1),f
	movlw	251
movwf	((??_read_adc_AN12+0)+0),f
u3867:
	decfsz	((??_read_adc_AN12+0)+0),f
	goto	u3867
	decfsz	((??_read_adc_AN12+0)+0+1),f
	goto	u3867
	nop2
opt asmopt_on

	line	29
	
l6712:	
;BT01week11ttvxl.c: 29: GO_nDONE = 1;
	bcf	status, 5	;RP0=0, select bank0
	bcf	status, 6	;RP1=0, select bank0
	bsf	(249/8),(249)&7
	line	30
;BT01week11ttvxl.c: 30: while(GO_nDONE == 1){}
	
l1053:	
	btfsc	(249/8),(249)&7
	goto	u3151
	goto	u3150
u3151:
	goto	l1053
u3150:
	line	31
	
l6714:	
;BT01week11ttvxl.c: 31: adc2 = ADRESH * 256 + ADRESL;
	movf	(30),w	;volatile
	movwf	(_adc2+1)
	clrf	(_adc2)
	bsf	status, 5	;RP0=1, select bank1
	movf	(158)^080h,w	;volatile
	bcf	status, 5	;RP0=0, select bank0
	addwf	(_adc2),f
	skipnc
	incf	(_adc2+1),f
	line	32
	
l6716:	
;BT01week11ttvxl.c: 32: res2 = (adc2/1023.0)*500.0;
	movlw	0x0
	movwf	(?___ftmul)
	movlw	0xfa
	movwf	(?___ftmul+1)
	movlw	0x43
	movwf	(?___ftmul+2)
	movlw	0xc0
	movwf	(?___ftdiv)
	movlw	0x7f
	movwf	(?___ftdiv+1)
	movlw	0x44
	movwf	(?___ftdiv+2)
	movf	(_adc2+1),w
	movwf	(?___awtoft+1)
	movf	(_adc2),w
	movwf	(?___awtoft)
	fcall	___awtoft
	movf	(0+(?___awtoft)),w
	movwf	0+(?___ftdiv)+03h
	movf	(1+(?___awtoft)),w
	movwf	1+(?___ftdiv)+03h
	movf	(2+(?___awtoft)),w
	movwf	2+(?___ftdiv)+03h
	fcall	___ftdiv
	movf	(0+(?___ftdiv)),w
	movwf	0+(?___ftmul)+03h
	movf	(1+(?___ftdiv)),w
	movwf	1+(?___ftmul)+03h
	movf	(2+(?___ftdiv)),w
	movwf	2+(?___ftmul)+03h
	fcall	___ftmul
	movf	(0+(?___ftmul)),w
	movwf	(_res2)
	movf	(1+(?___ftmul)),w
	movwf	(_res2+1)
	movf	(2+(?___ftmul)),w
	movwf	(_res2+2)
	line	33
	
l1056:	
	return
	opt stack 0
GLOBAL	__end_of_read_adc_AN12
	__end_of_read_adc_AN12:
;; =============== function _read_adc_AN12 ends ============

	signat	_read_adc_AN12,88
	global	_read_adc_AN3
psect	text556,local,class=CODE,delta=2
global __ptext556
__ptext556:

;; *************** function _read_adc_AN3 *****************
;; Defined at:
;;		line 17 in file "D:\TTVXL\Project TTVXL\BT01week11ttvxl\BT01week11ttvxl.c"
;; Parameters:    Size  Location     Type
;;		None
;; Auto vars:     Size  Location     Type
;;		None
;; Return value:  Size  Location     Type
;;		None               void
;; Registers used:
;;		wreg, status,2, status,0, pclath, cstack
;; Tracked objects:
;;		On entry : 0/0
;;		On exit  : 60/0
;;		Unchanged: 0/0
;; Data sizes:     COMMON   BANK0   BANK1   BANK3   BANK2
;;      Params:         0       0       0       0       0
;;      Locals:         0       0       0       0       0
;;      Temps:          0       2       0       0       0
;;      Totals:         0       2       0       0       0
;;Total ram usage:        2 bytes
;; Hardware stack levels used:    1
;; Hardware stack levels required when called:    2
;; This function calls:
;;		___awtoft
;;		___ftdiv
;;		___ftmul
;; This function is called by:
;;		_main
;; This function uses a non-reentrant model
;;
psect	text556
	file	"D:\TTVXL\Project TTVXL\BT01week11ttvxl\BT01week11ttvxl.c"
	line	17
	global	__size_of_read_adc_AN3
	__size_of_read_adc_AN3	equ	__end_of_read_adc_AN3-_read_adc_AN3
	
_read_adc_AN3:	
	opt	stack 5
; Regs used in _read_adc_AN3: [wreg+status,2+status,0+pclath+cstack]
	line	18
	
l6698:	
;BT01week11ttvxl.c: 18: CHS3 = 0; CHS2 = 0;CHS1 =1;CHS0 =1;
	bcf	status, 5	;RP0=0, select bank0
	bcf	status, 6	;RP1=0, select bank0
	bcf	(253/8),(253)&7
	bcf	(252/8),(252)&7
	bsf	(251/8),(251)&7
	bsf	(250/8),(250)&7
	line	19
	
l6700:	
;BT01week11ttvxl.c: 19: _delay((unsigned long)((10)*(4000000/4000.0)));
	opt asmopt_off
movlw	13
movwf	((??_read_adc_AN3+0)+0+1),f
	movlw	251
movwf	((??_read_adc_AN3+0)+0),f
u3877:
	decfsz	((??_read_adc_AN3+0)+0),f
	goto	u3877
	decfsz	((??_read_adc_AN3+0)+0+1),f
	goto	u3877
	nop2
opt asmopt_on

	line	20
	
l6702:	
;BT01week11ttvxl.c: 20: GO_nDONE = 1;
	bcf	status, 5	;RP0=0, select bank0
	bcf	status, 6	;RP1=0, select bank0
	bsf	(249/8),(249)&7
	line	21
;BT01week11ttvxl.c: 21: while(GO_nDONE == 1){}
	
l1047:	
	btfsc	(249/8),(249)&7
	goto	u3141
	goto	u3140
u3141:
	goto	l1047
u3140:
	line	22
	
l6704:	
;BT01week11ttvxl.c: 22: adc1 = ADRESH * 256 + ADRESL;
	movf	(30),w	;volatile
	movwf	(_adc1+1)
	clrf	(_adc1)
	bsf	status, 5	;RP0=1, select bank1
	movf	(158)^080h,w	;volatile
	bcf	status, 5	;RP0=0, select bank0
	addwf	(_adc1),f
	skipnc
	incf	(_adc1+1),f
	line	23
	
l6706:	
;BT01week11ttvxl.c: 23: res1 = (adc1/1023.0)*500.0;
	movlw	0x0
	movwf	(?___ftmul)
	movlw	0xfa
	movwf	(?___ftmul+1)
	movlw	0x43
	movwf	(?___ftmul+2)
	movlw	0xc0
	movwf	(?___ftdiv)
	movlw	0x7f
	movwf	(?___ftdiv+1)
	movlw	0x44
	movwf	(?___ftdiv+2)
	movf	(_adc1+1),w
	movwf	(?___awtoft+1)
	movf	(_adc1),w
	movwf	(?___awtoft)
	fcall	___awtoft
	movf	(0+(?___awtoft)),w
	movwf	0+(?___ftdiv)+03h
	movf	(1+(?___awtoft)),w
	movwf	1+(?___ftdiv)+03h
	movf	(2+(?___awtoft)),w
	movwf	2+(?___ftdiv)+03h
	fcall	___ftdiv
	movf	(0+(?___ftdiv)),w
	movwf	0+(?___ftmul)+03h
	movf	(1+(?___ftdiv)),w
	movwf	1+(?___ftmul)+03h
	movf	(2+(?___ftdiv)),w
	movwf	2+(?___ftmul)+03h
	fcall	___ftmul
	movf	(0+(?___ftmul)),w
	movwf	(_res1)
	movf	(1+(?___ftmul)),w
	movwf	(_res1+1)
	movf	(2+(?___ftmul)),w
	movwf	(_res1+2)
	line	24
	
l1050:	
	return
	opt stack 0
GLOBAL	__end_of_read_adc_AN3
	__end_of_read_adc_AN3:
;; =============== function _read_adc_AN3 ends ============

	signat	_read_adc_AN3,88
	global	___lltoft
psect	text557,local,class=CODE,delta=2
global __ptext557
__ptext557:

;; *************** function ___lltoft *****************
;; Defined at:
;;		line 36 in file "C:\Program Files (x86)\HI-TECH Software\PICC\9.83\sources\lltoft.c"
;; Parameters:    Size  Location     Type
;;  c               4    8[COMMON] unsigned long 
;; Auto vars:     Size  Location     Type
;;  exp             1   12[COMMON] unsigned char 
;; Return value:  Size  Location     Type
;;                  3    8[COMMON] float 
;; Registers used:
;;		wreg, status,2, status,0, pclath, cstack
;; Tracked objects:
;;		On entry : 60/20
;;		On exit  : 60/20
;;		Unchanged: FFF9F/0
;; Data sizes:     COMMON   BANK0   BANK1   BANK3   BANK2
;;      Params:         4       0       0       0       0
;;      Locals:         1       0       0       0       0
;;      Temps:          0       0       0       0       0
;;      Totals:         5       0       0       0       0
;;Total ram usage:        5 bytes
;; Hardware stack levels used:    1
;; Hardware stack levels required when called:    1
;; This function calls:
;;		___ftpack
;; This function is called by:
;;		_printf
;; This function uses a non-reentrant model
;;
psect	text557
	file	"C:\Program Files (x86)\HI-TECH Software\PICC\9.83\sources\lltoft.c"
	line	36
	global	__size_of___lltoft
	__size_of___lltoft	equ	__end_of___lltoft-___lltoft
	
___lltoft:	
	opt	stack 5
; Regs used in ___lltoft: [wreg+status,2+status,0+pclath+cstack]
	line	38
	
l6688:	
	movlw	(08Eh)
	movwf	(___lltoft@exp)
	line	41
	goto	l6692
	line	42
	
l6690:	
	clrc
	rrf	(___lltoft@c+3),f
	rrf	(___lltoft@c+2),f
	rrf	(___lltoft@c+1),f
	rrf	(___lltoft@c),f
	line	43
	incf	(___lltoft@exp),f
	line	41
	
l6692:	
	movlw	high highword(-16777216)
	andwf	(___lltoft@c+3),w
	btfss	status,2
	goto	u3131
	goto	u3130
u3131:
	goto	l6690
u3130:
	line	45
	
l6694:	
	movf	(___lltoft@c),w
	movwf	(?___ftpack)
	movf	(___lltoft@c+1),w
	movwf	(?___ftpack+1)
	movf	(___lltoft@c+2),w
	movwf	(?___ftpack+2)
	movf	(___lltoft@exp),w
	movwf	0+(?___ftpack)+03h
	clrf	0+(?___ftpack)+04h
	fcall	___ftpack
	movf	(0+(?___ftpack)),w
	movwf	(?___lltoft)
	movf	(1+(?___ftpack)),w
	movwf	(?___lltoft+1)
	movf	(2+(?___ftpack)),w
	movwf	(?___lltoft+2)
	line	46
	
l3516:	
	return
	opt stack 0
GLOBAL	__end_of___lltoft
	__end_of___lltoft:
;; =============== function ___lltoft ends ============

	signat	___lltoft,4219
	global	___awtoft
psect	text558,local,class=CODE,delta=2
global __ptext558
__ptext558:

;; *************** function ___awtoft *****************
;; Defined at:
;;		line 33 in file "C:\Program Files (x86)\HI-TECH Software\PICC\9.83\sources\awtoft.c"
;; Parameters:    Size  Location     Type
;;  c               2    8[COMMON] int 
;; Auto vars:     Size  Location     Type
;;  sign            1   11[COMMON] unsigned char 
;; Return value:  Size  Location     Type
;;                  3    8[COMMON] float 
;; Registers used:
;;		wreg, status,2, status,0, pclath, cstack
;; Tracked objects:
;;		On entry : 60/0
;;		On exit  : 60/0
;;		Unchanged: FFF9F/0
;; Data sizes:     COMMON   BANK0   BANK1   BANK3   BANK2
;;      Params:         3       0       0       0       0
;;      Locals:         1       0       0       0       0
;;      Temps:          0       0       0       0       0
;;      Totals:         4       0       0       0       0
;;Total ram usage:        4 bytes
;; Hardware stack levels used:    1
;; Hardware stack levels required when called:    1
;; This function calls:
;;		___ftpack
;; This function is called by:
;;		_read_adc_AN3
;;		_read_adc_AN12
;; This function uses a non-reentrant model
;;
psect	text558
	file	"C:\Program Files (x86)\HI-TECH Software\PICC\9.83\sources\awtoft.c"
	line	33
	global	__size_of___awtoft
	__size_of___awtoft	equ	__end_of___awtoft-___awtoft
	
___awtoft:	
	opt	stack 5
; Regs used in ___awtoft: [wreg+status,2+status,0+pclath+cstack]
	line	36
	
l6676:	
	clrf	(___awtoft@sign)
	line	37
	
l6678:	
	btfss	(___awtoft@c+1),7
	goto	u3121
	goto	u3120
u3121:
	goto	l6684
u3120:
	line	38
	
l6680:	
	comf	(___awtoft@c),f
	comf	(___awtoft@c+1),f
	incf	(___awtoft@c),f
	skipnz
	incf	(___awtoft@c+1),f
	line	39
	
l6682:	
	clrf	(___awtoft@sign)
	incf	(___awtoft@sign),f
	line	41
	
l6684:	
	movf	(___awtoft@c),w
	movwf	(?___ftpack)
	movf	(___awtoft@c+1),w
	movwf	(?___ftpack+1)
	clrf	(?___ftpack+2)
	movlw	(08Eh)
	movwf	0+(?___ftpack)+03h
	movf	(___awtoft@sign),w
	movwf	0+(?___ftpack)+04h
	fcall	___ftpack
	movf	(0+(?___ftpack)),w
	movwf	(?___awtoft)
	movf	(1+(?___ftpack)),w
	movwf	(?___awtoft+1)
	movf	(2+(?___ftpack)),w
	movwf	(?___awtoft+2)
	line	42
	
l3413:	
	return
	opt stack 0
GLOBAL	__end_of___awtoft
	__end_of___awtoft:
;; =============== function ___awtoft ends ============

	signat	___awtoft,4219
	global	___ftmul
psect	text559,local,class=CODE,delta=2
global __ptext559
__ptext559:

;; *************** function ___ftmul *****************
;; Defined at:
;;		line 52 in file "C:\Program Files (x86)\HI-TECH Software\PICC\9.83\sources\ftmul.c"
;; Parameters:    Size  Location     Type
;;  f1              3   15[BANK0 ] float 
;;  f2              3   18[BANK0 ] float 
;; Auto vars:     Size  Location     Type
;;  f3_as_produc    3   25[BANK0 ] unsigned um
;;  sign            1   29[BANK0 ] unsigned char 
;;  cntr            1   28[BANK0 ] unsigned char 
;;  exp             1   24[BANK0 ] unsigned char 
;; Return value:  Size  Location     Type
;;                  3   15[BANK0 ] float 
;; Registers used:
;;		wreg, status,2, status,0, pclath, cstack
;; Tracked objects:
;;		On entry : 60/0
;;		On exit  : 60/0
;;		Unchanged: FFF9F/0
;; Data sizes:     COMMON   BANK0   BANK1   BANK3   BANK2
;;      Params:         0       6       0       0       0
;;      Locals:         0       6       0       0       0
;;      Temps:          0       3       0       0       0
;;      Totals:         0      15       0       0       0
;;Total ram usage:       15 bytes
;; Hardware stack levels used:    1
;; Hardware stack levels required when called:    1
;; This function calls:
;;		___ftpack
;; This function is called by:
;;		_read_adc_AN3
;;		_read_adc_AN12
;;		_fround
;;		_scale
;;		_printf
;; This function uses a non-reentrant model
;;
psect	text559
	file	"C:\Program Files (x86)\HI-TECH Software\PICC\9.83\sources\ftmul.c"
	line	52
	global	__size_of___ftmul
	__size_of___ftmul	equ	__end_of___ftmul-___ftmul
	
___ftmul:	
	opt	stack 5
; Regs used in ___ftmul: [wreg+status,2+status,0+pclath+cstack]
	line	56
	
l6620:	
	movf	(___ftmul@f1),w
	movwf	((??___ftmul+0)+0)
	movf	(___ftmul@f1+1),w
	movwf	((??___ftmul+0)+0+1)
	movf	(___ftmul@f1+2),w
	movwf	((??___ftmul+0)+0+2)
	clrc
	rlf	(??___ftmul+0)+1,w
	rlf	(??___ftmul+0)+2,w
	movwf	(___ftmul@exp)
	movf	((___ftmul@exp)),f
	skipz
	goto	u3041
	goto	u3040
u3041:
	goto	l6626
u3040:
	line	57
	
l6622:	
	clrf	(?___ftmul)
	clrf	(?___ftmul+1)
	clrf	(?___ftmul+2)
	goto	l3375
	line	58
	
l6626:	
	movf	(___ftmul@f2),w
	movwf	((??___ftmul+0)+0)
	movf	(___ftmul@f2+1),w
	movwf	((??___ftmul+0)+0+1)
	movf	(___ftmul@f2+2),w
	movwf	((??___ftmul+0)+0+2)
	clrc
	rlf	(??___ftmul+0)+1,w
	rlf	(??___ftmul+0)+2,w
	movwf	(___ftmul@sign)
	movf	((___ftmul@sign)),f
	skipz
	goto	u3051
	goto	u3050
u3051:
	goto	l6632
u3050:
	line	59
	
l6628:	
	clrf	(?___ftmul)
	clrf	(?___ftmul+1)
	clrf	(?___ftmul+2)
	goto	l3375
	line	60
	
l6632:	
	movf	(___ftmul@sign),w
	addlw	07Bh
	addwf	(___ftmul@exp),f
	line	61
	
l6634:	
	movf	0+(((___ftmul@f1))+2),w
	movwf	(___ftmul@sign)
	line	62
	
l6636:	
	movf	0+(((___ftmul@f2))+2),w
	xorwf	(___ftmul@sign),f
	line	63
	
l6638:	
	movlw	(080h)
	andwf	(___ftmul@sign),f
	line	64
	
l6640:	
	bsf	(___ftmul@f1)+(15/8),(15)&7
	line	66
	
l6642:	
	bsf	(___ftmul@f2)+(15/8),(15)&7
	line	67
	
l6644:	
	movlw	0FFh
	andwf	(___ftmul@f2),f
	movlw	0FFh
	andwf	(___ftmul@f2+1),f
	movlw	0
	andwf	(___ftmul@f2+2),f
	line	68
	
l6646:	
	clrf	(___ftmul@f3_as_product)
	clrf	(___ftmul@f3_as_product+1)
	clrf	(___ftmul@f3_as_product+2)
	line	69
	
l6648:	
	movlw	(07h)
	movwf	(___ftmul@cntr)
	line	71
	
l6650:	
	btfss	(___ftmul@f1),(0)&7
	goto	u3061
	goto	u3060
u3061:
	goto	l6654
u3060:
	line	72
	
l6652:	
	movf	(___ftmul@f2),w
	addwf	(___ftmul@f3_as_product),f
	movf	(___ftmul@f2+1),w
	clrz
	skipnc
	incf	(___ftmul@f2+1),w
	skipnz
	goto	u3071
	addwf	(___ftmul@f3_as_product+1),f
u3071:
	movf	(___ftmul@f2+2),w
	clrz
	skipnc
	incf	(___ftmul@f2+2),w
	skipnz
	goto	u3072
	addwf	(___ftmul@f3_as_product+2),f
u3072:

	line	73
	
l6654:	
	clrc
	rrf	(___ftmul@f1+2),f
	rrf	(___ftmul@f1+1),f
	rrf	(___ftmul@f1),f
	line	74
	
l6656:	
	clrc
	rlf	(___ftmul@f2),f
	rlf	(___ftmul@f2+1),f
	rlf	(___ftmul@f2+2),f
	line	75
	
l6658:	
	decfsz	(___ftmul@cntr),f
	goto	u3081
	goto	u3080
u3081:
	goto	l6650
u3080:
	line	76
	
l6660:	
	movlw	(09h)
	movwf	(___ftmul@cntr)
	line	78
	
l6662:	
	btfss	(___ftmul@f1),(0)&7
	goto	u3091
	goto	u3090
u3091:
	goto	l6666
u3090:
	line	79
	
l6664:	
	movf	(___ftmul@f2),w
	addwf	(___ftmul@f3_as_product),f
	movf	(___ftmul@f2+1),w
	clrz
	skipnc
	incf	(___ftmul@f2+1),w
	skipnz
	goto	u3101
	addwf	(___ftmul@f3_as_product+1),f
u3101:
	movf	(___ftmul@f2+2),w
	clrz
	skipnc
	incf	(___ftmul@f2+2),w
	skipnz
	goto	u3102
	addwf	(___ftmul@f3_as_product+2),f
u3102:

	line	80
	
l6666:	
	clrc
	rrf	(___ftmul@f1+2),f
	rrf	(___ftmul@f1+1),f
	rrf	(___ftmul@f1),f
	line	81
	
l6668:	
	clrc
	rrf	(___ftmul@f3_as_product+2),f
	rrf	(___ftmul@f3_as_product+1),f
	rrf	(___ftmul@f3_as_product),f
	line	82
	
l6670:	
	decfsz	(___ftmul@cntr),f
	goto	u3111
	goto	u3110
u3111:
	goto	l6662
u3110:
	line	83
	
l6672:	
	movf	(___ftmul@f3_as_product),w
	movwf	(?___ftpack)
	movf	(___ftmul@f3_as_product+1),w
	movwf	(?___ftpack+1)
	movf	(___ftmul@f3_as_product+2),w
	movwf	(?___ftpack+2)
	movf	(___ftmul@exp),w
	movwf	0+(?___ftpack)+03h
	movf	(___ftmul@sign),w
	movwf	0+(?___ftpack)+04h
	fcall	___ftpack
	movf	(0+(?___ftpack)),w
	movwf	(?___ftmul)
	movf	(1+(?___ftpack)),w
	movwf	(?___ftmul+1)
	movf	(2+(?___ftpack)),w
	movwf	(?___ftmul+2)
	line	84
	
l3375:	
	return
	opt stack 0
GLOBAL	__end_of___ftmul
	__end_of___ftmul:
;; =============== function ___ftmul ends ============

	signat	___ftmul,8315
	global	___ftdiv
psect	text560,local,class=CODE,delta=2
global __ptext560
__ptext560:

;; *************** function ___ftdiv *****************
;; Defined at:
;;		line 50 in file "C:\Program Files (x86)\HI-TECH Software\PICC\9.83\sources\ftdiv.c"
;; Parameters:    Size  Location     Type
;;  f2              3    0[BANK0 ] float 
;;  f1              3    3[BANK0 ] float 
;; Auto vars:     Size  Location     Type
;;  f3              3   10[BANK0 ] float 
;;  sign            1   14[BANK0 ] unsigned char 
;;  exp             1   13[BANK0 ] unsigned char 
;;  cntr            1    9[BANK0 ] unsigned char 
;; Return value:  Size  Location     Type
;;                  3    0[BANK0 ] float 
;; Registers used:
;;		wreg, status,2, status,0, pclath, cstack
;; Tracked objects:
;;		On entry : 60/0
;;		On exit  : 60/0
;;		Unchanged: FFF9F/0
;; Data sizes:     COMMON   BANK0   BANK1   BANK3   BANK2
;;      Params:         0       6       0       0       0
;;      Locals:         0       6       0       0       0
;;      Temps:          0       3       0       0       0
;;      Totals:         0      15       0       0       0
;;Total ram usage:       15 bytes
;; Hardware stack levels used:    1
;; Hardware stack levels required when called:    1
;; This function calls:
;;		___ftpack
;; This function is called by:
;;		_read_adc_AN3
;;		_read_adc_AN12
;; This function uses a non-reentrant model
;;
psect	text560
	file	"C:\Program Files (x86)\HI-TECH Software\PICC\9.83\sources\ftdiv.c"
	line	50
	global	__size_of___ftdiv
	__size_of___ftdiv	equ	__end_of___ftdiv-___ftdiv
	
___ftdiv:	
	opt	stack 5
; Regs used in ___ftdiv: [wreg+status,2+status,0+pclath+cstack]
	line	55
	
l6576:	
	movf	(___ftdiv@f1),w
	movwf	((??___ftdiv+0)+0)
	movf	(___ftdiv@f1+1),w
	movwf	((??___ftdiv+0)+0+1)
	movf	(___ftdiv@f1+2),w
	movwf	((??___ftdiv+0)+0+2)
	clrc
	rlf	(??___ftdiv+0)+1,w
	rlf	(??___ftdiv+0)+2,w
	movwf	(___ftdiv@exp)
	movf	((___ftdiv@exp)),f
	skipz
	goto	u3001
	goto	u3000
u3001:
	goto	l6582
u3000:
	line	56
	
l6578:	
	clrf	(?___ftdiv)
	clrf	(?___ftdiv+1)
	clrf	(?___ftdiv+2)
	goto	l3365
	line	57
	
l6582:	
	movf	(___ftdiv@f2),w
	movwf	((??___ftdiv+0)+0)
	movf	(___ftdiv@f2+1),w
	movwf	((??___ftdiv+0)+0+1)
	movf	(___ftdiv@f2+2),w
	movwf	((??___ftdiv+0)+0+2)
	clrc
	rlf	(??___ftdiv+0)+1,w
	rlf	(??___ftdiv+0)+2,w
	movwf	(___ftdiv@sign)
	movf	((___ftdiv@sign)),f
	skipz
	goto	u3011
	goto	u3010
u3011:
	goto	l3366
u3010:
	line	58
	
l6584:	
	clrf	(?___ftdiv)
	clrf	(?___ftdiv+1)
	clrf	(?___ftdiv+2)
	goto	l3365
	
l3366:	
	line	59
	clrf	(___ftdiv@f3)
	clrf	(___ftdiv@f3+1)
	clrf	(___ftdiv@f3+2)
	line	60
	
l6588:	
	movlw	(089h)
	addwf	(___ftdiv@sign),w
	movwf	(??___ftdiv+0)+0
	movf	0+(??___ftdiv+0)+0,w
	subwf	(___ftdiv@exp),f
	line	61
	
l6590:	
	movf	0+(((___ftdiv@f1))+2),w
	movwf	(___ftdiv@sign)
	line	62
	
l6592:	
	movf	0+(((___ftdiv@f2))+2),w
	xorwf	(___ftdiv@sign),f
	line	63
	
l6594:	
	movlw	(080h)
	andwf	(___ftdiv@sign),f
	line	64
	
l6596:	
	bsf	(___ftdiv@f1)+(15/8),(15)&7
	line	65
	
l6598:	
	movlw	0FFh
	andwf	(___ftdiv@f1),f
	movlw	0FFh
	andwf	(___ftdiv@f1+1),f
	movlw	0
	andwf	(___ftdiv@f1+2),f
	line	66
	
l6600:	
	bsf	(___ftdiv@f2)+(15/8),(15)&7
	line	67
	
l6602:	
	movlw	0FFh
	andwf	(___ftdiv@f2),f
	movlw	0FFh
	andwf	(___ftdiv@f2+1),f
	movlw	0
	andwf	(___ftdiv@f2+2),f
	line	68
	
l6604:	
	movlw	(018h)
	movwf	(___ftdiv@cntr)
	line	70
	
l6606:	
	clrc
	rlf	(___ftdiv@f3),f
	rlf	(___ftdiv@f3+1),f
	rlf	(___ftdiv@f3+2),f
	line	71
	movf	(___ftdiv@f2+2),w
	subwf	(___ftdiv@f1+2),w
	skipz
	goto	u3025
	movf	(___ftdiv@f2+1),w
	subwf	(___ftdiv@f1+1),w
	skipz
	goto	u3025
	movf	(___ftdiv@f2),w
	subwf	(___ftdiv@f1),w
u3025:
	skipc
	goto	u3021
	goto	u3020
u3021:
	goto	l6612
u3020:
	line	72
	
l6608:	
	movf	(___ftdiv@f2),w
	subwf	(___ftdiv@f1),f
	movf	(___ftdiv@f2+1),w
	skipc
	incfsz	(___ftdiv@f2+1),w
	subwf	(___ftdiv@f1+1),f
	movf	(___ftdiv@f2+2),w
	skipc
	incf	(___ftdiv@f2+2),w
	subwf	(___ftdiv@f1+2),f
	line	73
	
l6610:	
	bsf	(___ftdiv@f3)+(0/8),(0)&7
	line	75
	
l6612:	
	clrc
	rlf	(___ftdiv@f1),f
	rlf	(___ftdiv@f1+1),f
	rlf	(___ftdiv@f1+2),f
	line	76
	
l6614:	
	decfsz	(___ftdiv@cntr),f
	goto	u3031
	goto	u3030
u3031:
	goto	l6606
u3030:
	line	77
	
l6616:	
	movf	(___ftdiv@f3),w
	movwf	(?___ftpack)
	movf	(___ftdiv@f3+1),w
	movwf	(?___ftpack+1)
	movf	(___ftdiv@f3+2),w
	movwf	(?___ftpack+2)
	movf	(___ftdiv@exp),w
	movwf	0+(?___ftpack)+03h
	movf	(___ftdiv@sign),w
	movwf	0+(?___ftpack)+04h
	fcall	___ftpack
	movf	(0+(?___ftpack)),w
	movwf	(?___ftdiv)
	movf	(1+(?___ftpack)),w
	movwf	(?___ftdiv+1)
	movf	(2+(?___ftpack)),w
	movwf	(?___ftdiv+2)
	line	78
	
l3365:	
	return
	opt stack 0
GLOBAL	__end_of___ftdiv
	__end_of___ftdiv:
;; =============== function ___ftdiv ends ============

	signat	___ftdiv,8315
	global	___ftadd
psect	text561,local,class=CODE,delta=2
global __ptext561
__ptext561:

;; *************** function ___ftadd *****************
;; Defined at:
;;		line 87 in file "C:\Program Files (x86)\HI-TECH Software\PICC\9.83\sources\ftadd.c"
;; Parameters:    Size  Location     Type
;;  f1              3   30[BANK0 ] float 
;;  f2              3   33[BANK0 ] float 
;; Auto vars:     Size  Location     Type
;;  exp1            1   41[BANK0 ] unsigned char 
;;  exp2            1   40[BANK0 ] unsigned char 
;;  sign            1   39[BANK0 ] unsigned char 
;; Return value:  Size  Location     Type
;;                  3   30[BANK0 ] float 
;; Registers used:
;;		wreg, status,2, status,0, pclath, cstack
;; Tracked objects:
;;		On entry : 60/0
;;		On exit  : 60/0
;;		Unchanged: FFF9F/0
;; Data sizes:     COMMON   BANK0   BANK1   BANK3   BANK2
;;      Params:         0       6       0       0       0
;;      Locals:         0       3       0       0       0
;;      Temps:          0       3       0       0       0
;;      Totals:         0      12       0       0       0
;;Total ram usage:       12 bytes
;; Hardware stack levels used:    1
;; Hardware stack levels required when called:    1
;; This function calls:
;;		___ftpack
;; This function is called by:
;;		_printf
;;		___ftsub
;; This function uses a non-reentrant model
;;
psect	text561
	file	"C:\Program Files (x86)\HI-TECH Software\PICC\9.83\sources\ftadd.c"
	line	87
	global	__size_of___ftadd
	__size_of___ftadd	equ	__end_of___ftadd-___ftadd
	
___ftadd:	
	opt	stack 4
; Regs used in ___ftadd: [wreg+status,2+status,0+pclath+cstack]
	line	90
	
l6498:	
	movf	(___ftadd@f1),w
	movwf	((??___ftadd+0)+0)
	movf	(___ftadd@f1+1),w
	movwf	((??___ftadd+0)+0+1)
	movf	(___ftadd@f1+2),w
	movwf	((??___ftadd+0)+0+2)
	clrc
	rlf	(??___ftadd+0)+1,w
	rlf	(??___ftadd+0)+2,w
	movwf	(___ftadd@exp1)
	line	91
	movf	(___ftadd@f2),w
	movwf	((??___ftadd+0)+0)
	movf	(___ftadd@f2+1),w
	movwf	((??___ftadd+0)+0+1)
	movf	(___ftadd@f2+2),w
	movwf	((??___ftadd+0)+0+2)
	clrc
	rlf	(??___ftadd+0)+1,w
	rlf	(??___ftadd+0)+2,w
	movwf	(___ftadd@exp2)
	line	92
	
l6500:	
	movf	(___ftadd@exp1),w
	skipz
	goto	u2800
	goto	l6506
u2800:
	
l6502:	
	movf	(___ftadd@exp2),w
	subwf	(___ftadd@exp1),w
	skipnc
	goto	u2811
	goto	u2810
u2811:
	goto	l6510
u2810:
	
l6504:	
	movf	(___ftadd@exp2),w
	movwf	(??___ftadd+0)+0
	movf	(___ftadd@exp1),w
	subwf	(??___ftadd+0)+0,f
	movlw	(019h)
	subwf	0+(??___ftadd+0)+0,w
	skipc
	goto	u2821
	goto	u2820
u2821:
	goto	l6510
u2820:
	line	93
	
l6506:	
	movf	(___ftadd@f2),w
	movwf	(?___ftadd)
	movf	(___ftadd@f2+1),w
	movwf	(?___ftadd+1)
	movf	(___ftadd@f2+2),w
	movwf	(?___ftadd+2)
	goto	l3323
	line	94
	
l6510:	
	movf	(___ftadd@exp2),w
	skipz
	goto	u2830
	goto	l3326
u2830:
	
l6512:	
	movf	(___ftadd@exp1),w
	subwf	(___ftadd@exp2),w
	skipnc
	goto	u2841
	goto	u2840
u2841:
	goto	l6516
u2840:
	
l6514:	
	movf	(___ftadd@exp1),w
	movwf	(??___ftadd+0)+0
	movf	(___ftadd@exp2),w
	subwf	(??___ftadd+0)+0,f
	movlw	(019h)
	subwf	0+(??___ftadd+0)+0,w
	skipc
	goto	u2851
	goto	u2850
u2851:
	goto	l6516
u2850:
	
l3326:	
	line	95
	goto	l3323
	line	96
	
l6516:	
	movlw	(06h)
	movwf	(___ftadd@sign)
	line	97
	
l6518:	
	btfss	(___ftadd@f1+2),(23)&7
	goto	u2861
	goto	u2860
u2861:
	goto	l3327
u2860:
	line	98
	
l6520:	
	bsf	(___ftadd@sign)+(7/8),(7)&7
	
l3327:	
	line	99
	btfss	(___ftadd@f2+2),(23)&7
	goto	u2871
	goto	u2870
u2871:
	goto	l3328
u2870:
	line	100
	
l6522:	
	bsf	(___ftadd@sign)+(6/8),(6)&7
	
l3328:	
	line	101
	bsf	(___ftadd@f1)+(15/8),(15)&7
	line	102
	
l6524:	
	movlw	0FFh
	andwf	(___ftadd@f1),f
	movlw	0FFh
	andwf	(___ftadd@f1+1),f
	movlw	0
	andwf	(___ftadd@f1+2),f
	line	103
	
l6526:	
	bsf	(___ftadd@f2)+(15/8),(15)&7
	line	104
	movlw	0FFh
	andwf	(___ftadd@f2),f
	movlw	0FFh
	andwf	(___ftadd@f2+1),f
	movlw	0
	andwf	(___ftadd@f2+2),f
	line	106
	movf	(___ftadd@exp2),w
	subwf	(___ftadd@exp1),w
	skipnc
	goto	u2881
	goto	u2880
u2881:
	goto	l6538
u2880:
	line	110
	
l6528:	
	clrc
	rlf	(___ftadd@f2),f
	rlf	(___ftadd@f2+1),f
	rlf	(___ftadd@f2+2),f
	line	111
	decf	(___ftadd@exp2),f
	line	112
	
l6530:	
	movf	(___ftadd@exp2),w
	xorwf	(___ftadd@exp1),w
	skipnz
	goto	u2891
	goto	u2890
u2891:
	goto	l6536
u2890:
	
l6532:	
	decf	(___ftadd@sign),f
	movf	((___ftadd@sign)),w
	andlw	07h
	btfss	status,2
	goto	u2901
	goto	u2900
u2901:
	goto	l6528
u2900:
	goto	l6536
	line	114
	
l6534:	
	clrc
	rrf	(___ftadd@f1+2),f
	rrf	(___ftadd@f1+1),f
	rrf	(___ftadd@f1),f
	line	115
	incf	(___ftadd@exp1),f
	line	113
	
l6536:	
	movf	(___ftadd@exp1),w
	xorwf	(___ftadd@exp2),w
	skipz
	goto	u2911
	goto	u2910
u2911:
	goto	l6534
u2910:
	goto	l3337
	line	117
	
l6538:	
	movf	(___ftadd@exp1),w
	subwf	(___ftadd@exp2),w
	skipnc
	goto	u2921
	goto	u2920
u2921:
	goto	l3337
u2920:
	line	121
	
l6540:	
	clrc
	rlf	(___ftadd@f1),f
	rlf	(___ftadd@f1+1),f
	rlf	(___ftadd@f1+2),f
	line	122
	decf	(___ftadd@exp1),f
	line	123
	
l6542:	
	movf	(___ftadd@exp2),w
	xorwf	(___ftadd@exp1),w
	skipnz
	goto	u2931
	goto	u2930
u2931:
	goto	l6548
u2930:
	
l6544:	
	decf	(___ftadd@sign),f
	movf	((___ftadd@sign)),w
	andlw	07h
	btfss	status,2
	goto	u2941
	goto	u2940
u2941:
	goto	l6540
u2940:
	goto	l6548
	line	125
	
l6546:	
	clrc
	rrf	(___ftadd@f2+2),f
	rrf	(___ftadd@f2+1),f
	rrf	(___ftadd@f2),f
	line	126
	incf	(___ftadd@exp2),f
	line	124
	
l6548:	
	movf	(___ftadd@exp1),w
	xorwf	(___ftadd@exp2),w
	skipz
	goto	u2951
	goto	u2950
u2951:
	goto	l6546
u2950:
	line	129
	
l3337:	
	btfss	(___ftadd@sign),(7)&7
	goto	u2961
	goto	u2960
u2961:
	goto	l6554
u2960:
	line	131
	
l6550:	
	movlw	0FFh
	xorwf	(___ftadd@f1),f
	movlw	0FFh
	xorwf	(___ftadd@f1+1),f
	movlw	0FFh
	xorwf	(___ftadd@f1+2),f
	line	132
	
l6552:	
	incf	(___ftadd@f1),f
	skipnz
	incf	(___ftadd@f1+1),f
	skipnz
	incf	(___ftadd@f1+2),f
	line	134
	
l6554:	
	btfss	(___ftadd@sign),(6)&7
	goto	u2971
	goto	u2970
u2971:
	goto	l6560
u2970:
	line	136
	
l6556:	
	movlw	0FFh
	xorwf	(___ftadd@f2),f
	movlw	0FFh
	xorwf	(___ftadd@f2+1),f
	movlw	0FFh
	xorwf	(___ftadd@f2+2),f
	line	137
	
l6558:	
	incf	(___ftadd@f2),f
	skipnz
	incf	(___ftadd@f2+1),f
	skipnz
	incf	(___ftadd@f2+2),f
	line	139
	
l6560:	
	clrf	(___ftadd@sign)
	line	140
	
l6562:	
	movf	(___ftadd@f1),w
	addwf	(___ftadd@f2),f
	movf	(___ftadd@f1+1),w
	clrz
	skipnc
	incf	(___ftadd@f1+1),w
	skipnz
	goto	u2981
	addwf	(___ftadd@f2+1),f
u2981:
	movf	(___ftadd@f1+2),w
	clrz
	skipnc
	incf	(___ftadd@f1+2),w
	skipnz
	goto	u2982
	addwf	(___ftadd@f2+2),f
u2982:

	line	141
	
l6564:	
	btfss	(___ftadd@f2+2),(23)&7
	goto	u2991
	goto	u2990
u2991:
	goto	l6572
u2990:
	line	142
	
l6566:	
	movlw	0FFh
	xorwf	(___ftadd@f2),f
	movlw	0FFh
	xorwf	(___ftadd@f2+1),f
	movlw	0FFh
	xorwf	(___ftadd@f2+2),f
	line	143
	
l6568:	
	incf	(___ftadd@f2),f
	skipnz
	incf	(___ftadd@f2+1),f
	skipnz
	incf	(___ftadd@f2+2),f
	line	144
	
l6570:	
	clrf	(___ftadd@sign)
	incf	(___ftadd@sign),f
	line	146
	
l6572:	
	movf	(___ftadd@f2),w
	movwf	(?___ftpack)
	movf	(___ftadd@f2+1),w
	movwf	(?___ftpack+1)
	movf	(___ftadd@f2+2),w
	movwf	(?___ftpack+2)
	movf	(___ftadd@exp1),w
	movwf	0+(?___ftpack)+03h
	movf	(___ftadd@sign),w
	movwf	0+(?___ftpack)+04h
	fcall	___ftpack
	movf	(0+(?___ftpack)),w
	movwf	(?___ftadd)
	movf	(1+(?___ftpack)),w
	movwf	(?___ftadd+1)
	movf	(2+(?___ftpack)),w
	movwf	(?___ftadd+2)
	line	148
	
l3323:	
	return
	opt stack 0
GLOBAL	__end_of___ftadd
	__end_of___ftadd:
;; =============== function ___ftadd ends ============

	signat	___ftadd,8315
	global	_lcd_busy
psect	text562,local,class=CODE,delta=2
global __ptext562
__ptext562:

;; *************** function _lcd_busy *****************
;; Defined at:
;;		line 47 in file "D:\TTVXL\Library\lcd(16).c"
;; Parameters:    Size  Location     Type
;;		None
;; Auto vars:     Size  Location     Type
;;  busy            1    1[COMMON] unsigned char 
;; Return value:  Size  Location     Type
;;                  1    wreg      unsigned char 
;; Registers used:
;;		wreg
;; Tracked objects:
;;		On entry : 0/0
;;		On exit  : 60/0
;;		Unchanged: 0/0
;; Data sizes:     COMMON   BANK0   BANK1   BANK3   BANK2
;;      Params:         0       0       0       0       0
;;      Locals:         1       0       0       0       0
;;      Temps:          1       0       0       0       0
;;      Totals:         2       0       0       0       0
;;Total ram usage:        2 bytes
;; Hardware stack levels used:    1
;; This function calls:
;;		Nothing
;; This function is called by:
;;		_lcd_init
;;		_lcd_putc
;;		_lcd_gotoxy
;; This function uses a non-reentrant model
;;
psect	text562
	file	"D:\TTVXL\Library\lcd(16).c"
	line	47
	global	__size_of_lcd_busy
	__size_of_lcd_busy	equ	__end_of_lcd_busy-_lcd_busy
	
_lcd_busy:	
	opt	stack 3
; Regs used in _lcd_busy: [wreg]
	line	50
	
l6484:	
;lcd(16).c: 48: unsigned char busy;
;lcd(16).c: 50: TRISD4 = 1;
	bsf	status, 5	;RP0=1, select bank1
	bcf	status, 6	;RP1=0, select bank1
	bsf	(1092/8)^080h,(1092)&7
	line	51
;lcd(16).c: 51: TRISD5 = 1;
	bsf	(1093/8)^080h,(1093)&7
	line	52
;lcd(16).c: 52: TRISD6 = 1;
	bsf	(1094/8)^080h,(1094)&7
	line	53
;lcd(16).c: 53: TRISD7 = 1;
	bsf	(1095/8)^080h,(1095)&7
	line	55
;lcd(16).c: 55: RD2 = 1;
	bcf	status, 5	;RP0=0, select bank0
	bsf	(66/8),(66)&7
	line	56
;lcd(16).c: 56: RD1 = 0;
	bcf	(65/8),(65)&7
	line	57
	
l6486:	
;lcd(16).c: 57: _delay((unsigned long)((20)*(20000000/4000000.0)));
	opt asmopt_off
movlw	33
movwf	(??_lcd_busy+0)+0,f
u3887:
decfsz	(??_lcd_busy+0)+0,f
	goto	u3887
opt asmopt_on

	line	58
	
l6488:	
;lcd(16).c: 58: RD3 = 1;
	bcf	status, 5	;RP0=0, select bank0
	bcf	status, 6	;RP1=0, select bank0
	bsf	(67/8),(67)&7
	line	59
;lcd(16).c: 59: _delay((unsigned long)((20)*(20000000/4000000.0)));
	opt asmopt_off
movlw	33
movwf	(??_lcd_busy+0)+0,f
u3897:
decfsz	(??_lcd_busy+0)+0,f
	goto	u3897
opt asmopt_on

	line	61
;lcd(16).c: 61: busy = RD7;
	movlw	0
	bcf	status, 5	;RP0=0, select bank0
	bcf	status, 6	;RP1=0, select bank0
	btfsc	(71/8),(71)&7
	movlw	1
	movwf	(lcd_busy@busy)
	line	63
	
l6490:	
;lcd(16).c: 63: RD3 = 0;
	bcf	(67/8),(67)&7
	line	64
;lcd(16).c: 64: _delay((unsigned long)((20)*(20000000/4000000.0)));
	opt asmopt_off
movlw	33
movwf	(??_lcd_busy+0)+0,f
u3907:
decfsz	(??_lcd_busy+0)+0,f
	goto	u3907
opt asmopt_on

	line	65
	
l6492:	
;lcd(16).c: 65: RD3 = 1;
	bcf	status, 5	;RP0=0, select bank0
	bcf	status, 6	;RP1=0, select bank0
	bsf	(67/8),(67)&7
	line	66
;lcd(16).c: 66: _delay((unsigned long)((20)*(20000000/4000000.0)));
	opt asmopt_off
movlw	33
movwf	(??_lcd_busy+0)+0,f
u3917:
decfsz	(??_lcd_busy+0)+0,f
	goto	u3917
opt asmopt_on

	line	67
	
l6494:	
;lcd(16).c: 67: RD3 = 0;
	bcf	status, 5	;RP0=0, select bank0
	bcf	status, 6	;RP1=0, select bank0
	bcf	(67/8),(67)&7
	line	70
;lcd(16).c: 70: return busy;
	movf	(lcd_busy@busy),w
	line	71
	
l2124:	
	return
	opt stack 0
GLOBAL	__end_of_lcd_busy
	__end_of_lcd_busy:
;; =============== function _lcd_busy ends ============

	signat	_lcd_busy,89
	global	_lcd_put_byte
psect	text563,local,class=CODE,delta=2
global __ptext563
__ptext563:

;; *************** function _lcd_put_byte *****************
;; Defined at:
;;		line 106 in file "D:\TTVXL\Library\lcd(16).c"
;; Parameters:    Size  Location     Type
;;  rs              1    wreg     unsigned char 
;;  b               1    0[COMMON] unsigned char 
;; Auto vars:     Size  Location     Type
;;  rs              1    3[COMMON] unsigned char 
;;  temp            1    4[COMMON] struct _BYTE_VAL
;; Return value:  Size  Location     Type
;;		None               void
;; Registers used:
;;		wreg, status,2, status,0
;; Tracked objects:
;;		On entry : 0/20
;;		On exit  : 60/0
;;		Unchanged: 0/0
;; Data sizes:     COMMON   BANK0   BANK1   BANK3   BANK2
;;      Params:         1       0       0       0       0
;;      Locals:         2       0       0       0       0
;;      Temps:          2       0       0       0       0
;;      Totals:         5       0       0       0       0
;;Total ram usage:        5 bytes
;; Hardware stack levels used:    1
;; This function calls:
;;		Nothing
;; This function is called by:
;;		_lcd_init
;;		_lcd_putc
;;		_lcd_gotoxy
;; This function uses a non-reentrant model
;;
psect	text563
	file	"D:\TTVXL\Library\lcd(16).c"
	line	106
	global	__size_of_lcd_put_byte
	__size_of_lcd_put_byte	equ	__end_of_lcd_put_byte-_lcd_put_byte
	
_lcd_put_byte:	
	opt	stack 3
; Regs used in _lcd_put_byte: [wreg+status,2+status,0]
;lcd_put_byte@rs stored from wreg
	line	109
	movwf	(lcd_put_byte@rs)
	
l6448:	
;lcd(16).c: 107: BYTE_VAL temp;
;lcd(16).c: 109: TRISD4 = 0;
	bsf	status, 5	;RP0=1, select bank1
	bcf	status, 6	;RP1=0, select bank1
	bcf	(1092/8)^080h,(1092)&7
	line	110
;lcd(16).c: 110: TRISD5 = 0;
	bcf	(1093/8)^080h,(1093)&7
	line	111
;lcd(16).c: 111: TRISD6 = 0;
	bcf	(1094/8)^080h,(1094)&7
	line	112
;lcd(16).c: 112: TRISD7 = 0;
	bcf	(1095/8)^080h,(1095)&7
	line	114
;lcd(16).c: 114: RD1 = 0;
	bcf	status, 5	;RP0=0, select bank0
	bcf	(65/8),(65)&7
	line	115
	
l6450:	
;lcd(16).c: 115: if(rs) RD1 = 1;
	movf	(lcd_put_byte@rs),w
	skipz
	goto	u2630
	goto	l6454
u2630:
	
l6452:	
	bsf	(65/8),(65)&7
	line	117
	
l6454:	
;lcd(16).c: 117: _delay((unsigned long)((20)*(20000000/4000000.0)));
	opt asmopt_off
movlw	33
movwf	(??_lcd_put_byte+0)+0,f
u3927:
decfsz	(??_lcd_put_byte+0)+0,f
	goto	u3927
opt asmopt_on

	line	118
	
l6456:	
;lcd(16).c: 118: RD2 = 0;
	bcf	status, 5	;RP0=0, select bank0
	bcf	status, 6	;RP1=0, select bank0
	bcf	(66/8),(66)&7
	line	119
;lcd(16).c: 119: _delay((unsigned long)((20)*(20000000/4000000.0)));
	opt asmopt_off
movlw	33
movwf	(??_lcd_put_byte+0)+0,f
u3937:
decfsz	(??_lcd_put_byte+0)+0,f
	goto	u3937
opt asmopt_on

	line	120
	
l6458:	
;lcd(16).c: 120: RD3 = 0;
	bcf	status, 5	;RP0=0, select bank0
	bcf	status, 6	;RP1=0, select bank0
	bcf	(67/8),(67)&7
	line	122
;lcd(16).c: 122: temp.Val = b;
	movf	(lcd_put_byte@b),w
	movwf	(lcd_put_byte@temp)
	line	125
	
l6460:	
;lcd(16).c: 125: RD4 = temp.bits.b4;
	swapf	(lcd_put_byte@temp),w
	andlw	(1<<1)-1
	movwf	(??_lcd_put_byte+0)+0
	rrf	(??_lcd_put_byte+0)+0,w
	btfsc	status,0
	goto	u2641
	goto	u2640
	
u2641:
	bcf	status, 5	;RP0=0, select bank0
	bcf	status, 6	;RP1=0, select bank0
	bsf	(68/8),(68)&7
	goto	u2654
u2640:
	bcf	status, 5	;RP0=0, select bank0
	bcf	status, 6	;RP1=0, select bank0
	bcf	(68/8),(68)&7
u2654:
	line	126
	
l6462:	
;lcd(16).c: 126: RD5 = temp.bits.b5;
	swapf	(lcd_put_byte@temp),w
	movwf	(??_lcd_put_byte+0)+0
	rrf	(??_lcd_put_byte+0)+0,w
	andlw	(1<<1)-1
	movwf	(??_lcd_put_byte+1)+0
	rrf	(??_lcd_put_byte+1)+0,w
	btfsc	status,0
	goto	u2661
	goto	u2660
	
u2661:
	bcf	status, 5	;RP0=0, select bank0
	bcf	status, 6	;RP1=0, select bank0
	bsf	(69/8),(69)&7
	goto	u2674
u2660:
	bcf	status, 5	;RP0=0, select bank0
	bcf	status, 6	;RP1=0, select bank0
	bcf	(69/8),(69)&7
u2674:
	line	127
	
l6464:	
;lcd(16).c: 127: RD6 = temp.bits.b6;
	swapf	(lcd_put_byte@temp),w
	movwf	(??_lcd_put_byte+0)+0
	rrf	(??_lcd_put_byte+0)+0,f
	rrf	(??_lcd_put_byte+0)+0,w
	andlw	(1<<1)-1
	movwf	(??_lcd_put_byte+1)+0
	rrf	(??_lcd_put_byte+1)+0,w
	btfsc	status,0
	goto	u2681
	goto	u2680
	
u2681:
	bcf	status, 5	;RP0=0, select bank0
	bcf	status, 6	;RP1=0, select bank0
	bsf	(70/8),(70)&7
	goto	u2694
u2680:
	bcf	status, 5	;RP0=0, select bank0
	bcf	status, 6	;RP1=0, select bank0
	bcf	(70/8),(70)&7
u2694:
	line	128
	
l6466:	
;lcd(16).c: 128: RD7 = temp.bits.b7;
	rlf	(lcd_put_byte@temp),w
	rlf	(lcd_put_byte@temp),w
	andlw	1
	movwf	(??_lcd_put_byte+0)+0
	rrf	(??_lcd_put_byte+0)+0,w
	btfsc	status,0
	goto	u2701
	goto	u2700
	
u2701:
	bcf	status, 5	;RP0=0, select bank0
	bcf	status, 6	;RP1=0, select bank0
	bsf	(71/8),(71)&7
	goto	u2714
u2700:
	bcf	status, 5	;RP0=0, select bank0
	bcf	status, 6	;RP1=0, select bank0
	bcf	(71/8),(71)&7
u2714:
	line	129
;lcd(16).c: 129: _delay((unsigned long)((20)*(20000000/4000000.0)));
	opt asmopt_off
movlw	33
movwf	(??_lcd_put_byte+0)+0,f
u3947:
decfsz	(??_lcd_put_byte+0)+0,f
	goto	u3947
opt asmopt_on

	line	130
	
l6468:	
;lcd(16).c: 130: RD3 = 1;
	bcf	status, 5	;RP0=0, select bank0
	bcf	status, 6	;RP1=0, select bank0
	bsf	(67/8),(67)&7
	line	131
;lcd(16).c: 131: _delay((unsigned long)((20)*(20000000/4000000.0)));
	opt asmopt_off
movlw	33
movwf	(??_lcd_put_byte+0)+0,f
u3957:
decfsz	(??_lcd_put_byte+0)+0,f
	goto	u3957
opt asmopt_on

	line	132
	
l6470:	
;lcd(16).c: 132: RD3 = 0;
	bcf	status, 5	;RP0=0, select bank0
	bcf	status, 6	;RP1=0, select bank0
	bcf	(67/8),(67)&7
	line	134
	
l6472:	
;lcd(16).c: 134: RD4 = temp.bits.b0;
	movf	(lcd_put_byte@temp),w
	andlw	(1<<1)-1
	movwf	(??_lcd_put_byte+0)+0
	rrf	(??_lcd_put_byte+0)+0,w
	btfsc	status,0
	goto	u2721
	goto	u2720
	
u2721:
	bcf	status, 5	;RP0=0, select bank0
	bcf	status, 6	;RP1=0, select bank0
	bsf	(68/8),(68)&7
	goto	u2734
u2720:
	bcf	status, 5	;RP0=0, select bank0
	bcf	status, 6	;RP1=0, select bank0
	bcf	(68/8),(68)&7
u2734:
	line	135
	
l6474:	
;lcd(16).c: 135: RD5 = temp.bits.b1;
	rrf	(lcd_put_byte@temp),w
	andlw	(1<<1)-1
	movwf	(??_lcd_put_byte+0)+0
	rrf	(??_lcd_put_byte+0)+0,w
	btfsc	status,0
	goto	u2741
	goto	u2740
	
u2741:
	bcf	status, 5	;RP0=0, select bank0
	bcf	status, 6	;RP1=0, select bank0
	bsf	(69/8),(69)&7
	goto	u2754
u2740:
	bcf	status, 5	;RP0=0, select bank0
	bcf	status, 6	;RP1=0, select bank0
	bcf	(69/8),(69)&7
u2754:
	line	136
	
l6476:	
;lcd(16).c: 136: RD6 = temp.bits.b2;
	rrf	(lcd_put_byte@temp),w
	movwf	(??_lcd_put_byte+0)+0
	rrf	(??_lcd_put_byte+0)+0,w
	andlw	(1<<1)-1
	movwf	(??_lcd_put_byte+1)+0
	rrf	(??_lcd_put_byte+1)+0,w
	btfsc	status,0
	goto	u2761
	goto	u2760
	
u2761:
	bcf	status, 5	;RP0=0, select bank0
	bcf	status, 6	;RP1=0, select bank0
	bsf	(70/8),(70)&7
	goto	u2774
u2760:
	bcf	status, 5	;RP0=0, select bank0
	bcf	status, 6	;RP1=0, select bank0
	bcf	(70/8),(70)&7
u2774:
	line	137
	
l6478:	
;lcd(16).c: 137: RD7 = temp.bits.b3;
	rrf	(lcd_put_byte@temp),w
	movwf	(??_lcd_put_byte+0)+0
	rrf	(??_lcd_put_byte+0)+0,f
	rrf	(??_lcd_put_byte+0)+0,w
	andlw	(1<<1)-1
	movwf	(??_lcd_put_byte+1)+0
	rrf	(??_lcd_put_byte+1)+0,w
	btfsc	status,0
	goto	u2781
	goto	u2780
	
u2781:
	bcf	status, 5	;RP0=0, select bank0
	bcf	status, 6	;RP1=0, select bank0
	bsf	(71/8),(71)&7
	goto	u2794
u2780:
	bcf	status, 5	;RP0=0, select bank0
	bcf	status, 6	;RP1=0, select bank0
	bcf	(71/8),(71)&7
u2794:
	line	138
;lcd(16).c: 138: _delay((unsigned long)((20)*(20000000/4000000.0)));
	opt asmopt_off
movlw	33
movwf	(??_lcd_put_byte+0)+0,f
u3967:
decfsz	(??_lcd_put_byte+0)+0,f
	goto	u3967
opt asmopt_on

	line	139
	
l6480:	
;lcd(16).c: 139: RD3 = 1;
	bcf	status, 5	;RP0=0, select bank0
	bcf	status, 6	;RP1=0, select bank0
	bsf	(67/8),(67)&7
	line	140
;lcd(16).c: 140: _delay((unsigned long)((20)*(20000000/4000000.0)));
	opt asmopt_off
movlw	33
movwf	(??_lcd_put_byte+0)+0,f
u3977:
decfsz	(??_lcd_put_byte+0)+0,f
	goto	u3977
opt asmopt_on

	line	141
	
l6482:	
;lcd(16).c: 141: RD3 = 0;
	bcf	status, 5	;RP0=0, select bank0
	bcf	status, 6	;RP1=0, select bank0
	bcf	(67/8),(67)&7
	line	142
	
l2132:	
	return
	opt stack 0
GLOBAL	__end_of_lcd_put_byte
	__end_of_lcd_put_byte:
;; =============== function _lcd_put_byte ends ============

	signat	_lcd_put_byte,8312
	global	___awmod
psect	text564,local,class=CODE,delta=2
global __ptext564
__ptext564:

;; *************** function ___awmod *****************
;; Defined at:
;;		line 5 in file "C:\Program Files (x86)\HI-TECH Software\PICC\9.83\sources\awmod.c"
;; Parameters:    Size  Location     Type
;;  divisor         2    0[COMMON] int 
;;  dividend        2    2[COMMON] int 
;; Auto vars:     Size  Location     Type
;;  sign            1    5[COMMON] unsigned char 
;;  counter         1    4[COMMON] unsigned char 
;; Return value:  Size  Location     Type
;;                  2    0[COMMON] int 
;; Registers used:
;;		wreg, status,2, status,0
;; Tracked objects:
;;		On entry : 60/0
;;		On exit  : 60/0
;;		Unchanged: FFF9F/0
;; Data sizes:     COMMON   BANK0   BANK1   BANK3   BANK2
;;      Params:         4       0       0       0       0
;;      Locals:         2       0       0       0       0
;;      Temps:          0       0       0       0       0
;;      Totals:         6       0       0       0       0
;;Total ram usage:        6 bytes
;; Hardware stack levels used:    1
;; This function calls:
;;		Nothing
;; This function is called by:
;;		_scale
;; This function uses a non-reentrant model
;;
psect	text564
	file	"C:\Program Files (x86)\HI-TECH Software\PICC\9.83\sources\awmod.c"
	line	5
	global	__size_of___awmod
	__size_of___awmod	equ	__end_of___awmod-___awmod
	
___awmod:	
	opt	stack 5
; Regs used in ___awmod: [wreg+status,2+status,0]
	line	8
	
l6412:	
	clrf	(___awmod@sign)
	line	9
	
l6414:	
	btfss	(___awmod@dividend+1),7
	goto	u2561
	goto	u2560
u2561:
	goto	l6420
u2560:
	line	10
	
l6416:	
	comf	(___awmod@dividend),f
	comf	(___awmod@dividend+1),f
	incf	(___awmod@dividend),f
	skipnz
	incf	(___awmod@dividend+1),f
	line	11
	
l6418:	
	clrf	(___awmod@sign)
	incf	(___awmod@sign),f
	line	13
	
l6420:	
	btfss	(___awmod@divisor+1),7
	goto	u2571
	goto	u2570
u2571:
	goto	l6424
u2570:
	line	14
	
l6422:	
	comf	(___awmod@divisor),f
	comf	(___awmod@divisor+1),f
	incf	(___awmod@divisor),f
	skipnz
	incf	(___awmod@divisor+1),f
	line	15
	
l6424:	
	movf	(___awmod@divisor+1),w
	iorwf	(___awmod@divisor),w
	skipnz
	goto	u2581
	goto	u2580
u2581:
	goto	l6440
u2580:
	line	16
	
l6426:	
	clrf	(___awmod@counter)
	incf	(___awmod@counter),f
	line	17
	goto	l6430
	line	18
	
l6428:	
	clrc
	rlf	(___awmod@divisor),f
	rlf	(___awmod@divisor+1),f
	line	19
	incf	(___awmod@counter),f
	line	17
	
l6430:	
	btfss	(___awmod@divisor+1),(15)&7
	goto	u2591
	goto	u2590
u2591:
	goto	l6428
u2590:
	line	22
	
l6432:	
	movf	(___awmod@divisor+1),w
	subwf	(___awmod@dividend+1),w
	skipz
	goto	u2605
	movf	(___awmod@divisor),w
	subwf	(___awmod@dividend),w
u2605:
	skipc
	goto	u2601
	goto	u2600
u2601:
	goto	l6436
u2600:
	line	23
	
l6434:	
	movf	(___awmod@divisor),w
	subwf	(___awmod@dividend),f
	movf	(___awmod@divisor+1),w
	skipc
	decf	(___awmod@dividend+1),f
	subwf	(___awmod@dividend+1),f
	line	24
	
l6436:	
	clrc
	rrf	(___awmod@divisor+1),f
	rrf	(___awmod@divisor),f
	line	25
	
l6438:	
	decfsz	(___awmod@counter),f
	goto	u2611
	goto	u2610
u2611:
	goto	l6432
u2610:
	line	27
	
l6440:	
	movf	(___awmod@sign),w
	skipz
	goto	u2620
	goto	l6444
u2620:
	line	28
	
l6442:	
	comf	(___awmod@dividend),f
	comf	(___awmod@dividend+1),f
	incf	(___awmod@dividend),f
	skipnz
	incf	(___awmod@dividend+1),f
	line	29
	
l6444:	
	movf	(___awmod@dividend+1),w
	movwf	(?___awmod+1)
	movf	(___awmod@dividend),w
	movwf	(?___awmod)
	line	30
	
l3494:	
	return
	opt stack 0
GLOBAL	__end_of___awmod
	__end_of___awmod:
;; =============== function ___awmod ends ============

	signat	___awmod,8314
	global	___lldiv
psect	text565,local,class=CODE,delta=2
global __ptext565
__ptext565:

;; *************** function ___lldiv *****************
;; Defined at:
;;		line 5 in file "C:\Program Files (x86)\HI-TECH Software\PICC\9.83\sources\lldiv.c"
;; Parameters:    Size  Location     Type
;;  divisor         4    0[COMMON] unsigned long 
;;  dividend        4    4[COMMON] unsigned long 
;; Auto vars:     Size  Location     Type
;;  quotient        4    8[COMMON] unsigned long 
;;  counter         1   12[COMMON] unsigned char 
;; Return value:  Size  Location     Type
;;                  4    0[COMMON] unsigned long 
;; Registers used:
;;		wreg, status,2, status,0
;; Tracked objects:
;;		On entry : 60/20
;;		On exit  : 60/20
;;		Unchanged: FFF9F/0
;; Data sizes:     COMMON   BANK0   BANK1   BANK3   BANK2
;;      Params:         8       0       0       0       0
;;      Locals:         5       0       0       0       0
;;      Temps:          0       0       0       0       0
;;      Totals:        13       0       0       0       0
;;Total ram usage:       13 bytes
;; Hardware stack levels used:    1
;; This function calls:
;;		Nothing
;; This function is called by:
;;		_printf
;; This function uses a non-reentrant model
;;
psect	text565
	file	"C:\Program Files (x86)\HI-TECH Software\PICC\9.83\sources\lldiv.c"
	line	5
	global	__size_of___lldiv
	__size_of___lldiv	equ	__end_of___lldiv-___lldiv
	
___lldiv:	
	opt	stack 6
; Regs used in ___lldiv: [wreg+status,2+status,0]
	line	9
	
l6386:	
	clrf	(___lldiv@quotient)
	clrf	(___lldiv@quotient+1)
	clrf	(___lldiv@quotient+2)
	clrf	(___lldiv@quotient+3)
	line	10
	
l6388:	
	movf	(___lldiv@divisor+3),w
	iorwf	(___lldiv@divisor+2),w
	iorwf	(___lldiv@divisor+1),w
	iorwf	(___lldiv@divisor),w
	skipnz
	goto	u2521
	goto	u2520
u2521:
	goto	l6408
u2520:
	line	11
	
l6390:	
	clrf	(___lldiv@counter)
	incf	(___lldiv@counter),f
	line	12
	goto	l6394
	line	13
	
l6392:	
	clrc
	rlf	(___lldiv@divisor),f
	rlf	(___lldiv@divisor+1),f
	rlf	(___lldiv@divisor+2),f
	rlf	(___lldiv@divisor+3),f
	line	14
	incf	(___lldiv@counter),f
	line	12
	
l6394:	
	btfss	(___lldiv@divisor+3),(31)&7
	goto	u2531
	goto	u2530
u2531:
	goto	l6392
u2530:
	line	17
	
l6396:	
	clrc
	rlf	(___lldiv@quotient),f
	rlf	(___lldiv@quotient+1),f
	rlf	(___lldiv@quotient+2),f
	rlf	(___lldiv@quotient+3),f
	line	18
	
l6398:	
	movf	(___lldiv@divisor+3),w
	subwf	(___lldiv@dividend+3),w
	skipz
	goto	u2545
	movf	(___lldiv@divisor+2),w
	subwf	(___lldiv@dividend+2),w
	skipz
	goto	u2545
	movf	(___lldiv@divisor+1),w
	subwf	(___lldiv@dividend+1),w
	skipz
	goto	u2545
	movf	(___lldiv@divisor),w
	subwf	(___lldiv@dividend),w
u2545:
	skipc
	goto	u2541
	goto	u2540
u2541:
	goto	l6404
u2540:
	line	19
	
l6400:	
	movf	(___lldiv@divisor),w
	subwf	(___lldiv@dividend),f
	movf	(___lldiv@divisor+1),w
	skipc
	incfsz	(___lldiv@divisor+1),w
	subwf	(___lldiv@dividend+1),f
	movf	(___lldiv@divisor+2),w
	skipc
	incfsz	(___lldiv@divisor+2),w
	subwf	(___lldiv@dividend+2),f
	movf	(___lldiv@divisor+3),w
	skipc
	incfsz	(___lldiv@divisor+3),w
	subwf	(___lldiv@dividend+3),f
	line	20
	
l6402:	
	bsf	(___lldiv@quotient)+(0/8),(0)&7
	line	22
	
l6404:	
	clrc
	rrf	(___lldiv@divisor+3),f
	rrf	(___lldiv@divisor+2),f
	rrf	(___lldiv@divisor+1),f
	rrf	(___lldiv@divisor),f
	line	23
	
l6406:	
	decfsz	(___lldiv@counter),f
	goto	u2551
	goto	u2550
u2551:
	goto	l6396
u2550:
	line	25
	
l6408:	
	movf	(___lldiv@quotient+3),w
	movwf	(?___lldiv+3)
	movf	(___lldiv@quotient+2),w
	movwf	(?___lldiv+2)
	movf	(___lldiv@quotient+1),w
	movwf	(?___lldiv+1)
	movf	(___lldiv@quotient),w
	movwf	(?___lldiv)

	line	26
	
l3455:	
	return
	opt stack 0
GLOBAL	__end_of___lldiv
	__end_of___lldiv:
;; =============== function ___lldiv ends ============

	signat	___lldiv,8316
	global	___ftge
psect	text566,local,class=CODE,delta=2
global __ptext566
__ptext566:

;; *************** function ___ftge *****************
;; Defined at:
;;		line 5 in file "C:\Program Files (x86)\HI-TECH Software\PICC\9.83\sources\ftge.c"
;; Parameters:    Size  Location     Type
;;  ff1             3    0[COMMON] float 
;;  ff2             3    3[COMMON] float 
;; Auto vars:     Size  Location     Type
;;		None
;; Return value:  Size  Location     Type
;;		None               void
;; Registers used:
;;		wreg, status,2, status,0
;; Tracked objects:
;;		On entry : 60/20
;;		On exit  : 60/20
;;		Unchanged: FFF9F/0
;; Data sizes:     COMMON   BANK0   BANK1   BANK3   BANK2
;;      Params:         6       0       0       0       0
;;      Locals:         0       0       0       0       0
;;      Temps:          0       0       0       0       0
;;      Totals:         6       0       0       0       0
;;Total ram usage:        6 bytes
;; Hardware stack levels used:    1
;; This function calls:
;;		Nothing
;; This function is called by:
;;		_printf
;; This function uses a non-reentrant model
;;
psect	text566
	file	"C:\Program Files (x86)\HI-TECH Software\PICC\9.83\sources\ftge.c"
	line	5
	global	__size_of___ftge
	__size_of___ftge	equ	__end_of___ftge-___ftge
	
___ftge:	
	opt	stack 6
; Regs used in ___ftge: [wreg+status,2+status,0]
	line	6
	
l6366:	
	btfss	(___ftge@ff1+2),(23)&7
	goto	u2491
	goto	u2490
u2491:
	goto	l6370
u2490:
	line	7
	
l6368:	
	movf	(___ftge@ff1),w
	sublw	0
	movwf	(___ftge@ff1)
	movf	(___ftge@ff1+1),w
	skipc
	incfsz	(___ftge@ff1+1),w
	sublw	0
	movwf	1+(___ftge@ff1)
	movf	(___ftge@ff1+2),w
	skipc
	incfsz	(___ftge@ff1+2),w
	sublw	080h
	movwf	2+(___ftge@ff1)
	line	8
	
l6370:	
	btfss	(___ftge@ff2+2),(23)&7
	goto	u2501
	goto	u2500
u2501:
	goto	l6374
u2500:
	line	9
	
l6372:	
	movf	(___ftge@ff2),w
	sublw	0
	movwf	(___ftge@ff2)
	movf	(___ftge@ff2+1),w
	skipc
	incfsz	(___ftge@ff2+1),w
	sublw	0
	movwf	1+(___ftge@ff2)
	movf	(___ftge@ff2+2),w
	skipc
	incfsz	(___ftge@ff2+2),w
	sublw	080h
	movwf	2+(___ftge@ff2)
	line	10
	
l6374:	
	movlw	080h
	xorwf	(___ftge@ff1+2),f
	line	11
	
l6376:	
	movlw	080h
	xorwf	(___ftge@ff2+2),f
	line	12
	
l6378:	
	movf	(___ftge@ff2+2),w
	subwf	(___ftge@ff1+2),w
	skipz
	goto	u2515
	movf	(___ftge@ff2+1),w
	subwf	(___ftge@ff1+1),w
	skipz
	goto	u2515
	movf	(___ftge@ff2),w
	subwf	(___ftge@ff1),w
u2515:
	skipnc
	goto	u2511
	goto	u2510
u2511:
	goto	l6382
u2510:
	
l6380:	
	clrc
	
	goto	l3445
	
l6382:	
	setc
	
	line	13
	
l3445:	
	return
	opt stack 0
GLOBAL	__end_of___ftge
	__end_of___ftge:
;; =============== function ___ftge ends ============

	signat	___ftge,8312
	global	___ftneg
psect	text567,local,class=CODE,delta=2
global __ptext567
__ptext567:

;; *************** function ___ftneg *****************
;; Defined at:
;;		line 16 in file "C:\Program Files (x86)\HI-TECH Software\PICC\9.83\sources\ftneg.c"
;; Parameters:    Size  Location     Type
;;  f1              3    0[COMMON] float 
;; Auto vars:     Size  Location     Type
;;		None
;; Return value:  Size  Location     Type
;;                  3    0[COMMON] float 
;; Registers used:
;;		wreg
;; Tracked objects:
;;		On entry : 160/20
;;		On exit  : 160/20
;;		Unchanged: FFE9F/0
;; Data sizes:     COMMON   BANK0   BANK1   BANK3   BANK2
;;      Params:         3       0       0       0       0
;;      Locals:         0       0       0       0       0
;;      Temps:          0       0       0       0       0
;;      Totals:         3       0       0       0       0
;;Total ram usage:        3 bytes
;; Hardware stack levels used:    1
;; This function calls:
;;		Nothing
;; This function is called by:
;;		_printf
;; This function uses a non-reentrant model
;;
psect	text567
	file	"C:\Program Files (x86)\HI-TECH Software\PICC\9.83\sources\ftneg.c"
	line	16
	global	__size_of___ftneg
	__size_of___ftneg	equ	__end_of___ftneg-___ftneg
	
___ftneg:	
	opt	stack 6
; Regs used in ___ftneg: [wreg]
	line	17
	
l6358:	
	movf	(___ftneg@f1+2),w
	iorwf	(___ftneg@f1+1),w
	iorwf	(___ftneg@f1),w
	skipnz
	goto	u2481
	goto	u2480
u2481:
	goto	l6362
u2480:
	line	18
	
l6360:	
	movlw	080h
	xorwf	(___ftneg@f1+2),f
	line	19
	
l6362:	
	line	20
	
l3440:	
	return
	opt stack 0
GLOBAL	__end_of___ftneg
	__end_of___ftneg:
;; =============== function ___ftneg ends ============

	signat	___ftneg,4219
	global	___llmod
psect	text568,local,class=CODE,delta=2
global __ptext568
__ptext568:

;; *************** function ___llmod *****************
;; Defined at:
;;		line 5 in file "C:\Program Files (x86)\HI-TECH Software\PICC\9.83\sources\llmod.c"
;; Parameters:    Size  Location     Type
;;  divisor         4    0[BANK0 ] unsigned long 
;;  dividend        4    4[BANK0 ] unsigned long 
;; Auto vars:     Size  Location     Type
;;  counter         1   13[COMMON] unsigned char 
;; Return value:  Size  Location     Type
;;                  4    0[BANK0 ] unsigned long 
;; Registers used:
;;		wreg, status,2, status,0
;; Tracked objects:
;;		On entry : 60/0
;;		On exit  : 60/0
;;		Unchanged: FFF9F/0
;; Data sizes:     COMMON   BANK0   BANK1   BANK3   BANK2
;;      Params:         0       8       0       0       0
;;      Locals:         1       0       0       0       0
;;      Temps:          0       0       0       0       0
;;      Totals:         1       8       0       0       0
;;Total ram usage:        9 bytes
;; Hardware stack levels used:    1
;; This function calls:
;;		Nothing
;; This function is called by:
;;		_printf
;; This function uses a non-reentrant model
;;
psect	text568
	file	"C:\Program Files (x86)\HI-TECH Software\PICC\9.83\sources\llmod.c"
	line	5
	global	__size_of___llmod
	__size_of___llmod	equ	__end_of___llmod-___llmod
	
___llmod:	
	opt	stack 6
; Regs used in ___llmod: [wreg+status,2+status,0]
	line	8
	
l6338:	
	movf	(___llmod@divisor+3),w
	iorwf	(___llmod@divisor+2),w
	iorwf	(___llmod@divisor+1),w
	iorwf	(___llmod@divisor),w
	skipnz
	goto	u2441
	goto	u2440
u2441:
	goto	l6354
u2440:
	line	9
	
l6340:	
	clrf	(___llmod@counter)
	incf	(___llmod@counter),f
	line	10
	goto	l6344
	line	11
	
l6342:	
	clrc
	rlf	(___llmod@divisor),f
	rlf	(___llmod@divisor+1),f
	rlf	(___llmod@divisor+2),f
	rlf	(___llmod@divisor+3),f
	line	12
	incf	(___llmod@counter),f
	line	10
	
l6344:	
	btfss	(___llmod@divisor+3),(31)&7
	goto	u2451
	goto	u2450
u2451:
	goto	l6342
u2450:
	line	15
	
l6346:	
	movf	(___llmod@divisor+3),w
	subwf	(___llmod@dividend+3),w
	skipz
	goto	u2465
	movf	(___llmod@divisor+2),w
	subwf	(___llmod@dividend+2),w
	skipz
	goto	u2465
	movf	(___llmod@divisor+1),w
	subwf	(___llmod@dividend+1),w
	skipz
	goto	u2465
	movf	(___llmod@divisor),w
	subwf	(___llmod@dividend),w
u2465:
	skipc
	goto	u2461
	goto	u2460
u2461:
	goto	l6350
u2460:
	line	16
	
l6348:	
	movf	(___llmod@divisor),w
	subwf	(___llmod@dividend),f
	movf	(___llmod@divisor+1),w
	skipc
	incfsz	(___llmod@divisor+1),w
	subwf	(___llmod@dividend+1),f
	movf	(___llmod@divisor+2),w
	skipc
	incfsz	(___llmod@divisor+2),w
	subwf	(___llmod@dividend+2),f
	movf	(___llmod@divisor+3),w
	skipc
	incfsz	(___llmod@divisor+3),w
	subwf	(___llmod@dividend+3),f
	line	17
	
l6350:	
	clrc
	rrf	(___llmod@divisor+3),f
	rrf	(___llmod@divisor+2),f
	rrf	(___llmod@divisor+1),f
	rrf	(___llmod@divisor),f
	line	18
	
l6352:	
	decfsz	(___llmod@counter),f
	goto	u2471
	goto	u2470
u2471:
	goto	l6346
u2470:
	line	20
	
l6354:	
	movf	(___llmod@dividend+3),w
	movwf	(?___llmod+3)
	movf	(___llmod@dividend+2),w
	movwf	(?___llmod+2)
	movf	(___llmod@dividend+1),w
	movwf	(?___llmod+1)
	movf	(___llmod@dividend),w
	movwf	(?___llmod)

	line	21
	
l3436:	
	return
	opt stack 0
GLOBAL	__end_of___llmod
	__end_of___llmod:
;; =============== function ___llmod ends ============

	signat	___llmod,8316
	global	___awdiv
psect	text569,local,class=CODE,delta=2
global __ptext569
__ptext569:

;; *************** function ___awdiv *****************
;; Defined at:
;;		line 5 in file "C:\Program Files (x86)\HI-TECH Software\PICC\9.83\sources\awdiv.c"
;; Parameters:    Size  Location     Type
;;  divisor         2    6[COMMON] int 
;;  dividend        2    8[COMMON] int 
;; Auto vars:     Size  Location     Type
;;  quotient        2   12[COMMON] int 
;;  sign            1   11[COMMON] unsigned char 
;;  counter         1   10[COMMON] unsigned char 
;; Return value:  Size  Location     Type
;;                  2    6[COMMON] int 
;; Registers used:
;;		wreg, status,2, status,0
;; Tracked objects:
;;		On entry : 40/20
;;		On exit  : 40/20
;;		Unchanged: FFFBF/0
;; Data sizes:     COMMON   BANK0   BANK1   BANK3   BANK2
;;      Params:         4       0       0       0       0
;;      Locals:         4       0       0       0       0
;;      Temps:          0       0       0       0       0
;;      Totals:         8       0       0       0       0
;;Total ram usage:        8 bytes
;; Hardware stack levels used:    1
;; This function calls:
;;		Nothing
;; This function is called by:
;;		_scale
;;		_printf
;; This function uses a non-reentrant model
;;
psect	text569
	file	"C:\Program Files (x86)\HI-TECH Software\PICC\9.83\sources\awdiv.c"
	line	5
	global	__size_of___awdiv
	__size_of___awdiv	equ	__end_of___awdiv-___awdiv
	
___awdiv:	
	opt	stack 5
; Regs used in ___awdiv: [wreg+status,2+status,0]
	line	9
	
l6294:	
	clrf	(___awdiv@sign)
	line	10
	
l6296:	
	btfss	(___awdiv@divisor+1),7
	goto	u2371
	goto	u2370
u2371:
	goto	l6302
u2370:
	line	11
	
l6298:	
	comf	(___awdiv@divisor),f
	comf	(___awdiv@divisor+1),f
	incf	(___awdiv@divisor),f
	skipnz
	incf	(___awdiv@divisor+1),f
	line	12
	
l6300:	
	clrf	(___awdiv@sign)
	incf	(___awdiv@sign),f
	line	14
	
l6302:	
	btfss	(___awdiv@dividend+1),7
	goto	u2381
	goto	u2380
u2381:
	goto	l6308
u2380:
	line	15
	
l6304:	
	comf	(___awdiv@dividend),f
	comf	(___awdiv@dividend+1),f
	incf	(___awdiv@dividend),f
	skipnz
	incf	(___awdiv@dividend+1),f
	line	16
	
l6306:	
	movlw	(01h)
	xorwf	(___awdiv@sign),f
	line	18
	
l6308:	
	clrf	(___awdiv@quotient)
	clrf	(___awdiv@quotient+1)
	line	19
	
l6310:	
	movf	(___awdiv@divisor+1),w
	iorwf	(___awdiv@divisor),w
	skipnz
	goto	u2391
	goto	u2390
u2391:
	goto	l6330
u2390:
	line	20
	
l6312:	
	clrf	(___awdiv@counter)
	incf	(___awdiv@counter),f
	line	21
	goto	l6316
	line	22
	
l6314:	
	clrc
	rlf	(___awdiv@divisor),f
	rlf	(___awdiv@divisor+1),f
	line	23
	incf	(___awdiv@counter),f
	line	21
	
l6316:	
	btfss	(___awdiv@divisor+1),(15)&7
	goto	u2401
	goto	u2400
u2401:
	goto	l6314
u2400:
	line	26
	
l6318:	
	clrc
	rlf	(___awdiv@quotient),f
	rlf	(___awdiv@quotient+1),f
	line	27
	
l6320:	
	movf	(___awdiv@divisor+1),w
	subwf	(___awdiv@dividend+1),w
	skipz
	goto	u2415
	movf	(___awdiv@divisor),w
	subwf	(___awdiv@dividend),w
u2415:
	skipc
	goto	u2411
	goto	u2410
u2411:
	goto	l6326
u2410:
	line	28
	
l6322:	
	movf	(___awdiv@divisor),w
	subwf	(___awdiv@dividend),f
	movf	(___awdiv@divisor+1),w
	skipc
	decf	(___awdiv@dividend+1),f
	subwf	(___awdiv@dividend+1),f
	line	29
	
l6324:	
	bsf	(___awdiv@quotient)+(0/8),(0)&7
	line	31
	
l6326:	
	clrc
	rrf	(___awdiv@divisor+1),f
	rrf	(___awdiv@divisor),f
	line	32
	
l6328:	
	decfsz	(___awdiv@counter),f
	goto	u2421
	goto	u2420
u2421:
	goto	l6318
u2420:
	line	34
	
l6330:	
	movf	(___awdiv@sign),w
	skipz
	goto	u2430
	goto	l6334
u2430:
	line	35
	
l6332:	
	comf	(___awdiv@quotient),f
	comf	(___awdiv@quotient+1),f
	incf	(___awdiv@quotient),f
	skipnz
	incf	(___awdiv@quotient+1),f
	line	36
	
l6334:	
	movf	(___awdiv@quotient+1),w
	movwf	(?___awdiv+1)
	movf	(___awdiv@quotient),w
	movwf	(?___awdiv)
	line	37
	
l3426:	
	return
	opt stack 0
GLOBAL	__end_of___awdiv
	__end_of___awdiv:
;; =============== function ___awdiv ends ============

	signat	___awdiv,8314
	global	___fttol
psect	text570,local,class=CODE,delta=2
global __ptext570
__ptext570:

;; *************** function ___fttol *****************
;; Defined at:
;;		line 45 in file "C:\Program Files (x86)\HI-TECH Software\PICC\9.83\sources\fttol.c"
;; Parameters:    Size  Location     Type
;;  f1              3    0[BANK0 ] float 
;; Auto vars:     Size  Location     Type
;;  lval            4    8[BANK0 ] unsigned long 
;;  exp1            1   12[BANK0 ] unsigned char 
;;  sign1           1    7[BANK0 ] unsigned char 
;; Return value:  Size  Location     Type
;;                  4    0[BANK0 ] long 
;; Registers used:
;;		wreg, status,2, status,0
;; Tracked objects:
;;		On entry : 60/0
;;		On exit  : 60/0
;;		Unchanged: FFF9F/0
;; Data sizes:     COMMON   BANK0   BANK1   BANK3   BANK2
;;      Params:         0       4       0       0       0
;;      Locals:         0       6       0       0       0
;;      Temps:          0       3       0       0       0
;;      Totals:         0      13       0       0       0
;;Total ram usage:       13 bytes
;; Hardware stack levels used:    1
;; This function calls:
;;		Nothing
;; This function is called by:
;;		_printf
;; This function uses a non-reentrant model
;;
psect	text570
	file	"C:\Program Files (x86)\HI-TECH Software\PICC\9.83\sources\fttol.c"
	line	45
	global	__size_of___fttol
	__size_of___fttol	equ	__end_of___fttol-___fttol
	
___fttol:	
	opt	stack 6
; Regs used in ___fttol: [wreg+status,2+status,0]
	line	49
	
l6256:	
	movf	(___fttol@f1),w
	movwf	((??___fttol+0)+0)
	movf	(___fttol@f1+1),w
	movwf	((??___fttol+0)+0+1)
	movf	(___fttol@f1+2),w
	movwf	((??___fttol+0)+0+2)
	clrc
	rlf	(??___fttol+0)+1,w
	rlf	(??___fttol+0)+2,w
	movwf	(___fttol@exp1)
	movf	((___fttol@exp1)),f
	skipz
	goto	u2291
	goto	u2290
u2291:
	goto	l6260
u2290:
	line	50
	
l6258:	
	clrf	(?___fttol)
	clrf	(?___fttol+1)
	clrf	(?___fttol+2)
	clrf	(?___fttol+3)
	goto	l3386
	line	51
	
l6260:	
	movf	(___fttol@f1),w
	movwf	((??___fttol+0)+0)
	movf	(___fttol@f1+1),w
	movwf	((??___fttol+0)+0+1)
	movf	(___fttol@f1+2),w
	movwf	((??___fttol+0)+0+2)
	movlw	017h
u2305:
	clrc
	rrf	(??___fttol+0)+2,f
	rrf	(??___fttol+0)+1,f
	rrf	(??___fttol+0)+0,f
u2300:
	addlw	-1
	skipz
	goto	u2305
	movf	0+(??___fttol+0)+0,w
	movwf	(___fttol@sign1)
	line	52
	
l6262:	
	bsf	(___fttol@f1)+(15/8),(15)&7
	line	53
	
l6264:	
	movlw	0FFh
	andwf	(___fttol@f1),f
	movlw	0FFh
	andwf	(___fttol@f1+1),f
	movlw	0
	andwf	(___fttol@f1+2),f
	line	54
	
l6266:	
	movf	(___fttol@f1),w
	movwf	(___fttol@lval)
	movf	(___fttol@f1+1),w
	movwf	((___fttol@lval))+1
	movf	(___fttol@f1+2),w
	movwf	((___fttol@lval))+2
	clrf	((___fttol@lval))+3
	line	55
	
l6268:	
	movlw	low(08Eh)
	subwf	(___fttol@exp1),f
	line	56
	
l6270:	
	btfss	(___fttol@exp1),7
	goto	u2311
	goto	u2310
u2311:
	goto	l6280
u2310:
	line	57
	
l6272:	
	movf	(___fttol@exp1),w
	xorlw	80h
	addlw	-((-15)^80h)
	skipnc
	goto	u2321
	goto	u2320
u2321:
	goto	l6276
u2320:
	goto	l6258
	line	60
	
l6276:	
	clrc
	rrf	(___fttol@lval+3),f
	rrf	(___fttol@lval+2),f
	rrf	(___fttol@lval+1),f
	rrf	(___fttol@lval),f
	line	61
	
l6278:	
	incfsz	(___fttol@exp1),f
	goto	u2331
	goto	u2330
u2331:
	goto	l6276
u2330:
	goto	l6286
	line	63
	
l6280:	
	movlw	(018h)
	subwf	(___fttol@exp1),w
	skipc
	goto	u2341
	goto	u2340
u2341:
	goto	l3393
u2340:
	goto	l6258
	line	66
	
l6284:	
	clrc
	rlf	(___fttol@lval),f
	rlf	(___fttol@lval+1),f
	rlf	(___fttol@lval+2),f
	rlf	(___fttol@lval+3),f
	line	67
	decf	(___fttol@exp1),f
	line	68
	
l3393:	
	line	65
	movf	(___fttol@exp1),f
	skipz
	goto	u2351
	goto	u2350
u2351:
	goto	l6284
u2350:
	line	70
	
l6286:	
	movf	(___fttol@sign1),w
	skipz
	goto	u2360
	goto	l6290
u2360:
	line	71
	
l6288:	
	comf	(___fttol@lval),f
	comf	(___fttol@lval+1),f
	comf	(___fttol@lval+2),f
	comf	(___fttol@lval+3),f
	incf	(___fttol@lval),f
	skipnz
	incf	(___fttol@lval+1),f
	skipnz
	incf	(___fttol@lval+2),f
	skipnz
	incf	(___fttol@lval+3),f
	line	72
	
l6290:	
	movf	(___fttol@lval+3),w
	movwf	(?___fttol+3)
	movf	(___fttol@lval+2),w
	movwf	(?___fttol+2)
	movf	(___fttol@lval+1),w
	movwf	(?___fttol+1)
	movf	(___fttol@lval),w
	movwf	(?___fttol)

	line	73
	
l3386:	
	return
	opt stack 0
GLOBAL	__end_of___fttol
	__end_of___fttol:
;; =============== function ___fttol ends ============

	signat	___fttol,4220
	global	___ftpack
psect	text571,local,class=CODE,delta=2
global __ptext571
__ptext571:

;; *************** function ___ftpack *****************
;; Defined at:
;;		line 63 in file "C:\Program Files (x86)\HI-TECH Software\PICC\9.83\sources\float.c"
;; Parameters:    Size  Location     Type
;;  arg             3    0[COMMON] unsigned um
;;  exp             1    3[COMMON] unsigned char 
;;  sign            1    4[COMMON] unsigned char 
;; Auto vars:     Size  Location     Type
;;		None
;; Return value:  Size  Location     Type
;;                  3    0[COMMON] float 
;; Registers used:
;;		wreg, status,2, status,0
;; Tracked objects:
;;		On entry : 40/20
;;		On exit  : 40/20
;;		Unchanged: FFFBF/0
;; Data sizes:     COMMON   BANK0   BANK1   BANK3   BANK2
;;      Params:         5       0       0       0       0
;;      Locals:         0       0       0       0       0
;;      Temps:          3       0       0       0       0
;;      Totals:         8       0       0       0       0
;;Total ram usage:        8 bytes
;; Hardware stack levels used:    1
;; This function calls:
;;		Nothing
;; This function is called by:
;;		___ftadd
;;		___ftdiv
;;		___ftmul
;;		___awtoft
;;		___lltoft
;; This function uses a non-reentrant model
;;
psect	text571
	file	"C:\Program Files (x86)\HI-TECH Software\PICC\9.83\sources\float.c"
	line	63
	global	__size_of___ftpack
	__size_of___ftpack	equ	__end_of___ftpack-___ftpack
	
___ftpack:	
	opt	stack 5
; Regs used in ___ftpack: [wreg+status,2+status,0]
	line	64
	
l6228:	
	movf	(___ftpack@exp),w
	skipz
	goto	u2220
	goto	l6232
u2220:
	
l6230:	
	movf	(___ftpack@arg+2),w
	iorwf	(___ftpack@arg+1),w
	iorwf	(___ftpack@arg),w
	skipz
	goto	u2231
	goto	u2230
u2231:
	goto	l6238
u2230:
	line	65
	
l6232:	
	clrf	(?___ftpack)
	clrf	(?___ftpack+1)
	clrf	(?___ftpack+2)
	goto	l3645
	line	67
	
l6236:	
	incf	(___ftpack@exp),f
	line	68
	clrc
	rrf	(___ftpack@arg+2),f
	rrf	(___ftpack@arg+1),f
	rrf	(___ftpack@arg),f
	line	66
	
l6238:	
	movlw	low highword(0FE0000h)
	andwf	(___ftpack@arg+2),w
	btfss	status,2
	goto	u2241
	goto	u2240
u2241:
	goto	l6236
u2240:
	goto	l6242
	line	71
	
l6240:	
	incf	(___ftpack@exp),f
	line	72
	incf	(___ftpack@arg),f
	skipnz
	incf	(___ftpack@arg+1),f
	skipnz
	incf	(___ftpack@arg+2),f
	line	73
	clrc
	rrf	(___ftpack@arg+2),f
	rrf	(___ftpack@arg+1),f
	rrf	(___ftpack@arg),f
	line	70
	
l6242:	
	movlw	low highword(0FF0000h)
	andwf	(___ftpack@arg+2),w
	btfss	status,2
	goto	u2251
	goto	u2250
u2251:
	goto	l6240
u2250:
	goto	l6246
	line	76
	
l6244:	
	decf	(___ftpack@exp),f
	line	77
	clrc
	rlf	(___ftpack@arg),f
	rlf	(___ftpack@arg+1),f
	rlf	(___ftpack@arg+2),f
	line	75
	
l6246:	
	btfss	(___ftpack@arg+1),(15)&7
	goto	u2261
	goto	u2260
u2261:
	goto	l6244
u2260:
	
l3654:	
	line	79
	btfsc	(___ftpack@exp),(0)&7
	goto	u2271
	goto	u2270
u2271:
	goto	l3655
u2270:
	line	80
	
l6248:	
	bcf	(___ftpack@arg)+(15/8),(15)&7
	
l3655:	
	line	81
	clrc
	rrf	(___ftpack@exp),f
	line	82
	
l6250:	
	movf	(___ftpack@exp),w
	movwf	((??___ftpack+0)+0+2)
	clrf	((??___ftpack+0)+0+1)
	clrf	((??___ftpack+0)+0+0)
	movf	0+(??___ftpack+0)+0,w
	iorwf	(___ftpack@arg),f
	movf	1+(??___ftpack+0)+0,w
	iorwf	(___ftpack@arg+1),f
	movf	2+(??___ftpack+0)+0,w
	iorwf	(___ftpack@arg+2),f
	line	83
	
l6252:	
	movf	(___ftpack@sign),w
	skipz
	goto	u2280
	goto	l3656
u2280:
	line	84
	
l6254:	
	bsf	(___ftpack@arg)+(23/8),(23)&7
	
l3656:	
	line	85
	line	86
	
l3645:	
	return
	opt stack 0
GLOBAL	__end_of___ftpack
	__end_of___ftpack:
;; =============== function ___ftpack ends ============

	signat	___ftpack,12411
	global	___lbmod
psect	text572,local,class=CODE,delta=2
global __ptext572
__ptext572:

;; *************** function ___lbmod *****************
;; Defined at:
;;		line 5 in file "C:\Program Files (x86)\HI-TECH Software\PICC\9.83\sources\lbmod.c"
;; Parameters:    Size  Location     Type
;;  dividend        1    wreg     unsigned char 
;;  divisor         1    0[COMMON] unsigned char 
;; Auto vars:     Size  Location     Type
;;  dividend        1    2[COMMON] unsigned char 
;;  rem             1    4[COMMON] unsigned char 
;;  counter         1    3[COMMON] unsigned char 
;; Return value:  Size  Location     Type
;;                  1    wreg      unsigned char 
;; Registers used:
;;		wreg, status,2, status,0
;; Tracked objects:
;;		On entry : 60/0
;;		On exit  : 60/0
;;		Unchanged: FFF9F/0
;; Data sizes:     COMMON   BANK0   BANK1   BANK3   BANK2
;;      Params:         1       0       0       0       0
;;      Locals:         3       0       0       0       0
;;      Temps:          1       0       0       0       0
;;      Totals:         5       0       0       0       0
;;Total ram usage:        5 bytes
;; Hardware stack levels used:    1
;; This function calls:
;;		Nothing
;; This function is called by:
;;		_fround
;; This function uses a non-reentrant model
;;
psect	text572
	file	"C:\Program Files (x86)\HI-TECH Software\PICC\9.83\sources\lbmod.c"
	line	5
	global	__size_of___lbmod
	__size_of___lbmod	equ	__end_of___lbmod-___lbmod
	
___lbmod:	
	opt	stack 5
; Regs used in ___lbmod: [wreg+status,2+status,0]
;___lbmod@dividend stored from wreg
	line	9
	movwf	(___lbmod@dividend)
	
l6210:	
	movlw	(08h)
	movwf	(___lbmod@counter)
	line	10
	
l6212:	
	clrf	(___lbmod@rem)
	line	12
	
l6214:	
	movf	(___lbmod@dividend),w
	movwf	(??___lbmod+0)+0
	movlw	07h
u2195:
	clrc
	rrf	(??___lbmod+0)+0,f
	addlw	-1
	skipz
	goto	u2195
	clrc
	rlf	(___lbmod@rem),w
	iorwf	0+(??___lbmod+0)+0,w
	movwf	(___lbmod@rem)
	line	13
	
l6216:	
	clrc
	rlf	(___lbmod@dividend),f
	line	14
	
l6218:	
	movf	(___lbmod@divisor),w
	subwf	(___lbmod@rem),w
	skipc
	goto	u2201
	goto	u2200
u2201:
	goto	l6222
u2200:
	line	15
	
l6220:	
	movf	(___lbmod@divisor),w
	subwf	(___lbmod@rem),f
	line	16
	
l6222:	
	decfsz	(___lbmod@counter),f
	goto	u2211
	goto	u2210
u2211:
	goto	l6214
u2210:
	line	17
	
l6224:	
	movf	(___lbmod@rem),w
	line	18
	
l3315:	
	return
	opt stack 0
GLOBAL	__end_of___lbmod
	__end_of___lbmod:
;; =============== function ___lbmod ends ============

	signat	___lbmod,8313
	global	___lbdiv
psect	text573,local,class=CODE,delta=2
global __ptext573
__ptext573:

;; *************** function ___lbdiv *****************
;; Defined at:
;;		line 5 in file "C:\Program Files (x86)\HI-TECH Software\PICC\9.83\sources\lbdiv.c"
;; Parameters:    Size  Location     Type
;;  dividend        1    wreg     unsigned char 
;;  divisor         1    5[COMMON] unsigned char 
;; Auto vars:     Size  Location     Type
;;  dividend        1    6[COMMON] unsigned char 
;;  quotient        1    8[COMMON] unsigned char 
;;  counter         1    7[COMMON] unsigned char 
;; Return value:  Size  Location     Type
;;                  1    wreg      unsigned char 
;; Registers used:
;;		wreg, status,2, status,0
;; Tracked objects:
;;		On entry : 60/0
;;		On exit  : 60/0
;;		Unchanged: FFF9F/0
;; Data sizes:     COMMON   BANK0   BANK1   BANK3   BANK2
;;      Params:         1       0       0       0       0
;;      Locals:         3       0       0       0       0
;;      Temps:          0       0       0       0       0
;;      Totals:         4       0       0       0       0
;;Total ram usage:        4 bytes
;; Hardware stack levels used:    1
;; This function calls:
;;		Nothing
;; This function is called by:
;;		_fround
;; This function uses a non-reentrant model
;;
psect	text573
	file	"C:\Program Files (x86)\HI-TECH Software\PICC\9.83\sources\lbdiv.c"
	line	5
	global	__size_of___lbdiv
	__size_of___lbdiv	equ	__end_of___lbdiv-___lbdiv
	
___lbdiv:	
	opt	stack 5
; Regs used in ___lbdiv: [wreg+status,2+status,0]
;___lbdiv@dividend stored from wreg
	line	9
	movwf	(___lbdiv@dividend)
	
l6186:	
	clrf	(___lbdiv@quotient)
	line	10
	
l6188:	
	movf	(___lbdiv@divisor),w
	skipz
	goto	u2150
	goto	l6206
u2150:
	line	11
	
l6190:	
	clrf	(___lbdiv@counter)
	incf	(___lbdiv@counter),f
	line	12
	goto	l6194
	
l3304:	
	line	13
	clrc
	rlf	(___lbdiv@divisor),f
	line	14
	
l6192:	
	incf	(___lbdiv@counter),f
	line	12
	
l6194:	
	btfss	(___lbdiv@divisor),(7)&7
	goto	u2161
	goto	u2160
u2161:
	goto	l3304
u2160:
	line	16
	
l3306:	
	line	17
	clrc
	rlf	(___lbdiv@quotient),f
	line	18
	
l6196:	
	movf	(___lbdiv@divisor),w
	subwf	(___lbdiv@dividend),w
	skipc
	goto	u2171
	goto	u2170
u2171:
	goto	l6202
u2170:
	line	19
	
l6198:	
	movf	(___lbdiv@divisor),w
	subwf	(___lbdiv@dividend),f
	line	20
	
l6200:	
	bsf	(___lbdiv@quotient)+(0/8),(0)&7
	line	22
	
l6202:	
	clrc
	rrf	(___lbdiv@divisor),f
	line	23
	
l6204:	
	decfsz	(___lbdiv@counter),f
	goto	u2181
	goto	u2180
u2181:
	goto	l3306
u2180:
	line	25
	
l6206:	
	movf	(___lbdiv@quotient),w
	line	26
	
l3309:	
	return
	opt stack 0
GLOBAL	__end_of___lbdiv
	__end_of___lbdiv:
;; =============== function ___lbdiv ends ============

	signat	___lbdiv,8313
	global	___wmul
psect	text574,local,class=CODE,delta=2
global __ptext574
__ptext574:

;; *************** function ___wmul *****************
;; Defined at:
;;		line 3 in file "C:\Program Files (x86)\HI-TECH Software\PICC\9.83\sources\wmul.c"
;; Parameters:    Size  Location     Type
;;  multiplier      2    0[COMMON] unsigned int 
;;  multiplicand    2    2[COMMON] unsigned int 
;; Auto vars:     Size  Location     Type
;;  product         2    4[COMMON] unsigned int 
;; Return value:  Size  Location     Type
;;                  2    0[COMMON] unsigned int 
;; Registers used:
;;		wreg, status,2, status,0
;; Tracked objects:
;;		On entry : 60/20
;;		On exit  : 60/20
;;		Unchanged: FFF9F/0
;; Data sizes:     COMMON   BANK0   BANK1   BANK3   BANK2
;;      Params:         4       0       0       0       0
;;      Locals:         2       0       0       0       0
;;      Temps:          0       0       0       0       0
;;      Totals:         6       0       0       0       0
;;Total ram usage:        6 bytes
;; Hardware stack levels used:    1
;; This function calls:
;;		Nothing
;; This function is called by:
;;		_fround
;;		_scale
;;		_printf
;; This function uses a non-reentrant model
;;
psect	text574
	file	"C:\Program Files (x86)\HI-TECH Software\PICC\9.83\sources\wmul.c"
	line	3
	global	__size_of___wmul
	__size_of___wmul	equ	__end_of___wmul-___wmul
	
___wmul:	
	opt	stack 6
; Regs used in ___wmul: [wreg+status,2+status,0]
	line	4
	
l6170:	
	clrf	(___wmul@product)
	clrf	(___wmul@product+1)
	line	7
	
l6172:	
	btfss	(___wmul@multiplier),(0)&7
	goto	u2131
	goto	u2130
u2131:
	goto	l6176
u2130:
	line	8
	
l6174:	
	movf	(___wmul@multiplicand),w
	addwf	(___wmul@product),f
	skipnc
	incf	(___wmul@product+1),f
	movf	(___wmul@multiplicand+1),w
	addwf	(___wmul@product+1),f
	line	9
	
l6176:	
	clrc
	rlf	(___wmul@multiplicand),f
	rlf	(___wmul@multiplicand+1),f
	line	10
	
l6178:	
	clrc
	rrf	(___wmul@multiplier+1),f
	rrf	(___wmul@multiplier),f
	line	11
	
l6180:	
	movf	((___wmul@multiplier+1)),w
	iorwf	((___wmul@multiplier)),w
	skipz
	goto	u2141
	goto	u2140
u2141:
	goto	l6172
u2140:
	line	12
	
l6182:	
	movf	(___wmul@product+1),w
	movwf	(?___wmul+1)
	movf	(___wmul@product),w
	movwf	(?___wmul)
	line	13
	
l3279:	
	return
	opt stack 0
GLOBAL	__end_of___wmul
	__end_of___wmul:
;; =============== function ___wmul ends ============

	signat	___wmul,8314
	global	___bmul
psect	text575,local,class=CODE,delta=2
global __ptext575
__ptext575:

;; *************** function ___bmul *****************
;; Defined at:
;;		line 3 in file "C:\Program Files (x86)\HI-TECH Software\PICC\9.83\sources\bmul.c"
;; Parameters:    Size  Location     Type
;;  multiplier      1    wreg     unsigned char 
;;  multiplicand    1    9[COMMON] unsigned char 
;; Auto vars:     Size  Location     Type
;;  multiplier      1   11[COMMON] unsigned char 
;;  product         1   10[COMMON] unsigned char 
;; Return value:  Size  Location     Type
;;                  1    wreg      unsigned char 
;; Registers used:
;;		wreg, status,2, status,0
;; Tracked objects:
;;		On entry : 60/0
;;		On exit  : 60/0
;;		Unchanged: FFF9F/0
;; Data sizes:     COMMON   BANK0   BANK1   BANK3   BANK2
;;      Params:         1       0       0       0       0
;;      Locals:         2       0       0       0       0
;;      Temps:          0       0       0       0       0
;;      Totals:         3       0       0       0       0
;;Total ram usage:        3 bytes
;; Hardware stack levels used:    1
;; This function calls:
;;		Nothing
;; This function is called by:
;;		_fround
;;		_scale
;; This function uses a non-reentrant model
;;
psect	text575
	file	"C:\Program Files (x86)\HI-TECH Software\PICC\9.83\sources\bmul.c"
	line	3
	global	__size_of___bmul
	__size_of___bmul	equ	__end_of___bmul-___bmul
	
___bmul:	
	opt	stack 5
; Regs used in ___bmul: [wreg+status,2+status,0]
;___bmul@multiplier stored from wreg
	movwf	(___bmul@multiplier)
	line	4
	
l4944:	
	clrf	(___bmul@product)
	line	7
	
l4946:	
	btfss	(___bmul@multiplier),(0)&7
	goto	u231
	goto	u230
u231:
	goto	l4950
u230:
	line	8
	
l4948:	
	movf	(___bmul@multiplicand),w
	addwf	(___bmul@product),f
	line	9
	
l4950:	
	clrc
	rlf	(___bmul@multiplicand),f
	line	10
	
l4952:	
	clrc
	rrf	(___bmul@multiplier),f
	line	11
	
l4954:	
	movf	(___bmul@multiplier),f
	skipz
	goto	u241
	goto	u240
u241:
	goto	l4946
u240:
	line	12
	
l4956:	
	movf	(___bmul@product),w
	line	13
	
l3273:	
	return
	opt stack 0
GLOBAL	__end_of___bmul
	__end_of___bmul:
;; =============== function ___bmul ends ============

	signat	___bmul,8313
	global	__div_to_l_
psect	text576,local,class=CODE,delta=2
global __ptext576
__ptext576:

;; *************** function __div_to_l_ *****************
;; Defined at:
;;		line 61 in file "C:\Program Files (x86)\HI-TECH Software\PICC\9.83\sources\fldivl.c"
;; Parameters:    Size  Location     Type
;;  f1              3    0[COMMON] unsigned char 
;;  f2              3    3[COMMON] unsigned char 
;; Auto vars:     Size  Location     Type
;;  quot            4    0[BANK0 ] unsigned long 
;;  exp1            1    5[BANK0 ] unsigned char 
;;  cntr            1    4[BANK0 ] unsigned char 
;; Return value:  Size  Location     Type
;;                  4    0[COMMON] unsigned long 
;; Registers used:
;;		wreg, fsr0l, fsr0h, status,2, status,0
;; Tracked objects:
;;		On entry : 0/0
;;		On exit  : 60/0
;;		Unchanged: FFF9F/0
;; Data sizes:     COMMON   BANK0   BANK1   BANK3   BANK2
;;      Params:         6       0       0       0       0
;;      Locals:         0       6       0       0       0
;;      Temps:          8       0       0       0       0
;;      Totals:        14       6       0       0       0
;;Total ram usage:       20 bytes
;; Hardware stack levels used:    1
;; This function calls:
;;		Nothing
;; This function is called by:
;;		_printf
;; This function uses a non-reentrant model
;;
psect	text576
	file	"C:\Program Files (x86)\HI-TECH Software\PICC\9.83\sources\fldivl.c"
	line	61
	global	__size_of__div_to_l_
	__size_of__div_to_l_	equ	__end_of__div_to_l_-__div_to_l_
	
__div_to_l_:	
	opt	stack 6
; Regs used in __div_to_l_: [wreg-fsr0h+status,2+status,0]
	line	66
	
l6124:	
	movlw	low(__div_to_l_@f1)
	movwf	fsr0
	movf	indf,w
	movwf	(??__div_to_l_+0)+0+0
	incf	fsr0,f
	movf	indf,w
	movwf	(??__div_to_l_+0)+0+1
	incf	fsr0,f
	movf	indf,w
	movwf	(??__div_to_l_+0)+0+2
	incf	fsr0,f
	movf	indf,w
	movwf	(??__div_to_l_+0)+0+3
	clrc
	rlf	(??__div_to_l_+0)+2,w
	rlf	(??__div_to_l_+0)+3,w
	bcf	status, 5	;RP0=0, select bank0
	bcf	status, 6	;RP1=0, select bank0
	movwf	(__div_to_l_@exp1)
	movf	((__div_to_l_@exp1)),f
	skipz
	goto	u2041
	goto	u2040
u2041:
	goto	l6128
u2040:
	line	67
	
l6126:	
	clrf	(?__div_to_l_)
	clrf	(?__div_to_l_+1)
	clrf	(?__div_to_l_+2)
	clrf	(?__div_to_l_+3)
	goto	l3563
	line	68
	
l6128:	
	movlw	low(__div_to_l_@f2)
	movwf	fsr0
	movf	indf,w
	movwf	(??__div_to_l_+0)+0+0
	incf	fsr0,f
	movf	indf,w
	movwf	(??__div_to_l_+0)+0+1
	incf	fsr0,f
	movf	indf,w
	movwf	(??__div_to_l_+0)+0+2
	incf	fsr0,f
	movf	indf,w
	movwf	(??__div_to_l_+0)+0+3
	clrc
	rlf	(??__div_to_l_+0)+2,w
	rlf	(??__div_to_l_+0)+3,w
	movwf	(__div_to_l_@cntr)
	movf	((__div_to_l_@cntr)),f
	skipz
	goto	u2051
	goto	u2050
u2051:
	goto	l6132
u2050:
	goto	l6126
	line	70
	
l6132:	
	movlw	low(__div_to_l_@f1)
	movwf	fsr0
	movlw	0
	iorwf	indf,f
	incf	fsr0,f
	movlw	0
	iorwf	indf,f
	incf	fsr0,f
	movlw	080h
	iorwf	indf,f
	incf	fsr0,f
	movlw	0
	iorwf	indf,f
	line	71
	movlw	low(__div_to_l_@f1)
	movwf	fsr0
	movlw	0FFh
	andwf	indf,f
	incf	fsr0,f
	movlw	0FFh
	andwf	indf,f
	incf	fsr0,f
	movlw	0FFh
	andwf	indf,f
	incf	fsr0,f
	movlw	0
	andwf	indf,f
	line	72
	movlw	low(__div_to_l_@f2)
	movwf	fsr0
	movlw	0
	iorwf	indf,f
	incf	fsr0,f
	movlw	0
	iorwf	indf,f
	incf	fsr0,f
	movlw	080h
	iorwf	indf,f
	incf	fsr0,f
	movlw	0
	iorwf	indf,f
	line	73
	movlw	low(__div_to_l_@f2)
	movwf	fsr0
	movlw	0FFh
	andwf	indf,f
	incf	fsr0,f
	movlw	0FFh
	andwf	indf,f
	incf	fsr0,f
	movlw	0FFh
	andwf	indf,f
	incf	fsr0,f
	movlw	0
	andwf	indf,f
	line	74
	
l6134:	
	clrf	(__div_to_l_@quot)
	clrf	(__div_to_l_@quot+1)
	clrf	(__div_to_l_@quot+2)
	clrf	(__div_to_l_@quot+3)
	line	75
	
l6136:	
	movlw	low(07Fh)
	subwf	(__div_to_l_@exp1),f
	line	76
	
l6138:	
	movlw	(0A0h)
	addwf	(__div_to_l_@cntr),w
	movwf	(??__div_to_l_+0)+0
	movf	0+(??__div_to_l_+0)+0,w
	subwf	(__div_to_l_@exp1),f
	line	77
	
l6140:	
	movlw	(020h)
	movwf	(__div_to_l_@cntr)
	line	79
	
l6142:	
	clrc
	rlf	(__div_to_l_@quot),f
	rlf	(__div_to_l_@quot+1),f
	rlf	(__div_to_l_@quot+2),f
	rlf	(__div_to_l_@quot+3),f
	line	80
	
l6144:	
	movlw	low(__div_to_l_@f2)
	movwf	fsr0
	movf	indf,w
	movwf	(??__div_to_l_+0)+0+0
	incf	fsr0,f
	movf	indf,w
	movwf	(??__div_to_l_+0)+0+1
	incf	fsr0,f
	movf	indf,w
	movwf	(??__div_to_l_+0)+0+2
	incf	fsr0,f
	movf	indf,w
	movwf	(??__div_to_l_+0)+0+3
	movlw	low(__div_to_l_@f1)
	movwf	fsr0
	movf	indf,w
	movwf	(??__div_to_l_+4)+0+0
	incf	fsr0,f
	movf	indf,w
	movwf	(??__div_to_l_+4)+0+1
	incf	fsr0,f
	movf	indf,w
	movwf	(??__div_to_l_+4)+0+2
	incf	fsr0,f
	movf	indf,w
	movwf	(??__div_to_l_+4)+0+3
	movf	3+(??__div_to_l_+0)+0,w
	subwf	3+(??__div_to_l_+4)+0,w
	skipz
	goto	u2065
	movf	2+(??__div_to_l_+0)+0,w
	subwf	2+(??__div_to_l_+4)+0,w
	skipz
	goto	u2065
	movf	1+(??__div_to_l_+0)+0,w
	subwf	1+(??__div_to_l_+4)+0,w
	skipz
	goto	u2065
	movf	0+(??__div_to_l_+0)+0,w
	subwf	0+(??__div_to_l_+4)+0,w
u2065:
	skipc
	goto	u2061
	goto	u2060
u2061:
	goto	l3566
u2060:
	line	81
	
l6146:	
	movlw	low(__div_to_l_@f2)
	movwf	fsr0
	movf	indf,w
	movwf	(??__div_to_l_+0)+0+0
	incf	fsr0,f
	movf	indf,w
	movwf	(??__div_to_l_+0)+0+1
	incf	fsr0,f
	movf	indf,w
	movwf	(??__div_to_l_+0)+0+2
	incf	fsr0,f
	movf	indf,w
	movwf	(??__div_to_l_+0)+0+3
	movlw	low(__div_to_l_@f1)
	movwf	fsr0
	movf	0+(??__div_to_l_+0)+0,w
	subwf	indf,f
	incf	fsr0
	movf	1+(??__div_to_l_+0)+0,w
	skipc
	incfsz	1+(??__div_to_l_+0)+0,w
	subwf	indf,f
	incf	fsr0
	movf	2+(??__div_to_l_+0)+0,w
	skipc
	incfsz	2+(??__div_to_l_+0)+0,w
	subwf	indf,f
	incf	fsr0
	movf	3+(??__div_to_l_+0)+0,w
	skipc
	incf	3+(??__div_to_l_+0)+0,w
	subwf	indf,f
	movlw	3
	subwf	fsr0
	line	82
	
l6148:	
	bsf	(__div_to_l_@quot)+(0/8),(0)&7
	line	83
	
l3566:	
	line	84
	movlw	low(__div_to_l_@f1)
	movwf	fsr0
	clrc
	rlf	indf,f
	incf	fsr0,f
	rlf	indf,f
	incf	fsr0,f
	rlf	indf,f
	incf	fsr0,f
	rlf	indf,f
	line	85
	
l6150:	
	decfsz	(__div_to_l_@cntr),f
	goto	u2071
	goto	u2070
u2071:
	goto	l6142
u2070:
	
l3567:	
	line	86
	btfss	(__div_to_l_@exp1),7
	goto	u2081
	goto	u2080
u2081:
	goto	l6160
u2080:
	line	87
	
l6152:	
	movf	(__div_to_l_@exp1),w
	xorlw	80h
	addlw	-((-31)^80h)
	skipnc
	goto	u2091
	goto	u2090
u2091:
	goto	l6156
u2090:
	goto	l6126
	line	90
	
l6156:	
	clrc
	rrf	(__div_to_l_@quot+3),f
	rrf	(__div_to_l_@quot+2),f
	rrf	(__div_to_l_@quot+1),f
	rrf	(__div_to_l_@quot),f
	line	91
	
l6158:	
	incfsz	(__div_to_l_@exp1),f
	goto	u2101
	goto	u2100
u2101:
	goto	l6156
u2100:
	goto	l6166
	line	93
	
l6160:	
	movlw	(020h)
	subwf	(__div_to_l_@exp1),w
	skipc
	goto	u2111
	goto	u2110
u2111:
	goto	l3574
u2110:
	goto	l6126
	line	96
	
l6164:	
	clrc
	rlf	(__div_to_l_@quot),f
	rlf	(__div_to_l_@quot+1),f
	rlf	(__div_to_l_@quot+2),f
	rlf	(__div_to_l_@quot+3),f
	line	97
	decf	(__div_to_l_@exp1),f
	line	98
	
l3574:	
	line	95
	movf	(__div_to_l_@exp1),f
	skipz
	goto	u2121
	goto	u2120
u2121:
	goto	l6164
u2120:
	line	100
	
l6166:	
	movf	(__div_to_l_@quot+3),w
	movwf	(?__div_to_l_+3)
	movf	(__div_to_l_@quot+2),w
	movwf	(?__div_to_l_+2)
	movf	(__div_to_l_@quot+1),w
	movwf	(?__div_to_l_+1)
	movf	(__div_to_l_@quot),w
	movwf	(?__div_to_l_)

	line	101
	
l3563:	
	return
	opt stack 0
GLOBAL	__end_of__div_to_l_
	__end_of__div_to_l_:
;; =============== function __div_to_l_ ends ============

	signat	__div_to_l_,8316
	global	__tdiv_to_l_
psect	text577,local,class=CODE,delta=2
global __ptext577
__ptext577:

;; *************** function __tdiv_to_l_ *****************
;; Defined at:
;;		line 61 in file "C:\Program Files (x86)\HI-TECH Software\PICC\9.83\sources\ftdivl.c"
;; Parameters:    Size  Location     Type
;;  f1              3    0[COMMON] float 
;;  f2              3    3[COMMON] float 
;; Auto vars:     Size  Location     Type
;;  quot            4    0[BANK0 ] unsigned long 
;;  exp1            1    5[BANK0 ] unsigned char 
;;  cntr            1    4[BANK0 ] unsigned char 
;; Return value:  Size  Location     Type
;;                  4    0[COMMON] unsigned long 
;; Registers used:
;;		wreg, status,2, status,0
;; Tracked objects:
;;		On entry : 60/20
;;		On exit  : 60/0
;;		Unchanged: FFF9F/0
;; Data sizes:     COMMON   BANK0   BANK1   BANK3   BANK2
;;      Params:         6       0       0       0       0
;;      Locals:         0       6       0       0       0
;;      Temps:          3       0       0       0       0
;;      Totals:         9       6       0       0       0
;;Total ram usage:       15 bytes
;; Hardware stack levels used:    1
;; This function calls:
;;		Nothing
;; This function is called by:
;;		_printf
;; This function uses a non-reentrant model
;;
psect	text577
	file	"C:\Program Files (x86)\HI-TECH Software\PICC\9.83\sources\ftdivl.c"
	line	61
	global	__size_of__tdiv_to_l_
	__size_of__tdiv_to_l_	equ	__end_of__tdiv_to_l_-__tdiv_to_l_
	
__tdiv_to_l_:	
	opt	stack 6
; Regs used in __tdiv_to_l_: [wreg+status,2+status,0]
	line	66
	
l6076:	
	movf	(__tdiv_to_l_@f1),w
	movwf	((??__tdiv_to_l_+0)+0)
	movf	(__tdiv_to_l_@f1+1),w
	movwf	((??__tdiv_to_l_+0)+0+1)
	movf	(__tdiv_to_l_@f1+2),w
	movwf	((??__tdiv_to_l_+0)+0+2)
	clrc
	rlf	(??__tdiv_to_l_+0)+1,w
	rlf	(??__tdiv_to_l_+0)+2,w
	bcf	status, 5	;RP0=0, select bank0
	movwf	(__tdiv_to_l_@exp1)
	movf	((__tdiv_to_l_@exp1)),f
	skipz
	goto	u1951
	goto	u1950
u1951:
	goto	l6080
u1950:
	line	67
	
l6078:	
	clrf	(?__tdiv_to_l_)
	clrf	(?__tdiv_to_l_+1)
	clrf	(?__tdiv_to_l_+2)
	clrf	(?__tdiv_to_l_+3)
	goto	l3520
	line	68
	
l6080:	
	movf	(__tdiv_to_l_@f2),w
	movwf	((??__tdiv_to_l_+0)+0)
	movf	(__tdiv_to_l_@f2+1),w
	movwf	((??__tdiv_to_l_+0)+0+1)
	movf	(__tdiv_to_l_@f2+2),w
	movwf	((??__tdiv_to_l_+0)+0+2)
	clrc
	rlf	(??__tdiv_to_l_+0)+1,w
	rlf	(??__tdiv_to_l_+0)+2,w
	movwf	(__tdiv_to_l_@cntr)
	movf	((__tdiv_to_l_@cntr)),f
	skipz
	goto	u1961
	goto	u1960
u1961:
	goto	l3521
u1960:
	goto	l6078
	line	69
	
l3521:	
	line	70
	bsf	(__tdiv_to_l_@f1)+(15/8),(15)&7
	line	71
	
l6084:	
	movlw	0FFh
	andwf	(__tdiv_to_l_@f1),f
	movlw	0FFh
	andwf	(__tdiv_to_l_@f1+1),f
	movlw	0
	andwf	(__tdiv_to_l_@f1+2),f
	line	72
	
l6086:	
	bsf	(__tdiv_to_l_@f2)+(15/8),(15)&7
	line	73
	movlw	0FFh
	andwf	(__tdiv_to_l_@f2),f
	movlw	0FFh
	andwf	(__tdiv_to_l_@f2+1),f
	movlw	0
	andwf	(__tdiv_to_l_@f2+2),f
	line	74
	
l6088:	
	clrf	(__tdiv_to_l_@quot)
	clrf	(__tdiv_to_l_@quot+1)
	clrf	(__tdiv_to_l_@quot+2)
	clrf	(__tdiv_to_l_@quot+3)
	line	75
	
l6090:	
	movlw	low(07Fh)
	subwf	(__tdiv_to_l_@exp1),f
	line	76
	
l6092:	
	movlw	(098h)
	addwf	(__tdiv_to_l_@cntr),w
	movwf	(??__tdiv_to_l_+0)+0
	movf	0+(??__tdiv_to_l_+0)+0,w
	subwf	(__tdiv_to_l_@exp1),f
	line	77
	movlw	(018h)
	movwf	(__tdiv_to_l_@cntr)
	line	79
	
l6094:	
	clrc
	rlf	(__tdiv_to_l_@quot),f
	rlf	(__tdiv_to_l_@quot+1),f
	rlf	(__tdiv_to_l_@quot+2),f
	rlf	(__tdiv_to_l_@quot+3),f
	line	80
	
l6096:	
	movf	(__tdiv_to_l_@f2+2),w
	subwf	(__tdiv_to_l_@f1+2),w
	skipz
	goto	u1975
	movf	(__tdiv_to_l_@f2+1),w
	subwf	(__tdiv_to_l_@f1+1),w
	skipz
	goto	u1975
	movf	(__tdiv_to_l_@f2),w
	subwf	(__tdiv_to_l_@f1),w
u1975:
	skipc
	goto	u1971
	goto	u1970
u1971:
	goto	l6102
u1970:
	line	81
	
l6098:	
	movf	(__tdiv_to_l_@f2),w
	subwf	(__tdiv_to_l_@f1),f
	movf	(__tdiv_to_l_@f2+1),w
	skipc
	incfsz	(__tdiv_to_l_@f2+1),w
	subwf	(__tdiv_to_l_@f1+1),f
	movf	(__tdiv_to_l_@f2+2),w
	skipc
	incf	(__tdiv_to_l_@f2+2),w
	subwf	(__tdiv_to_l_@f1+2),f
	line	82
	
l6100:	
	bsf	(__tdiv_to_l_@quot)+(0/8),(0)&7
	line	84
	
l6102:	
	clrc
	rlf	(__tdiv_to_l_@f1),f
	rlf	(__tdiv_to_l_@f1+1),f
	rlf	(__tdiv_to_l_@f1+2),f
	line	85
	
l6104:	
	decfsz	(__tdiv_to_l_@cntr),f
	goto	u1981
	goto	u1980
u1981:
	goto	l6094
u1980:
	
l3524:	
	line	86
	btfss	(__tdiv_to_l_@exp1),7
	goto	u1991
	goto	u1990
u1991:
	goto	l6114
u1990:
	line	87
	
l6106:	
	movf	(__tdiv_to_l_@exp1),w
	xorlw	80h
	addlw	-((-23)^80h)
	skipnc
	goto	u2001
	goto	u2000
u2001:
	goto	l6110
u2000:
	goto	l6078
	line	90
	
l6110:	
	clrc
	rrf	(__tdiv_to_l_@quot+3),f
	rrf	(__tdiv_to_l_@quot+2),f
	rrf	(__tdiv_to_l_@quot+1),f
	rrf	(__tdiv_to_l_@quot),f
	line	91
	
l6112:	
	incfsz	(__tdiv_to_l_@exp1),f
	goto	u2011
	goto	u2010
u2011:
	goto	l6110
u2010:
	goto	l6120
	line	93
	
l6114:	
	movlw	(018h)
	subwf	(__tdiv_to_l_@exp1),w
	skipc
	goto	u2021
	goto	u2020
u2021:
	goto	l3531
u2020:
	goto	l6078
	line	96
	
l6118:	
	clrc
	rlf	(__tdiv_to_l_@quot),f
	rlf	(__tdiv_to_l_@quot+1),f
	rlf	(__tdiv_to_l_@quot+2),f
	rlf	(__tdiv_to_l_@quot+3),f
	line	97
	decf	(__tdiv_to_l_@exp1),f
	line	98
	
l3531:	
	line	95
	movf	(__tdiv_to_l_@exp1),f
	skipz
	goto	u2031
	goto	u2030
u2031:
	goto	l6118
u2030:
	line	100
	
l6120:	
	movf	(__tdiv_to_l_@quot+3),w
	movwf	(?__tdiv_to_l_+3)
	movf	(__tdiv_to_l_@quot+2),w
	movwf	(?__tdiv_to_l_+2)
	movf	(__tdiv_to_l_@quot+1),w
	movwf	(?__tdiv_to_l_+1)
	movf	(__tdiv_to_l_@quot),w
	movwf	(?__tdiv_to_l_)

	line	101
	
l3520:	
	return
	opt stack 0
GLOBAL	__end_of__tdiv_to_l_
	__end_of__tdiv_to_l_:
;; =============== function __tdiv_to_l_ ends ============

	signat	__tdiv_to_l_,8316
	global	_isdigit
psect	text578,local,class=CODE,delta=2
global __ptext578
__ptext578:

;; *************** function _isdigit *****************
;; Defined at:
;;		line 13 in file "C:\Program Files (x86)\HI-TECH Software\PICC\9.83\sources\isdigit.c"
;; Parameters:    Size  Location     Type
;;  c               1    wreg     unsigned char 
;; Auto vars:     Size  Location     Type
;;  c               1    1[COMMON] unsigned char 
;; Return value:  Size  Location     Type
;;		None               void
;; Registers used:
;;		wreg, status,2, status,0
;; Tracked objects:
;;		On entry : 60/20
;;		On exit  : 60/20
;;		Unchanged: FFF9F/0
;; Data sizes:     COMMON   BANK0   BANK1   BANK3   BANK2
;;      Params:         0       0       0       0       0
;;      Locals:         2       0       0       0       0
;;      Temps:          0       0       0       0       0
;;      Totals:         2       0       0       0       0
;;Total ram usage:        2 bytes
;; Hardware stack levels used:    1
;; This function calls:
;;		Nothing
;; This function is called by:
;;		_printf
;; This function uses a non-reentrant model
;;
psect	text578
	file	"C:\Program Files (x86)\HI-TECH Software\PICC\9.83\sources\isdigit.c"
	line	13
	global	__size_of_isdigit
	__size_of_isdigit	equ	__end_of_isdigit-_isdigit
	
_isdigit:	
	opt	stack 6
; Regs used in _isdigit: [wreg+status,2+status,0]
;isdigit@c stored from wreg
	movwf	(isdigit@c)
	line	14
	
l6064:	
	clrf	(_isdigit$3670)
	
l6066:	
	movlw	(03Ah)
	subwf	(isdigit@c),w
	skipnc
	goto	u1931
	goto	u1930
u1931:
	goto	l6072
u1930:
	
l6068:	
	movlw	(030h)
	subwf	(isdigit@c),w
	skipc
	goto	u1941
	goto	u1940
u1941:
	goto	l6072
u1940:
	
l6070:	
	clrf	(_isdigit$3670)
	incf	(_isdigit$3670),f
	
l6072:	
	rrf	(_isdigit$3670),w
	
	line	15
	
l3258:	
	return
	opt stack 0
GLOBAL	__end_of_isdigit
	__end_of_isdigit:
;; =============== function _isdigit ends ============

	signat	_isdigit,4216
	global	_isprint
psect	text579,local,class=CODE,delta=2
global __ptext579
__ptext579:

;; *************** function _isprint *****************
;; Defined at:
;;		line 13 in file "C:\Program Files (x86)\HI-TECH Software\PICC\9.83\sources\isprint.c"
;; Parameters:    Size  Location     Type
;;  c               1    wreg     unsigned char 
;; Auto vars:     Size  Location     Type
;;  c               1    1[COMMON] unsigned char 
;; Return value:  Size  Location     Type
;;		None               void
;; Registers used:
;;		wreg, status,2, status,0
;; Tracked objects:
;;		On entry : 0/20
;;		On exit  : 0/20
;;		Unchanged: FFFFF/0
;; Data sizes:     COMMON   BANK0   BANK1   BANK3   BANK2
;;      Params:         0       0       0       0       0
;;      Locals:         2       0       0       0       0
;;      Temps:          0       0       0       0       0
;;      Totals:         2       0       0       0       0
;;Total ram usage:        2 bytes
;; Hardware stack levels used:    1
;; This function calls:
;;		Nothing
;; This function is called by:
;;		_lcd_putc
;; This function uses a non-reentrant model
;;
psect	text579
	file	"C:\Program Files (x86)\HI-TECH Software\PICC\9.83\sources\isprint.c"
	line	13
	global	__size_of_isprint
	__size_of_isprint	equ	__end_of_isprint-_isprint
	
_isprint:	
	opt	stack 4
; Regs used in _isprint: [wreg+status,2+status,0]
;isprint@c stored from wreg
	movwf	(isprint@c)
	line	14
	
l6052:	
	clrf	(_isprint$3673)
	
l6054:	
	movlw	(07Fh)
	subwf	(isprint@c),w
	skipnc
	goto	u1911
	goto	u1910
u1911:
	goto	l6060
u1910:
	
l6056:	
	movlw	(020h)
	subwf	(isprint@c),w
	skipc
	goto	u1921
	goto	u1920
u1921:
	goto	l6060
u1920:
	
l6058:	
	clrf	(_isprint$3673)
	incf	(_isprint$3673),f
	
l6060:	
	rrf	(_isprint$3673),w
	
	line	15
	
l3263:	
	return
	opt stack 0
GLOBAL	__end_of_isprint
	__end_of_isprint:
;; =============== function _isprint ends ============

	signat	_isprint,4216
psect	text580,local,class=CODE,delta=2
global __ptext580
__ptext580:
	global	btemp
	btemp set 07Eh

	DABS	1,126,2	;btemp
	global	wtemp0
	wtemp0 set btemp
	end
