opt subtitle "HI-TECH Software Omniscient Code Generator (PRO mode) build 10920"

opt pagewidth 120

	opt pm

	processor	16F887
clrc	macro
	bcf	3,0
	endm
clrz	macro
	bcf	3,2
	endm
setc	macro
	bsf	3,0
	endm
setz	macro
	bsf	3,2
	endm
skipc	macro
	btfss	3,0
	endm
skipz	macro
	btfss	3,2
	endm
skipnc	macro
	btfsc	3,0
	endm
skipnz	macro
	btfsc	3,2
	endm
indf	equ	0
indf0	equ	0
pc	equ	2
pcl	equ	2
status	equ	3
fsr	equ	4
fsr0	equ	4
c	equ	1
z	equ	0
pclath	equ	10
# 8 "D:\TTVXL\Project TTVXL\BT02week14ttvxl\BT02week14ttvxl.c"
	psect config,class=CONFIG,delta=2 ;#
# 8 "D:\TTVXL\Project TTVXL\BT02week14ttvxl\BT02week14ttvxl.c"
	dw 0xFFFA & 0xFFF7 & 0xFFEF & 0xFFDF & 0xFFFF & 0xFFFF & 0xFFFF & 0xFBFF & 0xF7FF & 0xEFFF & 0xFFFF ;#
	FNCALL	_main,_lcd_init
	FNCALL	_main,___altoft
	FNCALL	_main,___ftmul
	FNCALL	_main,_lcd_gotoxy
	FNCALL	_main,_printf
	FNCALL	_printf,_putch
	FNCALL	_printf,_isdigit
	FNCALL	_printf,___wmul
	FNCALL	_printf,___ftge
	FNCALL	_printf,___ftneg
	FNCALL	_printf,___awdiv
	FNCALL	_printf,_scale
	FNCALL	_printf,___ftmul
	FNCALL	_printf,_fround
	FNCALL	_printf,___ftadd
	FNCALL	_printf,___fttol
	FNCALL	_printf,__div_to_l_
	FNCALL	_printf,__tdiv_to_l_
	FNCALL	_printf,___lltoft
	FNCALL	_printf,___ftsub
	FNCALL	_printf,___lldiv
	FNCALL	_printf,___llmod
	FNCALL	_putch,_lcd_putc
	FNCALL	_lcd_putc,_lcd_put_byte
	FNCALL	_lcd_putc,_lcd_busy
	FNCALL	_lcd_putc,_lcd_gotoxy
	FNCALL	_lcd_putc,_isprint
	FNCALL	___ftsub,___ftadd
	FNCALL	_scale,___awmod
	FNCALL	_scale,___awdiv
	FNCALL	_scale,___ftmul
	FNCALL	_scale,___bmul
	FNCALL	_fround,___lbmod
	FNCALL	_fround,___bmul
	FNCALL	_fround,___lbdiv
	FNCALL	_fround,___ftmul
	FNCALL	_lcd_gotoxy,_lcd_put_byte
	FNCALL	_lcd_gotoxy,_lcd_busy
	FNCALL	_lcd_init,_lcd_put_byte
	FNCALL	_lcd_init,_lcd_busy
	FNCALL	___lltoft,___ftpack
	FNCALL	___altoft,___ftpack
	FNCALL	___ftmul,___ftpack
	FNCALL	___ftadd,___ftpack
	FNROOT	_main
	FNCALL	intlevel1,_ngat
	global	intlevel1
	FNROOT	intlevel1
	global	__npowers_
psect	strings,class=STRING,delta=2
global __pstrings
__pstrings:
;	global	stringdir,stringtab,__stringbase
stringtab:
;	String table - string pointers are 1 byte each
stringcode:stringdir:
movlw high(stringdir)
movwf pclath
movf fsr,w
incf fsr
	addwf pc
__stringbase:
	retlw	0
psect	strings
	file	"C:\Program Files (x86)\HI-TECH Software\PICC\9.83\sources\powers.c"
	line	39
__npowers_:
	retlw	0x0
	retlw	0x80
	retlw	0x3f

	retlw	0xcd
	retlw	0xcc
	retlw	0x3d

	retlw	0xd7
	retlw	0x23
	retlw	0x3c

	retlw	0x12
	retlw	0x83
	retlw	0x3a

	retlw	0xb7
	retlw	0xd1
	retlw	0x38

	retlw	0xc6
	retlw	0x27
	retlw	0x37

	retlw	0x38
	retlw	0x86
	retlw	0x35

	retlw	0xc0
	retlw	0xd6
	retlw	0x33

	retlw	0xcc
	retlw	0x2b
	retlw	0x32

	retlw	0x70
	retlw	0x89
	retlw	0x30

	retlw	0xe7
	retlw	0xdb
	retlw	0x2e

	retlw	0xe5
	retlw	0x3c
	retlw	0x1e

	retlw	0x42
	retlw	0xa2
	retlw	0xd

	global	__powers_
psect	strings
	file	"C:\Program Files (x86)\HI-TECH Software\PICC\9.83\sources\powers.c"
	line	7
__powers_:
	retlw	0x0
	retlw	0x80
	retlw	0x3f

	retlw	0x0
	retlw	0x20
	retlw	0x41

	retlw	0x0
	retlw	0xc8
	retlw	0x42

	retlw	0x0
	retlw	0x7a
	retlw	0x44

	retlw	0x40
	retlw	0x1c
	retlw	0x46

	retlw	0x50
	retlw	0xc3
	retlw	0x47

	retlw	0x24
	retlw	0x74
	retlw	0x49

	retlw	0x97
	retlw	0x18
	retlw	0x4b

	retlw	0xbc
	retlw	0xbe
	retlw	0x4c

	retlw	0x6b
	retlw	0x6e
	retlw	0x4e

	retlw	0x3
	retlw	0x15
	retlw	0x50

	retlw	0x79
	retlw	0xad
	retlw	0x60

	retlw	0xf3
	retlw	0x49
	retlw	0x71

	global	_dpowers
psect	strings
	file	"C:\Program Files (x86)\HI-TECH Software\PICC\9.83\lib\doprnt.c"
	line	350
_dpowers:
	retlw	01h
	retlw	0
	retlw	0
	retlw	0

	retlw	0Ah
	retlw	0
	retlw	0
	retlw	0

	retlw	064h
	retlw	0
	retlw	0
	retlw	0

	retlw	0E8h
	retlw	03h
	retlw	0
	retlw	0

	retlw	010h
	retlw	027h
	retlw	0
	retlw	0

	retlw	0A0h
	retlw	086h
	retlw	01h
	retlw	0

	retlw	040h
	retlw	042h
	retlw	0Fh
	retlw	0

	retlw	080h
	retlw	096h
	retlw	098h
	retlw	0

	retlw	0
	retlw	0E1h
	retlw	0F5h
	retlw	05h

	retlw	0
	retlw	0CAh
	retlw	09Ah
	retlw	03Bh

	global	__npowers_
	global	__powers_
	global	_dpowers
	global	_d
	global	_count
	global	_xung
	global	_TMR1
_TMR1	set	14
	global	_TMR1H
_TMR1H	set	15
	global	_TMR1L
_TMR1L	set	14
	global	_GIE
_GIE	set	95
	global	_RB1
_RB1	set	49
	global	_RBIE
_RBIE	set	91
	global	_RBIF
_RBIF	set	88
	global	_RD1
_RD1	set	65
	global	_RD2
_RD2	set	66
	global	_RD3
_RD3	set	67
	global	_RD4
_RD4	set	68
	global	_RD5
_RD5	set	69
	global	_RD6
_RD6	set	70
	global	_RD7
_RD7	set	71
	global	_RE0
_RE0	set	72
	global	_RE1
_RE1	set	73
	global	_T1CKPS0
_T1CKPS0	set	132
	global	_T1CKPS1
_T1CKPS1	set	133
	global	_T1SYNC
_T1SYNC	set	130
	global	_TMR1CS
_TMR1CS	set	129
	global	_TMR1GE
_TMR1GE	set	134
	global	_TMR1ON
_TMR1ON	set	128
	global	_IOCB
_IOCB	set	150
	global	_WPUB
_WPUB	set	149
	global	_TRISB1
_TRISB1	set	1073
	global	_TRISD1
_TRISD1	set	1089
	global	_TRISD2
_TRISD2	set	1090
	global	_TRISD3
_TRISD3	set	1091
	global	_TRISD4
_TRISD4	set	1092
	global	_TRISD5
_TRISD5	set	1093
	global	_TRISD6
_TRISD6	set	1094
	global	_TRISD7
_TRISD7	set	1095
	global	_TRISE0
_TRISE0	set	1096
	global	_TRISE1
_TRISE1	set	1097
	global	_nRBPU
_nRBPU	set	1039
	global	_ANSEL
_ANSEL	set	392
	global	_ANSELH
_ANSELH	set	393
	
STR_1:	
	retlw	120	;'x'
	retlw	117	;'u'
	retlw	110	;'n'
	retlw	103	;'g'
	retlw	58	;':'
	retlw	32	;' '
	retlw	37	;'%'
	retlw	48	;'0'
	retlw	53	;'5'
	retlw	117	;'u'
	retlw	0
psect	strings
	
STR_2:	
	retlw	100	;'d'
	retlw	58	;':'
	retlw	32	;' '
	retlw	37	;'%'
	retlw	51	;'3'
	retlw	46	;'.'
	retlw	50	;'2'
	retlw	102	;'f'
	retlw	0
psect	strings
	file	"BT02week14ttvxl.as"
	line	#
psect cinit,class=CODE,delta=2
global start_initialization
start_initialization:

psect	bssBANK0,class=BANK0,space=1
global __pbssBANK0
__pbssBANK0:
_d:
       ds      3

_count:
       ds      2

_xung:
       ds      4

; Clear objects allocated to BANK0
psect cinit,class=CODE,delta=2
	clrf	((__pbssBANK0)+0)&07Fh
	clrf	((__pbssBANK0)+1)&07Fh
	clrf	((__pbssBANK0)+2)&07Fh
	clrf	((__pbssBANK0)+3)&07Fh
	clrf	((__pbssBANK0)+4)&07Fh
	clrf	((__pbssBANK0)+5)&07Fh
	clrf	((__pbssBANK0)+6)&07Fh
	clrf	((__pbssBANK0)+7)&07Fh
	clrf	((__pbssBANK0)+8)&07Fh
psect cinit,class=CODE,delta=2
global end_of_initialization

;End of C runtime variable initialization code

end_of_initialization:
clrf status
ljmp _main	;jump to C main() function
psect	cstackBANK1,class=BANK1,space=1
global __pcstackBANK1
__pcstackBANK1:
	global	_printf$3163
_printf$3163:	; 4 bytes @ 0x0
	ds	4
	global	printf@ap
printf@ap:	; 1 bytes @ 0x4
	ds	1
	global	printf@integ
printf@integ:	; 3 bytes @ 0x5
	ds	3
	global	printf@_val
printf@_val:	; 4 bytes @ 0x8
	ds	4
	global	printf@f
printf@f:	; 1 bytes @ 0xC
	ds	1
	global	printf@flag
printf@flag:	; 2 bytes @ 0xD
	ds	2
	global	printf@exp
printf@exp:	; 2 bytes @ 0xF
	ds	2
	global	printf@width
printf@width:	; 2 bytes @ 0x11
	ds	2
	global	printf@fval
printf@fval:	; 3 bytes @ 0x13
	ds	3
	global	printf@prec
printf@prec:	; 2 bytes @ 0x16
	ds	2
	global	printf@c
printf@c:	; 1 bytes @ 0x18
	ds	1
psect	cstackCOMMON,class=COMMON,space=1
global __pcstackCOMMON
__pcstackCOMMON:
	global	?_lcd_init
?_lcd_init:	; 0 bytes @ 0x0
	global	?_lcd_putc
?_lcd_putc:	; 0 bytes @ 0x0
	global	?_isprint
?_isprint:	; 1 bit 
	global	?_isdigit
?_isdigit:	; 1 bit 
	global	?_main
?_main:	; 0 bytes @ 0x0
	global	?_ngat
?_ngat:	; 0 bytes @ 0x0
	global	??_ngat
??_ngat:	; 0 bytes @ 0x0
	global	?_putch
?_putch:	; 0 bytes @ 0x0
	global	?_lcd_busy
?_lcd_busy:	; 1 bytes @ 0x0
	ds	2
	global	?_lcd_put_byte
?_lcd_put_byte:	; 0 bytes @ 0x2
	global	??_lcd_busy
??_lcd_busy:	; 0 bytes @ 0x2
	global	??_isprint
??_isprint:	; 0 bytes @ 0x2
	global	??_isdigit
??_isdigit:	; 0 bytes @ 0x2
	global	?___ftge
?___ftge:	; 1 bit 
	global	?___lbmod
?___lbmod:	; 1 bytes @ 0x2
	global	?___wmul
?___wmul:	; 2 bytes @ 0x2
	global	?___awmod
?___awmod:	; 2 bytes @ 0x2
	global	?___ftpack
?___ftpack:	; 3 bytes @ 0x2
	global	?___ftneg
?___ftneg:	; 3 bytes @ 0x2
	global	?__tdiv_to_l_
?__tdiv_to_l_:	; 4 bytes @ 0x2
	global	?__div_to_l_
?__div_to_l_:	; 4 bytes @ 0x2
	global	?___lldiv
?___lldiv:	; 4 bytes @ 0x2
	global	lcd_put_byte@b
lcd_put_byte@b:	; 1 bytes @ 0x2
	global	_isdigit$3671
_isdigit$3671:	; 1 bytes @ 0x2
	global	_isprint$3674
_isprint$3674:	; 1 bytes @ 0x2
	global	___lbmod@divisor
___lbmod@divisor:	; 1 bytes @ 0x2
	global	___wmul@multiplier
___wmul@multiplier:	; 2 bytes @ 0x2
	global	___awmod@divisor
___awmod@divisor:	; 2 bytes @ 0x2
	global	___ftneg@f1
___ftneg@f1:	; 3 bytes @ 0x2
	global	___ftge@ff1
___ftge@ff1:	; 3 bytes @ 0x2
	global	__tdiv_to_l_@f1
__tdiv_to_l_@f1:	; 3 bytes @ 0x2
	global	__div_to_l_@f1
__div_to_l_@f1:	; 3 bytes @ 0x2
	global	___ftpack@arg
___ftpack@arg:	; 3 bytes @ 0x2
	global	___lldiv@divisor
___lldiv@divisor:	; 4 bytes @ 0x2
	ds	1
	global	??_lcd_put_byte
??_lcd_put_byte:	; 0 bytes @ 0x3
	global	??___lbmod
??___lbmod:	; 0 bytes @ 0x3
	global	lcd_busy@busy
lcd_busy@busy:	; 1 bytes @ 0x3
	global	isdigit@c
isdigit@c:	; 1 bytes @ 0x3
	global	isprint@c
isprint@c:	; 1 bytes @ 0x3
	ds	1
	global	___lbmod@dividend
___lbmod@dividend:	; 1 bytes @ 0x4
	global	___wmul@multiplicand
___wmul@multiplicand:	; 2 bytes @ 0x4
	global	___awmod@dividend
___awmod@dividend:	; 2 bytes @ 0x4
	ds	1
	global	??___ftneg
??___ftneg:	; 0 bytes @ 0x5
	global	lcd_put_byte@rs
lcd_put_byte@rs:	; 1 bytes @ 0x5
	global	___lbmod@counter
___lbmod@counter:	; 1 bytes @ 0x5
	global	___ftpack@exp
___ftpack@exp:	; 1 bytes @ 0x5
	global	___ftge@ff2
___ftge@ff2:	; 3 bytes @ 0x5
	global	__tdiv_to_l_@f2
__tdiv_to_l_@f2:	; 3 bytes @ 0x5
	global	__div_to_l_@f2
__div_to_l_@f2:	; 3 bytes @ 0x5
	ds	1
	global	??___wmul
??___wmul:	; 0 bytes @ 0x6
	global	??___awmod
??___awmod:	; 0 bytes @ 0x6
	global	lcd_put_byte@temp
lcd_put_byte@temp:	; 1 bytes @ 0x6
	global	___lbmod@rem
___lbmod@rem:	; 1 bytes @ 0x6
	global	___awmod@counter
___awmod@counter:	; 1 bytes @ 0x6
	global	___ftpack@sign
___ftpack@sign:	; 1 bytes @ 0x6
	global	___wmul@product
___wmul@product:	; 2 bytes @ 0x6
	global	___lldiv@dividend
___lldiv@dividend:	; 4 bytes @ 0x6
	ds	1
	global	??_lcd_init
??_lcd_init:	; 0 bytes @ 0x7
	global	?_lcd_gotoxy
?_lcd_gotoxy:	; 0 bytes @ 0x7
	global	??___ftpack
??___ftpack:	; 0 bytes @ 0x7
	global	?___lbdiv
?___lbdiv:	; 1 bytes @ 0x7
	global	lcd_gotoxy@row
lcd_gotoxy@row:	; 1 bytes @ 0x7
	global	___lbdiv@divisor
___lbdiv@divisor:	; 1 bytes @ 0x7
	global	___awmod@sign
___awmod@sign:	; 1 bytes @ 0x7
	ds	1
	global	??_lcd_gotoxy
??_lcd_gotoxy:	; 0 bytes @ 0x8
	global	??__tdiv_to_l_
??__tdiv_to_l_:	; 0 bytes @ 0x8
	global	??___lbdiv
??___lbdiv:	; 0 bytes @ 0x8
	global	??___ftge
??___ftge:	; 0 bytes @ 0x8
	global	?___awdiv
?___awdiv:	; 2 bytes @ 0x8
	global	lcd_gotoxy@col
lcd_gotoxy@col:	; 1 bytes @ 0x8
	global	___lbdiv@dividend
___lbdiv@dividend:	; 1 bytes @ 0x8
	global	___awdiv@divisor
___awdiv@divisor:	; 2 bytes @ 0x8
	ds	1
	global	lcd_gotoxy@address
lcd_gotoxy@address:	; 1 bytes @ 0x9
	global	___lbdiv@counter
___lbdiv@counter:	; 1 bytes @ 0x9
	ds	1
	global	??_lcd_putc
??_lcd_putc:	; 0 bytes @ 0xA
	global	??___llmod
??___llmod:	; 0 bytes @ 0xA
	global	??___lldiv
??___lldiv:	; 0 bytes @ 0xA
	global	??___altoft
??___altoft:	; 0 bytes @ 0xA
	global	??___lltoft
??___lltoft:	; 0 bytes @ 0xA
	global	lcd_putc@c
lcd_putc@c:	; 1 bytes @ 0xA
	global	___lbdiv@quotient
___lbdiv@quotient:	; 1 bytes @ 0xA
	global	___llmod@counter
___llmod@counter:	; 1 bytes @ 0xA
	global	___altoft@exp
___altoft@exp:	; 1 bytes @ 0xA
	global	___lltoft@exp
___lltoft@exp:	; 1 bytes @ 0xA
	global	___awdiv@dividend
___awdiv@dividend:	; 2 bytes @ 0xA
	ds	1
	global	??_putch
??_putch:	; 0 bytes @ 0xB
	global	?___bmul
?___bmul:	; 1 bytes @ 0xB
	global	putch@c
putch@c:	; 1 bytes @ 0xB
	global	___bmul@multiplicand
___bmul@multiplicand:	; 1 bytes @ 0xB
	global	___altoft@sign
___altoft@sign:	; 1 bytes @ 0xB
	ds	1
	global	??_fround
??_fround:	; 0 bytes @ 0xC
	global	??___bmul
??___bmul:	; 0 bytes @ 0xC
	global	??___ftsub
??___ftsub:	; 0 bytes @ 0xC
	global	??___awdiv
??___awdiv:	; 0 bytes @ 0xC
psect	cstackBANK0,class=BANK0,space=1
global __pcstackBANK0
__pcstackBANK0:
	global	??__div_to_l_
??__div_to_l_:	; 0 bytes @ 0x0
	global	?___altoft
?___altoft:	; 3 bytes @ 0x0
	global	?___lltoft
?___lltoft:	; 3 bytes @ 0x0
	global	___bmul@product
___bmul@product:	; 1 bytes @ 0x0
	global	___awdiv@counter
___awdiv@counter:	; 1 bytes @ 0x0
	global	___lldiv@quotient
___lldiv@quotient:	; 4 bytes @ 0x0
	global	___altoft@c
___altoft@c:	; 4 bytes @ 0x0
	global	___lltoft@c
___lltoft@c:	; 4 bytes @ 0x0
	global	__tdiv_to_l_@quot
__tdiv_to_l_@quot:	; 4 bytes @ 0x0
	ds	1
	global	___bmul@multiplier
___bmul@multiplier:	; 1 bytes @ 0x1
	global	___awdiv@sign
___awdiv@sign:	; 1 bytes @ 0x1
	ds	1
	global	___awdiv@quotient
___awdiv@quotient:	; 2 bytes @ 0x2
	ds	2
	global	?___fttol
?___fttol:	; 4 bytes @ 0x4
	global	___lldiv@counter
___lldiv@counter:	; 1 bytes @ 0x4
	global	__tdiv_to_l_@cntr
__tdiv_to_l_@cntr:	; 1 bytes @ 0x4
	global	___fttol@f1
___fttol@f1:	; 3 bytes @ 0x4
	ds	1
	global	?___llmod
?___llmod:	; 4 bytes @ 0x5
	global	__tdiv_to_l_@exp1
__tdiv_to_l_@exp1:	; 1 bytes @ 0x5
	global	___llmod@divisor
___llmod@divisor:	; 4 bytes @ 0x5
	ds	3
	global	??___fttol
??___fttol:	; 0 bytes @ 0x8
	global	__div_to_l_@quot
__div_to_l_@quot:	; 4 bytes @ 0x8
	ds	1
	global	___llmod@dividend
___llmod@dividend:	; 4 bytes @ 0x9
	ds	2
	global	___fttol@sign1
___fttol@sign1:	; 1 bytes @ 0xB
	ds	1
	global	__div_to_l_@cntr
__div_to_l_@cntr:	; 1 bytes @ 0xC
	global	___fttol@lval
___fttol@lval:	; 4 bytes @ 0xC
	ds	1
	global	__div_to_l_@exp1
__div_to_l_@exp1:	; 1 bytes @ 0xD
	ds	3
	global	___fttol@exp1
___fttol@exp1:	; 1 bytes @ 0x10
	ds	1
	global	?___ftmul
?___ftmul:	; 3 bytes @ 0x11
	global	___ftmul@f1
___ftmul@f1:	; 3 bytes @ 0x11
	ds	3
	global	___ftmul@f2
___ftmul@f2:	; 3 bytes @ 0x14
	ds	3
	global	??___ftmul
??___ftmul:	; 0 bytes @ 0x17
	ds	3
	global	___ftmul@exp
___ftmul@exp:	; 1 bytes @ 0x1A
	ds	1
	global	___ftmul@f3_as_product
___ftmul@f3_as_product:	; 3 bytes @ 0x1B
	ds	3
	global	___ftmul@cntr
___ftmul@cntr:	; 1 bytes @ 0x1E
	ds	1
	global	___ftmul@sign
___ftmul@sign:	; 1 bytes @ 0x1F
	ds	1
	global	?_scale
?_scale:	; 3 bytes @ 0x20
	global	?___ftadd
?___ftadd:	; 3 bytes @ 0x20
	global	___ftadd@f1
___ftadd@f1:	; 3 bytes @ 0x20
	ds	3
	global	??_scale
??_scale:	; 0 bytes @ 0x23
	global	___ftadd@f2
___ftadd@f2:	; 3 bytes @ 0x23
	ds	3
	global	??___ftadd
??___ftadd:	; 0 bytes @ 0x26
	ds	1
	global	_scale$4108
_scale$4108:	; 3 bytes @ 0x27
	ds	2
	global	___ftadd@sign
___ftadd@sign:	; 1 bytes @ 0x29
	ds	1
	global	scale@scl
scale@scl:	; 1 bytes @ 0x2A
	global	___ftadd@exp2
___ftadd@exp2:	; 1 bytes @ 0x2A
	ds	1
	global	___ftadd@exp1
___ftadd@exp1:	; 1 bytes @ 0x2B
	ds	1
	global	?_fround
?_fround:	; 3 bytes @ 0x2C
	global	?___ftsub
?___ftsub:	; 3 bytes @ 0x2C
	global	___ftsub@f2
___ftsub@f2:	; 3 bytes @ 0x2C
	ds	3
	global	___ftsub@f1
___ftsub@f1:	; 3 bytes @ 0x2F
	global	_fround$4107
_fround$4107:	; 3 bytes @ 0x2F
	ds	3
	global	_fround$4106
_fround$4106:	; 3 bytes @ 0x32
	ds	3
	global	fround@prec
fround@prec:	; 1 bytes @ 0x35
	ds	1
	global	?_printf
?_printf:	; 2 bytes @ 0x36
	ds	4
	global	??_printf
??_printf:	; 0 bytes @ 0x3A
	ds	5
	global	??_main
??_main:	; 0 bytes @ 0x3F
	ds	3
;;Data sizes: Strings 20, constant 118, data 0, bss 9, persistent 0 stack 0
;;Auto spaces:   Size  Autos    Used
;; COMMON          14     12      12
;; BANK0           80     66      75
;; BANK1           80     25      25
;; BANK3           96      0       0
;; BANK2           96      0       0

;;
;; Pointer list with targets:

;; ?___ftpack	float  size(1) Largest target is 4
;;		 -> xung(BANK0[4]), 
;;
;; ?___lldiv	unsigned long  size(1) Largest target is 0
;;
;; ?___llmod	unsigned long  size(1) Largest target is 4
;;		 -> xung(BANK0[4]), 
;;
;; ?___ftsub	float  size(1) Largest target is 0
;;
;; ?___lltoft	float  size(1) Largest target is 0
;;
;; ?__tdiv_to_l_	unsigned long  size(1) Largest target is 0
;;
;; ?__div_to_l_	unsigned long  size(1) Largest target is 0
;;
;; ?___fttol	long  size(1) Largest target is 4
;;		 -> xung(BANK0[4]), 
;;
;; ?___ftadd	float  size(1) Largest target is 4
;;		 -> xung(BANK0[4]), 
;;
;; ?___ftneg	float  size(1) Largest target is 4
;;		 -> xung(BANK0[4]), 
;;
;; ?___awmod	int  size(2) Largest target is 40
;;		 -> dpowers(CODE[40]), xung(BANK0[4]), 
;;
;; ?___awdiv	int  size(1) Largest target is 0
;;
;; ?_scale	int  size(1) Largest target is 0
;;
;; ?___wmul	unsigned int  size(1) Largest target is 0
;;
;; ?_fround	unsigned int  size(1) Largest target is 0
;;
;; ?___ftmul	float  size(1) Largest target is 0
;;
;; ?___altoft	float  size(1) Largest target is 0
;;
;; printf@f	PTR const unsigned char  size(1) Largest target is 11
;;		 -> STR_2(CODE[9]), STR_1(CODE[11]), 
;;
;; ?_printf	int  size(1) Largest target is 4
;;		 -> xung(BANK0[4]), 
;;
;; printf@ap	PTR void [1] size(1) Largest target is 2
;;		 -> ?_printf(BANK0[2]), 
;;
;; S3152$_cp	PTR const unsigned char  size(1) Largest target is 0
;;
;; _val._str._cp	PTR const unsigned char  size(1) Largest target is 0
;;


;;
;; Critical Paths under _main in COMMON
;;
;;   _main->___altoft
;;   _printf->_putch
;;   _printf->___awdiv
;;   _putch->_lcd_putc
;;   _lcd_putc->_lcd_gotoxy
;;   _scale->___awdiv
;;   _scale->___bmul
;;   _fround->___bmul
;;   _lcd_gotoxy->_lcd_put_byte
;;   _lcd_init->_lcd_put_byte
;;   ___lltoft->___ftpack
;;   ___altoft->___ftpack
;;   ___ftmul->___altoft
;;   ___ftmul->___awdiv
;;   ___ftmul->___bmul
;;   ___ftadd->___bmul
;;   ___llmod->___lldiv
;;   ___awdiv->___awmod
;;   ___fttol->___awdiv
;;   ___fttol->___bmul
;;   ___lbdiv->___lbmod
;;   ___bmul->___lbdiv
;;
;; Critical Paths under _ngat in COMMON
;;
;;   None.
;;
;; Critical Paths under _main in BANK0
;;
;;   _main->_printf
;;   _printf->_fround
;;   ___ftsub->___ftadd
;;   _scale->___ftmul
;;   _fround->___ftadd
;;   ___ftmul->___fttol
;;   ___ftadd->___ftmul
;;   ___llmod->___lldiv
;;   ___fttol->___awdiv
;;
;; Critical Paths under _ngat in BANK0
;;
;;   None.
;;
;; Critical Paths under _main in BANK1
;;
;;   _main->_printf
;;
;; Critical Paths under _ngat in BANK1
;;
;;   None.
;;
;; Critical Paths under _main in BANK3
;;
;;   None.
;;
;; Critical Paths under _ngat in BANK3
;;
;;   None.
;;
;; Critical Paths under _main in BANK2
;;
;;   None.
;;
;; Critical Paths under _ngat in BANK2
;;
;;   None.

;;
;;Main: autosize = 0, tempsize = 3, incstack = 0, save=0
;;

;;
;;Call Graph Tables:
;;
;; ---------------------------------------------------------------------------------
;; (Depth) Function   	        Calls       Base Space   Used Autos Params    Refs
;; ---------------------------------------------------------------------------------
;; (0) _main                                                 3     3      0   12403
;;                                             63 BANK0      3     3      0
;;                           _lcd_init
;;                           ___altoft
;;                            ___ftmul
;;                         _lcd_gotoxy
;;                             _printf
;; ---------------------------------------------------------------------------------
;; (1) _printf                                              38    34      4   10964
;;                                             54 BANK0      9     5      4
;;                                              0 BANK1     25    25      0
;;                              _putch
;;                            _isdigit
;;                             ___wmul
;;                             ___ftge
;;                            ___ftneg
;;                            ___awdiv
;;                              _scale
;;                            ___ftmul
;;                             _fround
;;                            ___ftadd
;;                            ___fttol
;;                         __div_to_l_
;;                        __tdiv_to_l_
;;                           ___lltoft
;;                            ___ftsub
;;                            ___lldiv
;;                            ___llmod
;; ---------------------------------------------------------------------------------
;; (2) _putch                                                1     1      0     713
;;                                             11 COMMON     1     1      0
;;                           _lcd_putc
;; ---------------------------------------------------------------------------------
;; (3) _lcd_putc                                             1     1      0     691
;;                                             10 COMMON     1     1      0
;;                       _lcd_put_byte
;;                           _lcd_busy
;;                         _lcd_gotoxy
;;                            _isprint
;; ---------------------------------------------------------------------------------
;; (2) ___ftsub                                              6     0      6    1094
;;                                             44 BANK0      6     0      6
;;                            ___ftadd
;;                           ___lltoft (ARG)
;; ---------------------------------------------------------------------------------
;; (2) _scale                                               14    11      3    1688
;;                                             32 BANK0     11     8      3
;;                            ___awmod
;;                            ___awdiv
;;                            ___ftmul
;;                             ___bmul
;;                            ___fttol (ARG)
;; ---------------------------------------------------------------------------------
;; (2) _fround                                              13    10      3    1215
;;                                             44 BANK0     10     7      3
;;                            ___lbmod
;;                             ___bmul
;;                            ___lbdiv
;;                            ___ftmul
;;                            ___ftadd (ARG)
;; ---------------------------------------------------------------------------------
;; (4) _lcd_gotoxy                                           3     2      1     313
;;                                              7 COMMON     3     2      1
;;                       _lcd_put_byte
;;                           _lcd_busy
;; ---------------------------------------------------------------------------------
;; (1) _lcd_init                                             4     4      0     244
;;                                              7 COMMON     3     3      0
;;                       _lcd_put_byte
;;                           _lcd_busy
;; ---------------------------------------------------------------------------------
;; (2) ___lltoft                                             5     1      4     278
;;                                             10 COMMON     1     1      0
;;                                              0 BANK0      4     0      4
;;                           ___ftpack
;; ---------------------------------------------------------------------------------
;; (1) ___altoft                                             6     2      4     347
;;                                             10 COMMON     2     2      0
;;                                              0 BANK0      4     0      4
;;                           ___ftpack
;; ---------------------------------------------------------------------------------
;; (3) ___ftmul                                             15     9      6     535
;;                                             17 BANK0     15     9      6
;;                           ___ftpack
;;                           ___altoft (ARG)
;;                            ___fttol (ARG)
;;                            ___awdiv (ARG)
;;                            ___awmod (ARG)
;;                             ___bmul (ARG)
;;                            ___lbdiv (ARG)
;;                            ___lbmod (ARG)
;; ---------------------------------------------------------------------------------
;; (3) ___ftadd                                             12     6      6    1049
;;                                             32 BANK0     12     6      6
;;                           ___ftpack
;;                            ___lbmod (ARG)
;;                             ___bmul (ARG)
;;                            ___lbdiv (ARG)
;;                            ___ftmul (ARG)
;; ---------------------------------------------------------------------------------
;; (5) _lcd_busy                                             2     2      0      23
;;                                              2 COMMON     2     2      0
;; ---------------------------------------------------------------------------------
;; (5) _lcd_put_byte                                         5     4      1     221
;;                                              2 COMMON     5     4      1
;; ---------------------------------------------------------------------------------
;; (3) ___awmod                                              6     2      4     296
;;                                              2 COMMON     6     2      4
;; ---------------------------------------------------------------------------------
;; (2) ___lldiv                                             13     5      8     162
;;                                              2 COMMON     8     0      8
;;                                              0 BANK0      5     5      0
;; ---------------------------------------------------------------------------------
;; (2) ___ftge                                               6     0      6     136
;;                                              2 COMMON     6     0      6
;; ---------------------------------------------------------------------------------
;; (2) ___ftneg                                              3     0      3      45
;;                                              2 COMMON     3     0      3
;; ---------------------------------------------------------------------------------
;; (2) ___llmod                                              9     1      8     159
;;                                             10 COMMON     1     1      0
;;                                              5 BANK0      8     0      8
;;                            ___lldiv (ARG)
;; ---------------------------------------------------------------------------------
;; (3) ___awdiv                                              8     4      4     300
;;                                              8 COMMON     4     0      4
;;                                              0 BANK0      4     4      0
;;                            ___awmod (ARG)
;; ---------------------------------------------------------------------------------
;; (2) ___fttol                                             13     9      4     252
;;                                              4 BANK0     13     9      4
;;                           ___ftpack (ARG)
;;                            ___awmod (ARG)
;;                            ___awdiv (ARG)
;;                             ___bmul (ARG)
;; ---------------------------------------------------------------------------------
;; (4) ___ftpack                                             8     3      5     209
;;                                              2 COMMON     8     3      5
;; ---------------------------------------------------------------------------------
;; (3) ___lbmod                                              5     4      1     159
;;                                              2 COMMON     5     4      1
;; ---------------------------------------------------------------------------------
;; (3) ___lbdiv                                              4     3      1     162
;;                                              7 COMMON     4     3      1
;;                            ___lbmod (ARG)
;; ---------------------------------------------------------------------------------
;; (2) ___wmul                                               6     2      4      92
;;                                              2 COMMON     6     2      4
;; ---------------------------------------------------------------------------------
;; (3) ___bmul                                               3     2      1      68
;;                                             11 COMMON     1     0      1
;;                                              0 BANK0      2     2      0
;;                            ___lbmod (ARG)
;;                            ___lbdiv (ARG)
;; ---------------------------------------------------------------------------------
;; (2) __div_to_l_                                          20    14      6     446
;;                                              2 COMMON     6     0      6
;;                                              0 BANK0     14    14      0
;; ---------------------------------------------------------------------------------
;; (2) __tdiv_to_l_                                         15     9      6     303
;;                                              2 COMMON     9     3      6
;;                                              0 BANK0      6     6      0
;; ---------------------------------------------------------------------------------
;; (2) _isdigit                                              2     2      0      68
;;                                              2 COMMON     2     2      0
;; ---------------------------------------------------------------------------------
;; (4) _isprint                                              2     2      0      68
;;                                              2 COMMON     2     2      0
;; ---------------------------------------------------------------------------------
;; Estimated maximum stack depth 5
;; ---------------------------------------------------------------------------------
;; (Depth) Function   	        Calls       Base Space   Used Autos Params    Refs
;; ---------------------------------------------------------------------------------
;; (6) _ngat                                                 2     2      0       0
;;                                              0 COMMON     2     2      0
;; ---------------------------------------------------------------------------------
;; Estimated maximum stack depth 6
;; ---------------------------------------------------------------------------------

;; Call Graph Graphs:

;; _main (ROOT)
;;   _lcd_init
;;     _lcd_put_byte
;;     _lcd_busy
;;   ___altoft
;;     ___ftpack
;;   ___ftmul
;;     ___ftpack
;;     ___altoft (ARG)
;;       ___ftpack
;;     ___fttol (ARG)
;;       ___ftpack (ARG)
;;       ___awmod (ARG)
;;       ___awdiv (ARG)
;;         ___awmod (ARG)
;;       ___bmul (ARG)
;;         ___lbmod (ARG)
;;         ___lbdiv (ARG)
;;           ___lbmod (ARG)
;;     ___awdiv (ARG)
;;       ___awmod (ARG)
;;     ___awmod (ARG)
;;     ___bmul (ARG)
;;       ___lbmod (ARG)
;;       ___lbdiv (ARG)
;;         ___lbmod (ARG)
;;     ___lbdiv (ARG)
;;       ___lbmod (ARG)
;;     ___lbmod (ARG)
;;   _lcd_gotoxy
;;     _lcd_put_byte
;;     _lcd_busy
;;   _printf
;;     _putch
;;       _lcd_putc
;;         _lcd_put_byte
;;         _lcd_busy
;;         _lcd_gotoxy
;;           _lcd_put_byte
;;           _lcd_busy
;;         _isprint
;;     _isdigit
;;     ___wmul
;;     ___ftge
;;     ___ftneg
;;     ___awdiv
;;       ___awmod (ARG)
;;     _scale
;;       ___awmod
;;       ___awdiv
;;         ___awmod (ARG)
;;       ___ftmul
;;         ___ftpack
;;         ___altoft (ARG)
;;           ___ftpack
;;         ___fttol (ARG)
;;           ___ftpack (ARG)
;;           ___awmod (ARG)
;;           ___awdiv (ARG)
;;             ___awmod (ARG)
;;           ___bmul (ARG)
;;             ___lbmod (ARG)
;;             ___lbdiv (ARG)
;;               ___lbmod (ARG)
;;         ___awdiv (ARG)
;;           ___awmod (ARG)
;;         ___awmod (ARG)
;;         ___bmul (ARG)
;;           ___lbmod (ARG)
;;           ___lbdiv (ARG)
;;             ___lbmod (ARG)
;;         ___lbdiv (ARG)
;;           ___lbmod (ARG)
;;         ___lbmod (ARG)
;;       ___bmul
;;         ___lbmod (ARG)
;;         ___lbdiv (ARG)
;;           ___lbmod (ARG)
;;       ___fttol (ARG)
;;         ___ftpack (ARG)
;;         ___awmod (ARG)
;;         ___awdiv (ARG)
;;           ___awmod (ARG)
;;         ___bmul (ARG)
;;           ___lbmod (ARG)
;;           ___lbdiv (ARG)
;;             ___lbmod (ARG)
;;     ___ftmul
;;       ___ftpack
;;       ___altoft (ARG)
;;         ___ftpack
;;       ___fttol (ARG)
;;         ___ftpack (ARG)
;;         ___awmod (ARG)
;;         ___awdiv (ARG)
;;           ___awmod (ARG)
;;         ___bmul (ARG)
;;           ___lbmod (ARG)
;;           ___lbdiv (ARG)
;;             ___lbmod (ARG)
;;       ___awdiv (ARG)
;;         ___awmod (ARG)
;;       ___awmod (ARG)
;;       ___bmul (ARG)
;;         ___lbmod (ARG)
;;         ___lbdiv (ARG)
;;           ___lbmod (ARG)
;;       ___lbdiv (ARG)
;;         ___lbmod (ARG)
;;       ___lbmod (ARG)
;;     _fround
;;       ___lbmod
;;       ___bmul
;;         ___lbmod (ARG)
;;         ___lbdiv (ARG)
;;           ___lbmod (ARG)
;;       ___lbdiv
;;         ___lbmod (ARG)
;;       ___ftmul
;;         ___ftpack
;;         ___altoft (ARG)
;;           ___ftpack
;;         ___fttol (ARG)
;;           ___ftpack (ARG)
;;           ___awmod (ARG)
;;           ___awdiv (ARG)
;;             ___awmod (ARG)
;;           ___bmul (ARG)
;;             ___lbmod (ARG)
;;             ___lbdiv (ARG)
;;               ___lbmod (ARG)
;;         ___awdiv (ARG)
;;           ___awmod (ARG)
;;         ___awmod (ARG)
;;         ___bmul (ARG)
;;           ___lbmod (ARG)
;;           ___lbdiv (ARG)
;;             ___lbmod (ARG)
;;         ___lbdiv (ARG)
;;           ___lbmod (ARG)
;;         ___lbmod (ARG)
;;       ___ftadd (ARG)
;;         ___ftpack
;;         ___lbmod (ARG)
;;         ___bmul (ARG)
;;           ___lbmod (ARG)
;;           ___lbdiv (ARG)
;;             ___lbmod (ARG)
;;         ___lbdiv (ARG)
;;           ___lbmod (ARG)
;;         ___ftmul (ARG)
;;           ___ftpack
;;           ___altoft (ARG)
;;             ___ftpack
;;           ___fttol (ARG)
;;             ___ftpack (ARG)
;;             ___awmod (ARG)
;;             ___awdiv (ARG)
;;               ___awmod (ARG)
;;             ___bmul (ARG)
;;               ___lbmod (ARG)
;;               ___lbdiv (ARG)
;;                 ___lbmod (ARG)
;;           ___awdiv (ARG)
;;             ___awmod (ARG)
;;           ___awmod (ARG)
;;           ___bmul (ARG)
;;             ___lbmod (ARG)
;;             ___lbdiv (ARG)
;;               ___lbmod (ARG)
;;           ___lbdiv (ARG)
;;             ___lbmod (ARG)
;;           ___lbmod (ARG)
;;     ___ftadd
;;       ___ftpack
;;       ___lbmod (ARG)
;;       ___bmul (ARG)
;;         ___lbmod (ARG)
;;         ___lbdiv (ARG)
;;           ___lbmod (ARG)
;;       ___lbdiv (ARG)
;;         ___lbmod (ARG)
;;       ___ftmul (ARG)
;;         ___ftpack
;;         ___altoft (ARG)
;;           ___ftpack
;;         ___fttol (ARG)
;;           ___ftpack (ARG)
;;           ___awmod (ARG)
;;           ___awdiv (ARG)
;;             ___awmod (ARG)
;;           ___bmul (ARG)
;;             ___lbmod (ARG)
;;             ___lbdiv (ARG)
;;               ___lbmod (ARG)
;;         ___awdiv (ARG)
;;           ___awmod (ARG)
;;         ___awmod (ARG)
;;         ___bmul (ARG)
;;           ___lbmod (ARG)
;;           ___lbdiv (ARG)
;;             ___lbmod (ARG)
;;         ___lbdiv (ARG)
;;           ___lbmod (ARG)
;;         ___lbmod (ARG)
;;     ___fttol
;;       ___ftpack (ARG)
;;       ___awmod (ARG)
;;       ___awdiv (ARG)
;;         ___awmod (ARG)
;;       ___bmul (ARG)
;;         ___lbmod (ARG)
;;         ___lbdiv (ARG)
;;           ___lbmod (ARG)
;;     __div_to_l_
;;     __tdiv_to_l_
;;     ___lltoft
;;       ___ftpack
;;     ___ftsub
;;       ___ftadd
;;         ___ftpack
;;         ___lbmod (ARG)
;;         ___bmul (ARG)
;;           ___lbmod (ARG)
;;           ___lbdiv (ARG)
;;             ___lbmod (ARG)
;;         ___lbdiv (ARG)
;;           ___lbmod (ARG)
;;         ___ftmul (ARG)
;;           ___ftpack
;;           ___altoft (ARG)
;;             ___ftpack
;;           ___fttol (ARG)
;;             ___ftpack (ARG)
;;             ___awmod (ARG)
;;             ___awdiv (ARG)
;;               ___awmod (ARG)
;;             ___bmul (ARG)
;;               ___lbmod (ARG)
;;               ___lbdiv (ARG)
;;                 ___lbmod (ARG)
;;           ___awdiv (ARG)
;;             ___awmod (ARG)
;;           ___awmod (ARG)
;;           ___bmul (ARG)
;;             ___lbmod (ARG)
;;             ___lbdiv (ARG)
;;               ___lbmod (ARG)
;;           ___lbdiv (ARG)
;;             ___lbmod (ARG)
;;           ___lbmod (ARG)
;;       ___lltoft (ARG)
;;         ___ftpack
;;     ___lldiv
;;     ___llmod
;;       ___lldiv (ARG)
;;
;; _ngat (ROOT)
;;

;; Address spaces:

;;Name               Size   Autos  Total    Cost      Usage
;;BITCOMMON            E      0       0       0        0.0%
;;EEDATA             100      0       0       0        0.0%
;;NULL                 0      0       0       0        0.0%
;;CODE                 0      0       0       0        0.0%
;;COMMON               E      C       C       1       85.7%
;;BITSFR0              0      0       0       1        0.0%
;;SFR0                 0      0       0       1        0.0%
;;BITSFR1              0      0       0       2        0.0%
;;SFR1                 0      0       0       2        0.0%
;;STACK                0      0       5       2        0.0%
;;ABS                  0      0      70       3        0.0%
;;BITBANK0            50      0       0       4        0.0%
;;BITSFR3              0      0       0       4        0.0%
;;SFR3                 0      0       0       4        0.0%
;;BANK0               50     42      4B       5       93.8%
;;BITSFR2              0      0       0       5        0.0%
;;SFR2                 0      0       0       5        0.0%
;;BITBANK1            50      0       0       6        0.0%
;;BANK1               50     19      19       7       31.3%
;;BITBANK3            60      0       0       8        0.0%
;;BANK3               60      0       0       9        0.0%
;;BITBANK2            60      0       0      10        0.0%
;;BANK2               60      0       0      11        0.0%
;;DATA                 0      0      75      12        0.0%

	global	_main
psect	maintext,global,class=CODE,delta=2
global __pmaintext
__pmaintext:

;; *************** function _main *****************
;; Defined at:
;;		line 17 in file "D:\TTVXL\Project TTVXL\BT02week14ttvxl\BT02week14ttvxl.c"
;; Parameters:    Size  Location     Type
;;		None
;; Auto vars:     Size  Location     Type
;;		None
;; Return value:  Size  Location     Type
;;		None               void
;; Registers used:
;;		wreg, fsr0l, fsr0h, status,2, status,0, btemp+1, pclath, cstack
;; Tracked objects:
;;		On entry : 17F/0
;;		On exit  : 60/20
;;		Unchanged: 0/0
;; Data sizes:     COMMON   BANK0   BANK1   BANK3   BANK2
;;      Params:         0       0       0       0       0
;;      Locals:         0       0       0       0       0
;;      Temps:          0       3       0       0       0
;;      Totals:         0       3       0       0       0
;;Total ram usage:        3 bytes
;; Hardware stack levels required when called:    6
;; This function calls:
;;		_lcd_init
;;		___altoft
;;		___ftmul
;;		_lcd_gotoxy
;;		_printf
;; This function is called by:
;;		Startup code after reset
;; This function uses a non-reentrant model
;;
psect	maintext
	file	"D:\TTVXL\Project TTVXL\BT02week14ttvxl\BT02week14ttvxl.c"
	line	17
	global	__size_of_main
	__size_of_main	equ	__end_of_main-_main
	
_main:	
	opt	stack 2
; Regs used in _main: [wreg-fsr0h+status,2+status,0+btemp+1+pclath+cstack]
	line	19
	
l7110:	
;BT02week14ttvxl.c: 19: ANSEL = ANSELH = 0;
	bsf	status, 5	;RP0=1, select bank3
	bsf	status, 6	;RP1=1, select bank3
	clrf	(393)^0180h	;volatile
	clrf	(392)^0180h	;volatile
	line	20
	
l7112:	
;BT02week14ttvxl.c: 20: lcd_init();
	fcall	_lcd_init
	line	21
	
l7114:	
;BT02week14ttvxl.c: 21: TRISE0 = 0; RE0 = 1;
	bsf	status, 5	;RP0=1, select bank1
	bcf	(1096/8)^080h,(1096)&7
	
l7116:	
	bcf	status, 5	;RP0=0, select bank0
	bsf	(72/8),(72)&7
	line	22
	
l7118:	
;BT02week14ttvxl.c: 22: TRISE1 = 0; RE0 = 0;
	bsf	status, 5	;RP0=1, select bank1
	bcf	(1097/8)^080h,(1097)&7
	
l7120:	
	bcf	status, 5	;RP0=0, select bank0
	bcf	(72/8),(72)&7
	line	24
	
l7122:	
;BT02week14ttvxl.c: 24: TMR1CS = 0;
	bcf	(129/8),(129)&7
	line	25
	
l7124:	
;BT02week14ttvxl.c: 25: T1CKPS1 = 0;T1CKPS0 = 0;
	bcf	(133/8),(133)&7
	
l7126:	
	bcf	(132/8),(132)&7
	line	26
	
l7128:	
;BT02week14ttvxl.c: 26: T1SYNC = 1;
	bsf	(130/8),(130)&7
	line	27
	
l7130:	
;BT02week14ttvxl.c: 27: TMR1GE = 0;
	bcf	(134/8),(134)&7
	line	28
	
l7132:	
;BT02week14ttvxl.c: 28: TMR1H = TMR1L = 0;
	clrf	(14)	;volatile
	clrf	(15)	;volatile
	line	29
	
l7134:	
;BT02week14ttvxl.c: 29: TMR1ON = 0;
	bcf	(128/8),(128)&7
	line	31
	
l7136:	
;BT02week14ttvxl.c: 31: TRISB1 = 1;
	bsf	status, 5	;RP0=1, select bank1
	bsf	(1073/8)^080h,(1073)&7
	line	32
	
l7138:	
;BT02week14ttvxl.c: 32: IOCB = 0b00000010;
	movlw	(02h)
	movwf	(150)^080h	;volatile
	line	33
	
l7140:	
;BT02week14ttvxl.c: 33: WPUB = 0b00000010;
	movlw	(02h)
	movwf	(149)^080h	;volatile
	line	34
	
l7142:	
;BT02week14ttvxl.c: 34: nRBPU = 0;
	bcf	(1039/8)^080h,(1039)&7
	line	35
	
l7144:	
;BT02week14ttvxl.c: 35: RBIE = 1; RBIF = 0; GIE = 1;
	bsf	(91/8),(91)&7
	
l7146:	
	bcf	(88/8),(88)&7
	
l7148:	
	bsf	(95/8),(95)&7
	line	39
	
l7150:	
;BT02week14ttvxl.c: 38: {
;BT02week14ttvxl.c: 39: _delay((unsigned long)((100)*(20000000/4000.0)));
	opt asmopt_off
movlw  3
	bcf	status, 5	;RP0=0, select bank0
movwf	((??_main+0)+0+2),f
movlw	138
movwf	((??_main+0)+0+1),f
	movlw	86
movwf	((??_main+0)+0),f
u3937:
	decfsz	((??_main+0)+0),f
	goto	u3937
	decfsz	((??_main+0)+0+1),f
	goto	u3937
	decfsz	((??_main+0)+0+2),f
	goto	u3937
	nop2
opt asmopt_on

	line	40
	
l7152:	
;BT02week14ttvxl.c: 40: RE1 = 1;
	bcf	status, 5	;RP0=0, select bank0
	bcf	status, 6	;RP1=0, select bank0
	bsf	(73/8),(73)&7
	line	41
	
l7154:	
;BT02week14ttvxl.c: 41: _delay((unsigned long)((1)*(20000000/4000.0)));
	opt asmopt_off
movlw	7
movwf	((??_main+0)+0+1),f
	movlw	125
movwf	((??_main+0)+0),f
u3947:
	decfsz	((??_main+0)+0),f
	goto	u3947
	decfsz	((??_main+0)+0+1),f
	goto	u3947
opt asmopt_on

	line	42
	
l7156:	
;BT02week14ttvxl.c: 42: RE1 = 0;
	bcf	status, 5	;RP0=0, select bank0
	bcf	status, 6	;RP1=0, select bank0
	bcf	(73/8),(73)&7
	line	45
	
l7158:	
;BT02week14ttvxl.c: 45: xung = count;
	movf	(_count),w
	movwf	(_xung)
	movf	(_count+1),w
	movwf	((_xung))+1
	clrf	2+((_xung))
	clrf	3+((_xung))
	line	46
	
l7160:	
;BT02week14ttvxl.c: 46: d = (17000.0*xung*(1.0/5000000.0));
	movlw	0xd3
	movwf	(?___ftmul)
	movlw	0x5e
	movwf	(?___ftmul+1)
	movlw	0x3b
	movwf	(?___ftmul+2)
	movf	(_xung+3),w
	movwf	(?___altoft+3)
	movf	(_xung+2),w
	movwf	(?___altoft+2)
	movf	(_xung+1),w
	movwf	(?___altoft+1)
	movf	(_xung),w
	movwf	(?___altoft)

	fcall	___altoft
	movf	(0+(?___altoft)),w
	movwf	0+(?___ftmul)+03h
	movf	(1+(?___altoft)),w
	movwf	1+(?___ftmul)+03h
	movf	(2+(?___altoft)),w
	movwf	2+(?___ftmul)+03h
	fcall	___ftmul
	movf	(0+(?___ftmul)),w
	movwf	(_d)
	movf	(1+(?___ftmul)),w
	movwf	(_d+1)
	movf	(2+(?___ftmul)),w
	movwf	(_d+2)
	line	47
	
l7162:	
;BT02week14ttvxl.c: 47: lcd_gotoxy(0,0);
	clrf	(?_lcd_gotoxy)
	movlw	(0)
	fcall	_lcd_gotoxy
	line	48
	
l7164:	
;BT02week14ttvxl.c: 48: printf("xung: %05u",xung);
	movf	(_xung+3),w
	movwf	(?_printf+3)
	movf	(_xung+2),w
	movwf	(?_printf+2)
	movf	(_xung+1),w
	movwf	(?_printf+1)
	movf	(_xung),w
	movwf	(?_printf)

	movlw	((STR_1-__stringbase))&0ffh
	fcall	_printf
	line	49
	
l7166:	
;BT02week14ttvxl.c: 49: lcd_gotoxy(0,1);
	clrf	(?_lcd_gotoxy)
	incf	(?_lcd_gotoxy),f
	movlw	(0)
	fcall	_lcd_gotoxy
	line	50
	
l7168:	
;BT02week14ttvxl.c: 50: printf("d: %3.2f",d);
	movf	(_d),w
	movwf	(?_printf)
	movf	(_d+1),w
	movwf	(?_printf+1)
	movf	(_d+2),w
	movwf	(?_printf+2)
	movlw	((STR_2-__stringbase))&0ffh
	fcall	_printf
	goto	l7150
	global	start
	ljmp	start
	opt stack 0
psect	maintext
	line	52
GLOBAL	__end_of_main
	__end_of_main:
;; =============== function _main ends ============

	signat	_main,88
	global	_printf
psect	text519,local,class=CODE,delta=2
global __ptext519
__ptext519:

;; *************** function _printf *****************
;; Defined at:
;;		line 461 in file "C:\Program Files (x86)\HI-TECH Software\PICC\9.83\lib\doprnt.c"
;; Parameters:    Size  Location     Type
;;  f               1    wreg     PTR const unsigned char 
;;		 -> STR_2(9), STR_1(11), 
;; Auto vars:     Size  Location     Type
;;  f               1   12[BANK1 ] PTR const unsigned char 
;;		 -> STR_2(9), STR_1(11), 
;;  _val            4    8[BANK1 ] struct .
;;  fval            3   19[BANK1 ] struct .
;;  integ           3    5[BANK1 ] struct .
;;  ival            3    0        struct .
;;  prec            2   22[BANK1 ] int 
;;  width           2   17[BANK1 ] int 
;;  exp             2   15[BANK1 ] int 
;;  flag            2   13[BANK1 ] unsigned short 
;;  c               1   24[BANK1 ] char 
;;  ap              1    4[BANK1 ] PTR void [1]
;;		 -> ?_printf(2), 
;;  d               1    0        unsigned char 
;; Return value:  Size  Location     Type
;;                  2   54[BANK0 ] int 
;; Registers used:
;;		wreg, fsr0l, fsr0h, status,2, status,0, btemp+1, pclath, cstack
;; Tracked objects:
;;		On entry : 60/0
;;		On exit  : 60/20
;;		Unchanged: 0/0
;; Data sizes:     COMMON   BANK0   BANK1   BANK3   BANK2
;;      Params:         0       4       0       0       0
;;      Locals:         0       0      25       0       0
;;      Temps:          0       5       0       0       0
;;      Totals:         0       9      25       0       0
;;Total ram usage:       34 bytes
;; Hardware stack levels used:    1
;; Hardware stack levels required when called:    5
;; This function calls:
;;		_putch
;;		_isdigit
;;		___wmul
;;		___ftge
;;		___ftneg
;;		___awdiv
;;		_scale
;;		___ftmul
;;		_fround
;;		___ftadd
;;		___fttol
;;		__div_to_l_
;;		__tdiv_to_l_
;;		___lltoft
;;		___ftsub
;;		___lldiv
;;		___llmod
;; This function is called by:
;;		_main
;; This function uses a non-reentrant model
;;
psect	text519
	file	"C:\Program Files (x86)\HI-TECH Software\PICC\9.83\sources\doprnt.c"
	line	461
	global	__size_of_printf
	__size_of_printf	equ	__end_of_printf-_printf
	
_printf:	
	opt	stack 2
; Regs used in _printf: [wreg-fsr0h+status,2+status,0+btemp+1+pclath+cstack]
;printf@f stored from wreg
	line	537
	bsf	status, 5	;RP0=1, select bank1
	movwf	(printf@f)^080h
	
l6830:	
	movlw	(?_printf)&0ffh
	movwf	(printf@ap)^080h
	line	540
	goto	l7108
	line	542
	
l6832:	
	movf	(printf@c)^080h,w
	xorlw	025h
	skipnz
	goto	u3401
	goto	u3400
u3401:
	goto	l6836
u3400:
	line	545
	
l6834:	
	movf	(printf@c)^080h,w
	fcall	_putch
	line	546
	goto	l7108
	line	550
	
l6836:	
	clrf	(printf@width)^080h
	clrf	(printf@width+1)^080h
	line	552
	clrf	(printf@flag)^080h
	clrf	(printf@flag+1)^080h
	goto	l6842
	line	583
	
l2199:	
	line	584
	bsf	(printf@flag)^080h+(2/8),(2)&7
	line	585
	
l6838:	
	incf	(printf@f)^080h,f
	line	555
	
l6842:	
	movf	(printf@f)^080h,w
	movwf	fsr0
	fcall	stringdir
	; Switch size 1, requested type "space"
; Number of cases is 1, Range of values is 48 to 48
; switch strategies available:
; Name         Instructions Cycles
; simple_byte            4     3 (average)
; direct_byte           14    11 (fixed)
; jumptable            263     9 (fixed)
;	Chosen strategy is simple_byte

	opt asmopt_off
	xorlw	48^0	; case 48
	skipnz
	goto	l2199
	goto	l6844
	opt asmopt_on

	line	601
	
l6844:	
	movf	(printf@f)^080h,w
	movwf	fsr0
	fcall	stringdir
	fcall	_isdigit
	btfss	status,0
	goto	u3411
	goto	u3410
u3411:
	goto	l6854
u3410:
	line	602
	
l6846:	
	clrf	(printf@width)^080h
	clrf	(printf@width+1)^080h
	line	604
	
l6848:	
	movf	(printf@width+1)^080h,w
	movwf	(?___wmul+1)
	movf	(printf@width)^080h,w
	movwf	(?___wmul)
	movlw	0Ah
	movwf	0+(?___wmul)+02h
	clrf	1+(?___wmul)+02h
	fcall	___wmul
	movf	(printf@f)^080h,w
	movwf	fsr0
	fcall	stringdir
	addwf	(0+(?___wmul)),w
	bcf	status, 5	;RP0=0, select bank0
	movwf	(??_printf+0)+0
	movlw	0
	skipnc
	movlw	1
	addwf	(1+(?___wmul)),w
	movwf	1+(??_printf+0)+0
	movf	0+(??_printf+0)+0,w
	addlw	low(0FFD0h)
	bsf	status, 5	;RP0=1, select bank1
	movwf	(printf@width)^080h
	bcf	status, 5	;RP0=0, select bank0
	movf	1+(??_printf+0)+0,w
	skipnc
	addlw	1
	addlw	high(0FFD0h)
	bsf	status, 5	;RP0=1, select bank1
	movwf	1+(printf@width)^080h
	
l6850:	
	incf	(printf@f)^080h,f
	line	605
	
l6852:	
	movf	(printf@f)^080h,w
	movwf	fsr0
	fcall	stringdir
	fcall	_isdigit
	btfsc	status,0
	goto	u3421
	goto	u3420
u3421:
	goto	l6848
u3420:
	line	614
	
l6854:	
	movf	(printf@f)^080h,w
	movwf	fsr0
	fcall	stringdir
	xorlw	02Eh
	skipz
	goto	u3431
	goto	u3430
u3431:
	goto	l6868
u3430:
	line	615
	
l6856:	
	bsf	(printf@flag)^080h+(14/8),(14)&7
	line	616
	
l6858:	
	incf	(printf@f)^080h,f
	line	624
	
l6860:	
	clrf	(printf@prec)^080h
	clrf	(printf@prec+1)^080h
	line	625
	goto	l6866
	line	626
	
l6862:	
	movf	(printf@prec+1)^080h,w
	movwf	(?___wmul+1)
	movf	(printf@prec)^080h,w
	movwf	(?___wmul)
	movlw	0Ah
	movwf	0+(?___wmul)+02h
	clrf	1+(?___wmul)+02h
	fcall	___wmul
	movf	(printf@f)^080h,w
	movwf	fsr0
	fcall	stringdir
	addwf	(0+(?___wmul)),w
	bcf	status, 5	;RP0=0, select bank0
	movwf	(??_printf+0)+0
	movlw	0
	skipnc
	movlw	1
	addwf	(1+(?___wmul)),w
	movwf	1+(??_printf+0)+0
	movf	0+(??_printf+0)+0,w
	addlw	low(0FFD0h)
	bsf	status, 5	;RP0=1, select bank1
	movwf	(printf@prec)^080h
	bcf	status, 5	;RP0=0, select bank0
	movf	1+(??_printf+0)+0,w
	skipnc
	addlw	1
	addlw	high(0FFD0h)
	bsf	status, 5	;RP0=1, select bank1
	movwf	1+(printf@prec)^080h
	
l6864:	
	incf	(printf@f)^080h,f
	line	625
	
l6866:	
	movf	(printf@f)^080h,w
	movwf	fsr0
	fcall	stringdir
	fcall	_isdigit
	btfsc	status,0
	goto	u3441
	goto	u3440
u3441:
	goto	l6862
u3440:
	goto	l6876
	line	629
	
l6868:	
	clrf	(printf@prec)^080h
	clrf	(printf@prec+1)^080h
	line	631
	
l6870:	
	bsf	(printf@flag)^080h+(12/8),(12)&7
	goto	l6876
	line	665
	
l2214:	
	line	666
	bsf	(printf@flag)^080h+(10/8),(10)&7
	line	667
	goto	l6878
	line	821
	
l6872:	
	movlw	0C0h
	iorwf	(printf@flag)^080h,f
	line	822
	goto	l6878
	line	638
	
l6876:	
	movf	(printf@f)^080h,w
	incf	(printf@f)^080h,f
	movwf	fsr0
	fcall	stringdir
	movwf	(printf@c)^080h
	; Switch size 1, requested type "space"
; Number of cases is 3, Range of values is 0 to 117
; switch strategies available:
; Name         Instructions Cycles
; simple_byte           10     6 (average)
; jumptable            260     6 (fixed)
; rangetable           122     6 (fixed)
; spacedrange          242     9 (fixed)
; locatedrange         118     3 (fixed)
;	Chosen strategy is simple_byte

	opt asmopt_off
	xorlw	0^0	; case 0
	skipnz
	goto	l2293
	xorlw	102^0	; case 102
	skipnz
	goto	l2214
	xorlw	117^102	; case 117
	skipnz
	goto	l6872
	goto	l7108
	opt asmopt_on

	line	828
	
l6878:	
	movlw	low(0700h)
	andwf	(printf@flag)^080h,w
	bcf	status, 5	;RP0=0, select bank0
	movwf	(??_printf+0)+0
	movlw	high(0700h)
	bsf	status, 5	;RP0=1, select bank1
	andwf	(printf@flag+1)^080h,w
	bcf	status, 5	;RP0=0, select bank0
	movwf	1+(??_printf+0)+0
	movf	1+(??_printf+0)+0,w
	iorwf	0+(??_printf+0)+0,w
	skipnz
	goto	u3451
	goto	u3450
u3451:
	goto	l7030
u3450:
	line	830
	
l6880:	
	bsf	status, 5	;RP0=1, select bank1
	btfss	(printf@flag+1)^080h,(12)&7
	goto	u3461
	goto	u3460
u3461:
	goto	l6884
u3460:
	line	832
	
l6882:	
	movlw	06h
	movwf	(printf@prec)^080h
	clrf	(printf@prec+1)^080h
	line	833
	
l6884:	
	movf	(printf@ap)^080h,w
	movwf	fsr0
	bcf	status, 7	;select IRP bank0
	movf	indf,w
	movwf	(printf@fval)^080h
	incf	fsr0,f
	movf	indf,w
	movwf	(printf@fval+1)^080h
	incf	fsr0,f
	movf	indf,w
	movwf	(printf@fval+2)^080h
	
l6886:	
	movlw	(03h)
	addwf	(printf@ap)^080h,f
	line	834
	
l6888:	
	movf	(printf@fval)^080h,w
	movwf	(?___ftge)
	movf	(printf@fval+1)^080h,w
	movwf	(?___ftge+1)
	movf	(printf@fval+2)^080h,w
	movwf	(?___ftge+2)
	clrf	0+(?___ftge)+03h
	clrf	1+(?___ftge)+03h
	clrf	2+(?___ftge)+03h
	fcall	___ftge
	btfsc	status,0
	goto	u3471
	goto	u3470
u3471:
	goto	l6894
u3470:
	line	835
	
l6890:	
	movf	(printf@fval)^080h,w
	movwf	(?___ftneg)
	movf	(printf@fval+1)^080h,w
	movwf	(?___ftneg+1)
	movf	(printf@fval+2)^080h,w
	movwf	(?___ftneg+2)
	fcall	___ftneg
	movf	(0+(?___ftneg)),w
	movwf	(printf@fval)^080h
	movf	(1+(?___ftneg)),w
	movwf	(printf@fval+1)^080h
	movf	(2+(?___ftneg)),w
	movwf	(printf@fval+2)^080h
	line	836
	
l6892:	
	movlw	03h
	iorwf	(printf@flag)^080h,f
	line	838
	
l6894:	
	clrf	(printf@exp)^080h
	clrf	(printf@exp+1)^080h
	line	839
	
l6896:	
	movf	(printf@fval+2)^080h,w
	iorwf	(printf@fval+1)^080h,w
	iorwf	(printf@fval)^080h,w
	skipnz
	goto	u3481
	goto	u3480
u3481:
	goto	l6926
u3480:
	line	840
	
l6898:	
	movlw	low(printf@fval)
	movwf	fsr0
	movf	indf,w
	bcf	status, 5	;RP0=0, select bank0
	movwf	(??_printf+0)+0+0
	incf	fsr0,f
	movf	indf,w
	movwf	(??_printf+0)+0+1
	incf	fsr0,f
	movf	indf,w
	movwf	(??_printf+0)+0+2
	incf	fsr0,f
	movf	indf,w
	movwf	(??_printf+0)+0+3
	movlw	0Fh
u3495:
	clrc
	rrf	(??_printf+0)+3,f
	rrf	(??_printf+0)+2,f
	rrf	(??_printf+0)+1,f
	rrf	(??_printf+0)+0,f
u3490:
	addlw	-1
	skipz
	goto	u3495
	movf	1+(??_printf+0)+0,w
	bsf	status, 5	;RP0=1, select bank1
	movwf	(printf@exp+1)^080h
	bcf	status, 5	;RP0=0, select bank0
	movf	0+(??_printf+0)+0,w
	bsf	status, 5	;RP0=1, select bank1
	movwf	(printf@exp)^080h
	
l6900:	
	movlw	0FFh
	andwf	(printf@exp)^080h,f
	clrf	(printf@exp+1)^080h
	
l6902:	
	movlw	-126
	addwf	(printf@exp)^080h,f
	skipc
	decf	(printf@exp+1)^080h,f
	line	841
	
l6904:	
	movlw	-1
	addwf	(printf@exp)^080h,f
	skipc
	decf	(printf@exp+1)^080h,f
	line	842
	
l6906:	
	movlw	03h
	movwf	(?___wmul)
	clrf	(?___wmul+1)
	movf	(printf@exp+1)^080h,w
	movwf	1+(?___wmul)+02h
	movf	(printf@exp)^080h,w
	movwf	0+(?___wmul)+02h
	fcall	___wmul
	movf	(1+(?___wmul)),w
	movwf	(printf@exp+1)^080h
	movf	(0+(?___wmul)),w
	movwf	(printf@exp)^080h
	line	843
	
l6908:	
	movlw	0Ah
	movwf	(?___awdiv)
	clrf	(?___awdiv+1)
	movf	(printf@exp+1)^080h,w
	movwf	1+(?___awdiv)+02h
	movf	(printf@exp)^080h,w
	movwf	0+(?___awdiv)+02h
	fcall	___awdiv
	movf	(1+(?___awdiv)),w
	bsf	status, 5	;RP0=1, select bank1
	movwf	(printf@exp+1)^080h
	movf	(0+(?___awdiv)),w
	movwf	(printf@exp)^080h
	line	844
	
l6910:	
	btfss	(printf@exp+1)^080h,7
	goto	u3501
	goto	u3500
u3501:
	goto	l6914
u3500:
	line	845
	
l6912:	
	movlw	-1
	addwf	(printf@exp)^080h,f
	skipc
	decf	(printf@exp+1)^080h,f
	line	849
	
l6914:	
	decf	(printf@exp)^080h,w
	xorlw	0ffh
	fcall	_scale
	movf	(0+(?_scale)),w
	bsf	status, 5	;RP0=1, select bank1
	movwf	(printf@integ)^080h
	bcf	status, 5	;RP0=0, select bank0
	movf	(1+(?_scale)),w
	bsf	status, 5	;RP0=1, select bank1
	movwf	(printf@integ+1)^080h
	bcf	status, 5	;RP0=0, select bank0
	movf	(2+(?_scale)),w
	bsf	status, 5	;RP0=1, select bank1
	movwf	(printf@integ+2)^080h
	line	850
	
l6916:	
	movf	(printf@fval)^080h,w
	bcf	status, 5	;RP0=0, select bank0
	movwf	(?___ftmul)
	bsf	status, 5	;RP0=1, select bank1
	movf	(printf@fval+1)^080h,w
	bcf	status, 5	;RP0=0, select bank0
	movwf	(?___ftmul+1)
	bsf	status, 5	;RP0=1, select bank1
	movf	(printf@fval+2)^080h,w
	bcf	status, 5	;RP0=0, select bank0
	movwf	(?___ftmul+2)
	bsf	status, 5	;RP0=1, select bank1
	movf	(printf@integ)^080h,w
	bcf	status, 5	;RP0=0, select bank0
	movwf	0+(?___ftmul)+03h
	bsf	status, 5	;RP0=1, select bank1
	movf	(printf@integ+1)^080h,w
	bcf	status, 5	;RP0=0, select bank0
	movwf	1+(?___ftmul)+03h
	bsf	status, 5	;RP0=1, select bank1
	movf	(printf@integ+2)^080h,w
	bcf	status, 5	;RP0=0, select bank0
	movwf	2+(?___ftmul)+03h
	fcall	___ftmul
	movf	(0+(?___ftmul)),w
	bsf	status, 5	;RP0=1, select bank1
	movwf	(printf@integ)^080h
	bcf	status, 5	;RP0=0, select bank0
	movf	(1+(?___ftmul)),w
	bsf	status, 5	;RP0=1, select bank1
	movwf	(printf@integ+1)^080h
	bcf	status, 5	;RP0=0, select bank0
	movf	(2+(?___ftmul)),w
	bsf	status, 5	;RP0=1, select bank1
	movwf	(printf@integ+2)^080h
	line	851
	
l6918:	
	movf	(printf@integ)^080h,w
	movwf	(?___ftge)
	movf	(printf@integ+1)^080h,w
	movwf	(?___ftge+1)
	movf	(printf@integ+2)^080h,w
	movwf	(?___ftge+2)
	movlw	0x0
	movwf	0+(?___ftge)+03h
	movlw	0x80
	movwf	1+(?___ftge)+03h
	movlw	0x3f
	movwf	2+(?___ftge)+03h
	fcall	___ftge
	btfsc	status,0
	goto	u3511
	goto	u3510
u3511:
	goto	l6922
u3510:
	line	852
	
l6920:	
	movlw	-1
	addwf	(printf@exp)^080h,f
	skipc
	decf	(printf@exp+1)^080h,f
	goto	l6926
	line	853
	
l6922:	
	movf	(printf@integ)^080h,w
	movwf	(?___ftge)
	movf	(printf@integ+1)^080h,w
	movwf	(?___ftge+1)
	movf	(printf@integ+2)^080h,w
	movwf	(?___ftge+2)
	movlw	0x0
	movwf	0+(?___ftge)+03h
	movlw	0x20
	movwf	1+(?___ftge)+03h
	movlw	0x41
	movwf	2+(?___ftge)+03h
	fcall	___ftge
	btfss	status,0
	goto	u3521
	goto	u3520
u3521:
	goto	l6926
u3520:
	line	854
	
l6924:	
	incf	(printf@exp)^080h,f
	skipnz
	incf	(printf@exp+1)^080h,f
	line	1115
	
l6926:	
	movf	(printf@prec+1)^080h,w
	xorlw	80h
	movwf	btemp+1
	movlw	(high(0Dh))^80h
	subwf	btemp+1,w
	skipz
	goto	u3535
	movlw	low(0Dh)
	subwf	(printf@prec)^080h,w
u3535:

	skipnc
	goto	u3531
	goto	u3530
u3531:
	goto	l6930
u3530:
	line	1116
	
l6928:	
	bsf	status, 5	;RP0=1, select bank1
	bcf	status, 6	;RP1=0, select bank1
	movf	(printf@prec)^080h,w
	fcall	_fround
	movf	(0+(?_fround)),w
	movwf	(?___ftadd)
	movf	(1+(?_fround)),w
	movwf	(?___ftadd+1)
	movf	(2+(?_fround)),w
	movwf	(?___ftadd+2)
	bsf	status, 5	;RP0=1, select bank1
	movf	(printf@fval)^080h,w
	bcf	status, 5	;RP0=0, select bank0
	movwf	0+(?___ftadd)+03h
	bsf	status, 5	;RP0=1, select bank1
	movf	(printf@fval+1)^080h,w
	bcf	status, 5	;RP0=0, select bank0
	movwf	1+(?___ftadd)+03h
	bsf	status, 5	;RP0=1, select bank1
	movf	(printf@fval+2)^080h,w
	bcf	status, 5	;RP0=0, select bank0
	movwf	2+(?___ftadd)+03h
	fcall	___ftadd
	movf	(0+(?___ftadd)),w
	bsf	status, 5	;RP0=1, select bank1
	movwf	(printf@fval)^080h
	bcf	status, 5	;RP0=0, select bank0
	movf	(1+(?___ftadd)),w
	bsf	status, 5	;RP0=1, select bank1
	movwf	(printf@fval+1)^080h
	bcf	status, 5	;RP0=0, select bank0
	movf	(2+(?___ftadd)),w
	bsf	status, 5	;RP0=1, select bank1
	movwf	(printf@fval+2)^080h
	line	1119
	
l6930:	
	bsf	status, 5	;RP0=1, select bank1
	bcf	status, 6	;RP1=0, select bank1
	movf	(printf@exp+1)^080h,w
	xorlw	80h
	movwf	btemp+1
	movlw	(high(0Ah))^80h
	subwf	btemp+1,w
	skipz
	goto	u3545
	movlw	low(0Ah)
	subwf	(printf@exp)^080h,w
u3545:

	skipnc
	goto	u3541
	goto	u3540
u3541:
	goto	l6938
u3540:
	
l6932:	
	bsf	status, 5	;RP0=1, select bank1
	bcf	status, 6	;RP1=0, select bank1
	movf	(printf@fval+2)^080h,w
	iorwf	(printf@fval+1)^080h,w
	iorwf	(printf@fval)^080h,w
	skipnz
	goto	u3551
	goto	u3550
u3551:
	goto	l6954
u3550:
	
l6934:	
	movf	(printf@fval)^080h,w
	bcf	status, 5	;RP0=0, select bank0
	movwf	(?___fttol)
	bsf	status, 5	;RP0=1, select bank1
	movf	(printf@fval+1)^080h,w
	bcf	status, 5	;RP0=0, select bank0
	movwf	(?___fttol+1)
	bsf	status, 5	;RP0=1, select bank1
	movf	(printf@fval+2)^080h,w
	bcf	status, 5	;RP0=0, select bank0
	movwf	(?___fttol+2)
	fcall	___fttol
	movf	(3+(?___fttol)),w
	iorwf	(2+(?___fttol)),w
	iorwf	(1+(?___fttol)),w
	iorwf	(0+(?___fttol)),w
	skipz
	goto	u3561
	goto	u3560
u3561:
	goto	l6954
u3560:
	
l6936:	
	bsf	status, 5	;RP0=1, select bank1
	movf	(printf@exp+1)^080h,w
	xorlw	80h
	movwf	btemp+1
	movlw	(high(02h))^80h
	subwf	btemp+1,w
	skipz
	goto	u3575
	movlw	low(02h)
	subwf	(printf@exp)^080h,w
u3575:

	skipc
	goto	u3571
	goto	u3570
u3571:
	goto	l6954
u3570:
	line	1123
	
l6938:	
	bsf	status, 5	;RP0=1, select bank1
	bcf	status, 6	;RP1=0, select bank1
	movf	(printf@integ)^080h,w
	movwf	(?___ftge)
	movf	(printf@integ+1)^080h,w
	movwf	(?___ftge+1)
	movf	(printf@integ+2)^080h,w
	movwf	(?___ftge+2)
	movlw	0x70
	movwf	0+(?___ftge)+03h
	movlw	0x89
	movwf	1+(?___ftge)+03h
	movlw	0x40
	movwf	2+(?___ftge)+03h
	fcall	___ftge
	btfsc	status,0
	goto	u3581
	goto	u3580
u3581:
	goto	l6942
u3580:
	line	1124
	
l6940:	
	movlw	-9
	addwf	(printf@exp)^080h,f
	skipc
	decf	(printf@exp+1)^080h,f
	line	1125
	goto	l6944
	line	1126
	
l6942:	
	movlw	-8
	addwf	(printf@exp)^080h,f
	skipc
	decf	(printf@exp+1)^080h,f
	line	1128
	
l6944:	
	movf	(printf@exp)^080h,w
	fcall	_scale
	movf	(0+(?_scale)),w
	bsf	status, 5	;RP0=1, select bank1
	movwf	(printf@integ)^080h
	bcf	status, 5	;RP0=0, select bank0
	movf	(1+(?_scale)),w
	bsf	status, 5	;RP0=1, select bank1
	movwf	(printf@integ+1)^080h
	bcf	status, 5	;RP0=0, select bank0
	movf	(2+(?_scale)),w
	bsf	status, 5	;RP0=1, select bank1
	movwf	(printf@integ+2)^080h
	line	1129
	
l6948:	
	movf	(printf@fval)^080h,w
	movwf	(?__tdiv_to_l_)
	movf	(printf@fval+1)^080h,w
	movwf	(?__tdiv_to_l_+1)
	movf	(printf@fval+2)^080h,w
	movwf	(?__tdiv_to_l_+2)
	movf	(printf@integ)^080h,w
	movwf	0+(?__tdiv_to_l_)+03h
	movf	(printf@integ+1)^080h,w
	movwf	1+(?__tdiv_to_l_)+03h
	movf	(printf@integ+2)^080h,w
	movwf	2+(?__tdiv_to_l_)+03h
	fcall	__tdiv_to_l_
	movf	(3+(?__tdiv_to_l_)),w
	bsf	status, 5	;RP0=1, select bank1
	movwf	(_printf$3163+3)^080h
	movf	(2+(?__tdiv_to_l_)),w
	movwf	(_printf$3163+2)^080h
	movf	(1+(?__tdiv_to_l_)),w
	movwf	(_printf$3163+1)^080h
	movf	(0+(?__tdiv_to_l_)),w
	movwf	(_printf$3163)^080h

	
l6950:	
	movf	(_printf$3163+3)^080h,w
	movwf	(printf@_val+3)^080h
	movf	(_printf$3163+2)^080h,w
	movwf	(printf@_val+2)^080h
	movf	(_printf$3163+1)^080h,w
	movwf	(printf@_val+1)^080h
	movf	(_printf$3163)^080h,w
	movwf	(printf@_val)^080h

	line	1132
	
l6952:	
	clrf	(printf@fval)^080h
	clrf	(printf@fval+1)^080h
	clrf	(printf@fval+2)^080h
	line	1133
	goto	l6958
	line	1134
	
l6954:	
	bsf	status, 5	;RP0=1, select bank1
	bcf	status, 6	;RP1=0, select bank1
	movf	(printf@fval)^080h,w
	bcf	status, 5	;RP0=0, select bank0
	movwf	(?___fttol)
	bsf	status, 5	;RP0=1, select bank1
	movf	(printf@fval+1)^080h,w
	bcf	status, 5	;RP0=0, select bank0
	movwf	(?___fttol+1)
	bsf	status, 5	;RP0=1, select bank1
	movf	(printf@fval+2)^080h,w
	bcf	status, 5	;RP0=0, select bank0
	movwf	(?___fttol+2)
	fcall	___fttol
	movf	(3+(?___fttol)),w
	bsf	status, 5	;RP0=1, select bank1
	movwf	(printf@_val+3)^080h
	bcf	status, 5	;RP0=0, select bank0
	movf	(2+(?___fttol)),w
	bsf	status, 5	;RP0=1, select bank1
	movwf	(printf@_val+2)^080h
	bcf	status, 5	;RP0=0, select bank0
	movf	(1+(?___fttol)),w
	bsf	status, 5	;RP0=1, select bank1
	movwf	(printf@_val+1)^080h
	bcf	status, 5	;RP0=0, select bank0
	movf	(0+(?___fttol)),w
	bsf	status, 5	;RP0=1, select bank1
	movwf	(printf@_val)^080h

	line	1135
	movf	(printf@_val+3)^080h,w
	bcf	status, 5	;RP0=0, select bank0
	movwf	(?___lltoft+3)
	bsf	status, 5	;RP0=1, select bank1
	movf	(printf@_val+2)^080h,w
	bcf	status, 5	;RP0=0, select bank0
	movwf	(?___lltoft+2)
	bsf	status, 5	;RP0=1, select bank1
	movf	(printf@_val+1)^080h,w
	bcf	status, 5	;RP0=0, select bank0
	movwf	(?___lltoft+1)
	bsf	status, 5	;RP0=1, select bank1
	movf	(printf@_val)^080h,w
	bcf	status, 5	;RP0=0, select bank0
	movwf	(?___lltoft)

	fcall	___lltoft
	movf	(0+(?___lltoft)),w
	movwf	(?___ftsub)
	movf	(1+(?___lltoft)),w
	movwf	(?___ftsub+1)
	movf	(2+(?___lltoft)),w
	movwf	(?___ftsub+2)
	bsf	status, 5	;RP0=1, select bank1
	movf	(printf@fval)^080h,w
	bcf	status, 5	;RP0=0, select bank0
	movwf	0+(?___ftsub)+03h
	bsf	status, 5	;RP0=1, select bank1
	movf	(printf@fval+1)^080h,w
	bcf	status, 5	;RP0=0, select bank0
	movwf	1+(?___ftsub)+03h
	bsf	status, 5	;RP0=1, select bank1
	movf	(printf@fval+2)^080h,w
	bcf	status, 5	;RP0=0, select bank0
	movwf	2+(?___ftsub)+03h
	fcall	___ftsub
	movf	(0+(?___ftsub)),w
	bsf	status, 5	;RP0=1, select bank1
	movwf	(printf@fval)^080h
	bcf	status, 5	;RP0=0, select bank0
	movf	(1+(?___ftsub)),w
	bsf	status, 5	;RP0=1, select bank1
	movwf	(printf@fval+1)^080h
	bcf	status, 5	;RP0=0, select bank0
	movf	(2+(?___ftsub)),w
	bsf	status, 5	;RP0=1, select bank1
	movwf	(printf@fval+2)^080h
	line	1136
	
l6956:	
	clrf	(printf@exp)^080h
	clrf	(printf@exp+1)^080h
	line	1139
	
l6958:	
	clrf	(printf@c)^080h
	incf	(printf@c)^080h,f
	line	1140
	
l6964:	
	movf	(printf@c)^080h,w
	bcf	status, 5	;RP0=0, select bank0
	movwf	(??_printf+0)+0
	clrc
	rlf	(??_printf+0)+0,f
	clrc
	rlf	(??_printf+0)+0,w
	addlw	low((_dpowers-__stringbase))
	movwf	fsr0
	fcall	stringdir
	movwf	((??_printf+1)+0)
	fcall	stringdir
	movwf	((??_printf+1)+0+1)
	fcall	stringdir
	movwf	((??_printf+1)+0+2)
	fcall	stringdir
	movwf	((??_printf+1)+0+3)
	movf	3+(??_printf+1)+0,w
	bsf	status, 5	;RP0=1, select bank1
	subwf	(printf@_val+3)^080h,w
	skipz
	goto	u3595
	bcf	status, 5	;RP0=0, select bank0
	movf	2+(??_printf+1)+0,w
	bsf	status, 5	;RP0=1, select bank1
	subwf	(printf@_val+2)^080h,w
	skipz
	goto	u3595
	bcf	status, 5	;RP0=0, select bank0
	movf	1+(??_printf+1)+0,w
	bsf	status, 5	;RP0=1, select bank1
	subwf	(printf@_val+1)^080h,w
	skipz
	goto	u3595
	bcf	status, 5	;RP0=0, select bank0
	movf	0+(??_printf+1)+0,w
	bsf	status, 5	;RP0=1, select bank1
	subwf	(printf@_val)^080h,w
u3595:
	skipnc
	goto	u3591
	goto	u3590
u3591:
	goto	l6968
u3590:
	goto	l6972
	line	1139
	
l6968:	
	incf	(printf@c)^080h,f
	
l6970:	
	movf	(printf@c)^080h,w
	xorlw	0Ah
	skipz
	goto	u3601
	goto	u3600
u3601:
	goto	l6964
u3600:
	line	1145
	
l6972:	
	movf	(printf@prec)^080h,w
	addwf	(printf@c)^080h,w
	bcf	status, 5	;RP0=0, select bank0
	movwf	(??_printf+0)+0
	bsf	status, 5	;RP0=1, select bank1
	movf	(printf@prec+1)^080h,w
	skipnc
	incf	(printf@prec+1)^080h,w
	addlw	0
	btfsc	(printf@c)^080h,7
	addlw	0ffh
	bcf	status, 5	;RP0=0, select bank0
	movwf	(??_printf+0)+0+1
	bsf	status, 5	;RP0=1, select bank1
	movf	(printf@exp)^080h,w
	bcf	status, 5	;RP0=0, select bank0
	addwf	0+(??_printf+0)+0,w
	movwf	(??_printf+2)+0
	bsf	status, 5	;RP0=1, select bank1
	movf	(printf@exp+1)^080h,w
	skipnc
	incf	(printf@exp+1)^080h,w
	bcf	status, 5	;RP0=0, select bank0
	addwf	1+(??_printf+0)+0,w
	movwf	1+(??_printf+2)+0
	movf	0+(??_printf+2)+0,w
	bsf	status, 5	;RP0=1, select bank1
	subwf	(printf@width)^080h,f
	bcf	status, 5	;RP0=0, select bank0
	movf	1+(??_printf+2)+0,w
	bsf	status, 5	;RP0=1, select bank1
	skipc
	decf	(printf@width+1)^080h,f
	subwf	(printf@width+1)^080h,f
	line	1150
	
l6974:	
	movf	(printf@prec+1)^080h,w
	iorwf	(printf@prec)^080h,w
	skipnz
	goto	u3611
	goto	u3610
u3611:
	goto	l6978
u3610:
	line	1151
	
l6976:	
	movlw	-1
	addwf	(printf@width)^080h,f
	skipc
	decf	(printf@width+1)^080h,f
	line	1152
	
l6978:	
	movf	(printf@flag)^080h,w
	andlw	03h
	btfsc	status,2
	goto	u3621
	goto	u3620
u3621:
	goto	l6982
u3620:
	line	1153
	
l6980:	
	movlw	-1
	addwf	(printf@width)^080h,f
	skipc
	decf	(printf@width+1)^080h,f
	line	1156
	
l6982:	
	btfss	(printf@flag)^080h,(2)&7
	goto	u3631
	goto	u3630
u3631:
	goto	l6996
u3630:
	goto	l6990
	line	1170
	
l6986:	
	movlw	(030h)
	fcall	_putch
	line	1171
	
l6988:	
	movlw	-1
	bsf	status, 5	;RP0=1, select bank1
	bcf	status, 6	;RP1=0, select bank1
	addwf	(printf@width)^080h,f
	skipc
	decf	(printf@width+1)^080h,f
	line	1169
	
l6990:	
	movf	(printf@width+1)^080h,w
	xorlw	80h
	movwf	btemp+1
	movlw	(high(01h))^80h
	subwf	btemp+1,w
	skipz
	goto	u3645
	movlw	low(01h)
	subwf	(printf@width)^080h,w
u3645:

	skipnc
	goto	u3641
	goto	u3640
u3641:
	goto	l6986
u3640:
	goto	l7004
	line	1182
	
l6992:	
	movlw	(020h)
	fcall	_putch
	line	1183
	
l6994:	
	movlw	-1
	bsf	status, 5	;RP0=1, select bank1
	bcf	status, 6	;RP1=0, select bank1
	addwf	(printf@width)^080h,f
	skipc
	decf	(printf@width+1)^080h,f
	line	1181
	
l6996:	
	movf	(printf@width+1)^080h,w
	xorlw	80h
	movwf	btemp+1
	movlw	(high(01h))^80h
	subwf	btemp+1,w
	skipz
	goto	u3655
	movlw	low(01h)
	subwf	(printf@width)^080h,w
u3655:

	skipnc
	goto	u3651
	goto	u3650
u3651:
	goto	l6992
u3650:
	line	1189
	
l6998:	
	bsf	status, 5	;RP0=1, select bank1
	bcf	status, 6	;RP1=0, select bank1
	movf	(printf@flag)^080h,w
	andlw	03h
	btfsc	status,2
	goto	u3661
	goto	u3660
u3661:
	goto	l7004
u3660:
	line	1191
	
l7000:	
	movlw	(02Dh)
	fcall	_putch
	goto	l7004
	line	1201
	
l7002:	
	movlw	0Ah
	bcf	status, 5	;RP0=0, select bank0
	movwf	(?___llmod)
	clrf	(?___llmod+1)
	clrf	(?___llmod+2)
	clrf	(?___llmod+3)

	bsf	status, 5	;RP0=1, select bank1
	movf	(printf@c)^080h,w
	bcf	status, 5	;RP0=0, select bank0
	movwf	(??_printf+0)+0
	clrc
	rlf	(??_printf+0)+0,f
	clrc
	rlf	(??_printf+0)+0,w
	addlw	low((_dpowers-__stringbase))
	movwf	fsr0
	fcall	stringdir
	movwf	(?___lldiv)
	fcall	stringdir
	movwf	(?___lldiv+1)
	fcall	stringdir
	movwf	(?___lldiv+2)
	fcall	stringdir
	movwf	(?___lldiv+3)
	bsf	status, 5	;RP0=1, select bank1
	movf	(printf@_val+3)^080h,w
	movwf	3+(?___lldiv)+04h
	movf	(printf@_val+2)^080h,w
	movwf	2+(?___lldiv)+04h
	movf	(printf@_val+1)^080h,w
	movwf	1+(?___lldiv)+04h
	movf	(printf@_val)^080h,w
	movwf	0+(?___lldiv)+04h

	fcall	___lldiv
	movf	(3+(?___lldiv)),w
	movwf	3+(?___llmod)+04h
	movf	(2+(?___lldiv)),w
	movwf	2+(?___llmod)+04h
	movf	(1+(?___lldiv)),w
	movwf	1+(?___llmod)+04h
	movf	(0+(?___lldiv)),w
	movwf	0+(?___llmod)+04h

	fcall	___llmod
	movf	0+(((0+(?___llmod)))),w
	addlw	030h
	fcall	_putch
	line	1197
	
l7004:	
	bsf	status, 5	;RP0=1, select bank1
	bcf	status, 6	;RP1=0, select bank1
	decf	(printf@c)^080h,f
	incf	((printf@c)^080h),w
	skipz
	goto	u3671
	goto	u3670
u3671:
	goto	l7002
u3670:
	goto	l7010
	line	1205
	
l7006:	
	movlw	(030h)
	fcall	_putch
	line	1206
	
l7008:	
	movlw	-1
	bsf	status, 5	;RP0=1, select bank1
	bcf	status, 6	;RP1=0, select bank1
	addwf	(printf@exp)^080h,f
	skipc
	decf	(printf@exp+1)^080h,f
	line	1204
	
l7010:	
	movf	(printf@exp+1)^080h,w
	xorlw	80h
	movwf	btemp+1
	movlw	(high(01h))^80h
	subwf	btemp+1,w
	skipz
	goto	u3685
	movlw	low(01h)
	subwf	(printf@exp)^080h,w
u3685:

	skipnc
	goto	u3681
	goto	u3680
u3681:
	goto	l7006
u3680:
	line	1208
	
l7012:	
	bsf	status, 5	;RP0=1, select bank1
	bcf	status, 6	;RP1=0, select bank1
	movf	(printf@prec+1)^080h,w
	xorlw	80h
	movwf	btemp+1
	movlw	(high(09h))^80h
	subwf	btemp+1,w
	skipz
	goto	u3695
	movlw	low(09h)
	subwf	(printf@prec)^080h,w
u3695:

	skipc
	goto	u3691
	goto	u3690
u3691:
	goto	l7016
u3690:
	line	1209
	
l7014:	
	movlw	(08h)
	bsf	status, 5	;RP0=1, select bank1
	bcf	status, 6	;RP1=0, select bank1
	movwf	(printf@c)^080h
	goto	l2258
	line	1211
	
l7016:	
	bsf	status, 5	;RP0=1, select bank1
	bcf	status, 6	;RP1=0, select bank1
	movf	(printf@prec)^080h,w
	movwf	(printf@c)^080h
	
l2258:	
	line	1212
	movf	(printf@c)^080h,w
	bcf	status, 5	;RP0=0, select bank0
	movwf	(??_printf+0)+0
	clrf	(??_printf+0)+0+1
	btfsc	(??_printf+0)+0,7
	decf	(??_printf+0)+0+1,f
	movf	0+(??_printf+0)+0,w
	bsf	status, 5	;RP0=1, select bank1
	subwf	(printf@prec)^080h,f
	bcf	status, 5	;RP0=0, select bank0
	movf	1+(??_printf+0)+0,w
	bsf	status, 5	;RP0=1, select bank1
	skipc
	decf	(printf@prec+1)^080h,f
	subwf	(printf@prec+1)^080h,f
	line	1216
	movf	(printf@c)^080h,w
	skipz
	goto	u3700
	goto	l2259
u3700:
	line	1218
	
l7018:	
	movlw	(02Eh)
	fcall	_putch
	
l2259:	
	line	1224
	bsf	status, 5	;RP0=1, select bank1
	bcf	status, 6	;RP1=0, select bank1
	movf	(printf@c)^080h,w
	fcall	_scale
	movf	(0+(?_scale)),w
	movwf	0+(?___ftmul)+03h
	movf	(1+(?_scale)),w
	movwf	1+(?___ftmul)+03h
	movf	(2+(?_scale)),w
	movwf	2+(?___ftmul)+03h
	bsf	status, 5	;RP0=1, select bank1
	movf	(printf@fval)^080h,w
	bcf	status, 5	;RP0=0, select bank0
	movwf	(?___ftmul)
	bsf	status, 5	;RP0=1, select bank1
	movf	(printf@fval+1)^080h,w
	bcf	status, 5	;RP0=0, select bank0
	movwf	(?___ftmul+1)
	bsf	status, 5	;RP0=1, select bank1
	movf	(printf@fval+2)^080h,w
	bcf	status, 5	;RP0=0, select bank0
	movwf	(?___ftmul+2)
	fcall	___ftmul
	movf	(0+(?___ftmul)),w
	movwf	(?___fttol)
	movf	(1+(?___ftmul)),w
	movwf	(?___fttol+1)
	movf	(2+(?___ftmul)),w
	movwf	(?___fttol+2)
	fcall	___fttol
	movf	(3+(?___fttol)),w
	bsf	status, 5	;RP0=1, select bank1
	movwf	(printf@_val+3)^080h
	bcf	status, 5	;RP0=0, select bank0
	movf	(2+(?___fttol)),w
	bsf	status, 5	;RP0=1, select bank1
	movwf	(printf@_val+2)^080h
	bcf	status, 5	;RP0=0, select bank0
	movf	(1+(?___fttol)),w
	bsf	status, 5	;RP0=1, select bank1
	movwf	(printf@_val+1)^080h
	bcf	status, 5	;RP0=0, select bank0
	movf	(0+(?___fttol)),w
	bsf	status, 5	;RP0=1, select bank1
	movwf	(printf@_val)^080h

	line	1225
	goto	l7022
	line	1226
	
l7020:	
	movlw	0Ah
	bcf	status, 5	;RP0=0, select bank0
	movwf	(?___llmod)
	clrf	(?___llmod+1)
	clrf	(?___llmod+2)
	clrf	(?___llmod+3)

	bsf	status, 5	;RP0=1, select bank1
	movf	(printf@c)^080h,w
	bcf	status, 5	;RP0=0, select bank0
	movwf	(??_printf+0)+0
	clrc
	rlf	(??_printf+0)+0,f
	clrc
	rlf	(??_printf+0)+0,w
	addlw	low((_dpowers-__stringbase))
	movwf	fsr0
	fcall	stringdir
	movwf	(?___lldiv)
	fcall	stringdir
	movwf	(?___lldiv+1)
	fcall	stringdir
	movwf	(?___lldiv+2)
	fcall	stringdir
	movwf	(?___lldiv+3)
	bsf	status, 5	;RP0=1, select bank1
	movf	(printf@_val+3)^080h,w
	movwf	3+(?___lldiv)+04h
	movf	(printf@_val+2)^080h,w
	movwf	2+(?___lldiv)+04h
	movf	(printf@_val+1)^080h,w
	movwf	1+(?___lldiv)+04h
	movf	(printf@_val)^080h,w
	movwf	0+(?___lldiv)+04h

	fcall	___lldiv
	movf	(3+(?___lldiv)),w
	movwf	3+(?___llmod)+04h
	movf	(2+(?___lldiv)),w
	movwf	2+(?___llmod)+04h
	movf	(1+(?___lldiv)),w
	movwf	1+(?___llmod)+04h
	movf	(0+(?___lldiv)),w
	movwf	0+(?___llmod)+04h

	fcall	___llmod
	movf	0+(((0+(?___llmod)))),w
	addlw	030h
	fcall	_putch
	line	1227
	bsf	status, 5	;RP0=1, select bank1
	bcf	status, 6	;RP1=0, select bank1
	movf	(printf@c)^080h,w
	bcf	status, 5	;RP0=0, select bank0
	movwf	(??_printf+0)+0
	clrc
	rlf	(??_printf+0)+0,f
	clrc
	rlf	(??_printf+0)+0,w
	addlw	low((_dpowers-__stringbase))
	movwf	fsr0
	fcall	stringdir
	movwf	(?___llmod)
	fcall	stringdir
	movwf	(?___llmod+1)
	fcall	stringdir
	movwf	(?___llmod+2)
	fcall	stringdir
	movwf	(?___llmod+3)
	bsf	status, 5	;RP0=1, select bank1
	movf	(printf@_val+3)^080h,w
	bcf	status, 5	;RP0=0, select bank0
	movwf	3+(?___llmod)+04h
	bsf	status, 5	;RP0=1, select bank1
	movf	(printf@_val+2)^080h,w
	bcf	status, 5	;RP0=0, select bank0
	movwf	2+(?___llmod)+04h
	bsf	status, 5	;RP0=1, select bank1
	movf	(printf@_val+1)^080h,w
	bcf	status, 5	;RP0=0, select bank0
	movwf	1+(?___llmod)+04h
	bsf	status, 5	;RP0=1, select bank1
	movf	(printf@_val)^080h,w
	bcf	status, 5	;RP0=0, select bank0
	movwf	0+(?___llmod)+04h

	fcall	___llmod
	movf	(3+(?___llmod)),w
	bsf	status, 5	;RP0=1, select bank1
	movwf	(printf@_val+3)^080h
	bcf	status, 5	;RP0=0, select bank0
	movf	(2+(?___llmod)),w
	bsf	status, 5	;RP0=1, select bank1
	movwf	(printf@_val+2)^080h
	bcf	status, 5	;RP0=0, select bank0
	movf	(1+(?___llmod)),w
	bsf	status, 5	;RP0=1, select bank1
	movwf	(printf@_val+1)^080h
	bcf	status, 5	;RP0=0, select bank0
	movf	(0+(?___llmod)),w
	bsf	status, 5	;RP0=1, select bank1
	movwf	(printf@_val)^080h

	line	1225
	
l7022:	
	decf	(printf@c)^080h,f
	incf	((printf@c)^080h),w
	skipz
	goto	u3711
	goto	u3710
u3711:
	goto	l7020
u3710:
	goto	l7028
	line	1231
	
l7024:	
	movlw	(030h)
	fcall	_putch
	line	1232
	
l7026:	
	movlw	-1
	bsf	status, 5	;RP0=1, select bank1
	bcf	status, 6	;RP1=0, select bank1
	addwf	(printf@prec)^080h,f
	skipc
	decf	(printf@prec+1)^080h,f
	line	1230
	
l7028:	
	movf	((printf@prec+1)^080h),w
	iorwf	((printf@prec)^080h),w
	skipz
	goto	u3721
	goto	u3720
u3721:
	goto	l7024
u3720:
	goto	l7108
	line	1281
	
l7030:	
	bsf	status, 5	;RP0=1, select bank1
	movf	(printf@ap)^080h,w
	movwf	fsr0
	bcf	status, 7	;select IRP bank0
	movf	indf,w
	bcf	status, 5	;RP0=0, select bank0
	movwf	(??_printf+0)+0+0
	incf	fsr0,f
	movf	indf,w
	movwf	(??_printf+0)+0+1
	movf	0+(??_printf+0)+0,w
	bsf	status, 5	;RP0=1, select bank1
	movwf	(printf@_val)^080h
	bcf	status, 5	;RP0=0, select bank0
	movf	1+(??_printf+0)+0,w
	bsf	status, 5	;RP0=1, select bank1
	movwf	((printf@_val)^080h)+1
	clrf	2+((printf@_val)^080h)
	clrf	3+((printf@_val)^080h)
	
l7032:	
	incf	(printf@ap)^080h,f
	incf	(printf@ap)^080h,f
	line	1285
	
l7034:	
	movf	((printf@prec+1)^080h),w
	iorwf	((printf@prec)^080h),w
	skipz
	goto	u3731
	goto	u3730
u3731:
	goto	l7040
u3730:
	
l7036:	
	movf	(printf@_val+3)^080h,w
	iorwf	(printf@_val+2)^080h,w
	iorwf	(printf@_val+1)^080h,w
	iorwf	(printf@_val)^080h,w
	skipz
	goto	u3741
	goto	u3740
u3741:
	goto	l7040
u3740:
	line	1286
	
l7038:	
	incf	(printf@prec)^080h,f
	skipnz
	incf	(printf@prec+1)^080h,f
	line	1300
	
l7040:	
	clrf	(printf@c)^080h
	incf	(printf@c)^080h,f
	line	1301
	
l7046:	
	movf	(printf@c)^080h,w
	bcf	status, 5	;RP0=0, select bank0
	movwf	(??_printf+0)+0
	clrc
	rlf	(??_printf+0)+0,f
	clrc
	rlf	(??_printf+0)+0,w
	addlw	low((_dpowers-__stringbase))
	movwf	fsr0
	fcall	stringdir
	movwf	((??_printf+1)+0)
	fcall	stringdir
	movwf	((??_printf+1)+0+1)
	fcall	stringdir
	movwf	((??_printf+1)+0+2)
	fcall	stringdir
	movwf	((??_printf+1)+0+3)
	movf	3+(??_printf+1)+0,w
	bsf	status, 5	;RP0=1, select bank1
	subwf	(printf@_val+3)^080h,w
	skipz
	goto	u3755
	bcf	status, 5	;RP0=0, select bank0
	movf	2+(??_printf+1)+0,w
	bsf	status, 5	;RP0=1, select bank1
	subwf	(printf@_val+2)^080h,w
	skipz
	goto	u3755
	bcf	status, 5	;RP0=0, select bank0
	movf	1+(??_printf+1)+0,w
	bsf	status, 5	;RP0=1, select bank1
	subwf	(printf@_val+1)^080h,w
	skipz
	goto	u3755
	bcf	status, 5	;RP0=0, select bank0
	movf	0+(??_printf+1)+0,w
	bsf	status, 5	;RP0=1, select bank1
	subwf	(printf@_val)^080h,w
u3755:
	skipnc
	goto	u3751
	goto	u3750
u3751:
	goto	l7050
u3750:
	goto	l7054
	line	1300
	
l7050:	
	incf	(printf@c)^080h,f
	
l7052:	
	movf	(printf@c)^080h,w
	xorlw	0Ah
	skipz
	goto	u3761
	goto	u3760
u3761:
	goto	l7046
u3760:
	line	1334
	
l7054:	
	movf	(printf@c)^080h,w
	bcf	status, 5	;RP0=0, select bank0
	movwf	(??_printf+0)+0
	clrf	(??_printf+0)+0+1
	btfsc	(??_printf+0)+0,7
	decf	(??_printf+0)+0+1,f
	movf	1+(??_printf+0)+0,w
	xorlw	80h
	movwf	(??_printf+2)+0
	bsf	status, 5	;RP0=1, select bank1
	movf	(printf@prec+1)^080h,w
	xorlw	80h
	bcf	status, 5	;RP0=0, select bank0
	subwf	(??_printf+2)+0,w
	skipz
	goto	u3775
	bsf	status, 5	;RP0=1, select bank1
	movf	(printf@prec)^080h,w
	bcf	status, 5	;RP0=0, select bank0
	subwf	0+(??_printf+0)+0,w
u3775:

	skipnc
	goto	u3771
	goto	u3770
u3771:
	goto	l7058
u3770:
	line	1335
	
l7056:	
	bsf	status, 5	;RP0=1, select bank1
	bcf	status, 6	;RP1=0, select bank1
	movf	(printf@prec)^080h,w
	movwf	(printf@c)^080h
	goto	l7062
	line	1336
	
l7058:	
	bsf	status, 5	;RP0=1, select bank1
	bcf	status, 6	;RP1=0, select bank1
	movf	(printf@c)^080h,w
	bcf	status, 5	;RP0=0, select bank0
	movwf	(??_printf+0)+0
	clrf	(??_printf+0)+0+1
	btfsc	(??_printf+0)+0,7
	decf	(??_printf+0)+0+1,f
	bsf	status, 5	;RP0=1, select bank1
	movf	(printf@prec+1)^080h,w
	xorlw	80h
	bcf	status, 5	;RP0=0, select bank0
	movwf	(??_printf+2)+0
	movf	1+(??_printf+0)+0,w
	xorlw	80h
	subwf	(??_printf+2)+0,w
	skipz
	goto	u3785
	movf	0+(??_printf+0)+0,w
	bsf	status, 5	;RP0=1, select bank1
	subwf	(printf@prec)^080h,w
u3785:

	skipnc
	goto	u3781
	goto	u3780
u3781:
	goto	l7062
u3780:
	line	1337
	
l7060:	
	bsf	status, 5	;RP0=1, select bank1
	bcf	status, 6	;RP1=0, select bank1
	movf	(printf@c)^080h,w
	movwf	(printf@prec)^080h
	clrf	(printf@prec+1)^080h
	btfsc	(printf@prec)^080h,7
	decf	(printf@prec+1)^080h,f
	line	1340
	
l7062:	
	bsf	status, 5	;RP0=1, select bank1
	bcf	status, 6	;RP1=0, select bank1
	movf	(printf@width+1)^080h,w
	iorwf	(printf@width)^080h,w
	skipnz
	goto	u3791
	goto	u3790
u3791:
	goto	l7068
u3790:
	
l7064:	
	movf	(printf@flag)^080h,w
	andlw	03h
	btfsc	status,2
	goto	u3801
	goto	u3800
u3801:
	goto	l7068
u3800:
	line	1341
	
l7066:	
	movlw	-1
	addwf	(printf@width)^080h,f
	skipc
	decf	(printf@width+1)^080h,f
	line	1343
	
l7068:	
	btfss	(printf@flag+1)^080h,(14)&7
	goto	u3811
	goto	u3810
u3811:
	goto	l7076
u3810:
	line	1344
	
l7070:	
	movf	(printf@prec+1)^080h,w
	xorlw	80h
	bcf	status, 5	;RP0=0, select bank0
	movwf	(??_printf+0)+0
	bsf	status, 5	;RP0=1, select bank1
	movf	(printf@width+1)^080h,w
	xorlw	80h
	bcf	status, 5	;RP0=0, select bank0
	subwf	(??_printf+0)+0,w
	skipz
	goto	u3825
	bsf	status, 5	;RP0=1, select bank1
	movf	(printf@width)^080h,w
	subwf	(printf@prec)^080h,w
u3825:

	skipnc
	goto	u3821
	goto	u3820
u3821:
	goto	l7074
u3820:
	line	1345
	
l7072:	
	bsf	status, 5	;RP0=1, select bank1
	bcf	status, 6	;RP1=0, select bank1
	movf	(printf@prec)^080h,w
	subwf	(printf@width)^080h,f
	movf	(printf@prec+1)^080h,w
	skipc
	decf	(printf@width+1)^080h,f
	subwf	(printf@width+1)^080h,f
	goto	l7076
	line	1347
	
l7074:	
	bsf	status, 5	;RP0=1, select bank1
	bcf	status, 6	;RP1=0, select bank1
	clrf	(printf@width)^080h
	clrf	(printf@width+1)^080h
	line	1376
	
l7076:	
	movf	(printf@c)^080h,w
	bcf	status, 5	;RP0=0, select bank0
	movwf	(??_printf+0)+0
	clrf	(??_printf+0)+0+1
	btfsc	(??_printf+0)+0,7
	decf	(??_printf+0)+0+1,f
	movf	1+(??_printf+0)+0,w
	xorlw	80h
	movwf	(??_printf+2)+0
	bsf	status, 5	;RP0=1, select bank1
	movf	(printf@width+1)^080h,w
	xorlw	80h
	bcf	status, 5	;RP0=0, select bank0
	subwf	(??_printf+2)+0,w
	skipz
	goto	u3835
	bsf	status, 5	;RP0=1, select bank1
	movf	(printf@width)^080h,w
	bcf	status, 5	;RP0=0, select bank0
	subwf	0+(??_printf+0)+0,w
u3835:

	skipnc
	goto	u3831
	goto	u3830
u3831:
	goto	l7080
u3830:
	line	1377
	
l7078:	
	bsf	status, 5	;RP0=1, select bank1
	bcf	status, 6	;RP1=0, select bank1
	movf	(printf@c)^080h,w
	bcf	status, 5	;RP0=0, select bank0
	movwf	(??_printf+0)+0
	clrf	(??_printf+0)+0+1
	btfsc	(??_printf+0)+0,7
	decf	(??_printf+0)+0+1,f
	movf	0+(??_printf+0)+0,w
	bsf	status, 5	;RP0=1, select bank1
	subwf	(printf@width)^080h,f
	bcf	status, 5	;RP0=0, select bank0
	movf	1+(??_printf+0)+0,w
	bsf	status, 5	;RP0=1, select bank1
	skipc
	decf	(printf@width+1)^080h,f
	subwf	(printf@width+1)^080h,f
	goto	l7082
	line	1379
	
l7080:	
	bsf	status, 5	;RP0=1, select bank1
	bcf	status, 6	;RP1=0, select bank1
	clrf	(printf@width)^080h
	clrf	(printf@width+1)^080h
	line	1382
	
l7082:	
	btfss	(printf@flag)^080h,(2)&7
	goto	u3841
	goto	u3840
u3841:
	goto	l7094
u3840:
	line	1387
	
l7084:	
	movf	(printf@flag)^080h,w
	andlw	03h
	btfsc	status,2
	goto	u3851
	goto	u3850
u3851:
	goto	l7088
u3850:
	line	1388
	
l7086:	
	movlw	(02Dh)
	fcall	_putch
	line	1410
	
l7088:	
	bsf	status, 5	;RP0=1, select bank1
	bcf	status, 6	;RP1=0, select bank1
	movf	(printf@width+1)^080h,w
	iorwf	(printf@width)^080h,w
	skipnz
	goto	u3861
	goto	u3860
u3861:
	goto	l7106
u3860:
	line	1412
	
l7090:	
	movlw	(030h)
	fcall	_putch
	line	1413
	
l7092:	
	movlw	-1
	bsf	status, 5	;RP0=1, select bank1
	bcf	status, 6	;RP1=0, select bank1
	addwf	(printf@width)^080h,f
	skipc
	decf	(printf@width+1)^080h,f
	movf	(((printf@width+1)^080h)),w
	iorwf	(((printf@width)^080h)),w
	skipz
	goto	u3871
	goto	u3870
u3871:
	goto	l7090
u3870:
	goto	l7106
	line	1423
	
l7094:	
	movf	(printf@width+1)^080h,w
	iorwf	(printf@width)^080h,w
	skipnz
	goto	u3881
	goto	u3880
u3881:
	goto	l7100
u3880:
	line	1425
	
l7096:	
	movlw	(020h)
	fcall	_putch
	line	1426
	
l7098:	
	movlw	-1
	bsf	status, 5	;RP0=1, select bank1
	bcf	status, 6	;RP1=0, select bank1
	addwf	(printf@width)^080h,f
	skipc
	decf	(printf@width+1)^080h,f
	movf	(((printf@width+1)^080h)),w
	iorwf	(((printf@width)^080h)),w
	skipz
	goto	u3891
	goto	u3890
u3891:
	goto	l7096
u3890:
	line	1433
	
l7100:	
	movf	(printf@flag)^080h,w
	andlw	03h
	btfsc	status,2
	goto	u3901
	goto	u3900
u3901:
	goto	l7106
u3900:
	line	1434
	
l7102:	
	movlw	(02Dh)
	fcall	_putch
	goto	l7106
	line	1484
	
l7104:	
	movlw	0Ah
	bcf	status, 5	;RP0=0, select bank0
	movwf	(?___llmod)
	clrf	(?___llmod+1)
	clrf	(?___llmod+2)
	clrf	(?___llmod+3)

	bsf	status, 5	;RP0=1, select bank1
	movf	(printf@prec)^080h,w
	bcf	status, 5	;RP0=0, select bank0
	movwf	(??_printf+0)+0
	clrc
	rlf	(??_printf+0)+0,f
	clrc
	rlf	(??_printf+0)+0,w
	addlw	low((_dpowers-__stringbase))
	movwf	fsr0
	fcall	stringdir
	movwf	(?___lldiv)
	fcall	stringdir
	movwf	(?___lldiv+1)
	fcall	stringdir
	movwf	(?___lldiv+2)
	fcall	stringdir
	movwf	(?___lldiv+3)
	bsf	status, 5	;RP0=1, select bank1
	movf	(printf@_val+3)^080h,w
	movwf	3+(?___lldiv)+04h
	movf	(printf@_val+2)^080h,w
	movwf	2+(?___lldiv)+04h
	movf	(printf@_val+1)^080h,w
	movwf	1+(?___lldiv)+04h
	movf	(printf@_val)^080h,w
	movwf	0+(?___lldiv)+04h

	fcall	___lldiv
	movf	(3+(?___lldiv)),w
	movwf	3+(?___llmod)+04h
	movf	(2+(?___lldiv)),w
	movwf	2+(?___llmod)+04h
	movf	(1+(?___lldiv)),w
	movwf	1+(?___llmod)+04h
	movf	(0+(?___lldiv)),w
	movwf	0+(?___llmod)+04h

	fcall	___llmod
	movf	0+(((0+(?___llmod)))),w
	addlw	030h
	bsf	status, 5	;RP0=1, select bank1
	movwf	(printf@c)^080h
	line	1516
	movf	(printf@c)^080h,w
	fcall	_putch
	line	1469
	
l7106:	
	movlw	-1
	bsf	status, 5	;RP0=1, select bank1
	bcf	status, 6	;RP1=0, select bank1
	addwf	(printf@prec)^080h,f
	skipc
	decf	(printf@prec+1)^080h,f
	incf	((printf@prec)^080h),w
	skipnz
	incf	((printf@prec+1)^080h),w

	skipz
	goto	u3911
	goto	u3910
u3911:
	goto	l7104
u3910:
	line	540
	
l7108:	
	bsf	status, 5	;RP0=1, select bank1
	bcf	status, 6	;RP1=0, select bank1
	movf	(printf@f)^080h,w
	incf	(printf@f)^080h,f
	movwf	fsr0
	fcall	stringdir
	movwf	(printf@c)^080h
	movf	((printf@c)^080h),f
	skipz
	goto	u3921
	goto	u3920
u3921:
	goto	l6832
u3920:
	line	1533
	
l2293:	
	return
	opt stack 0
GLOBAL	__end_of_printf
	__end_of_printf:
;; =============== function _printf ends ============

	signat	_printf,602
	global	_putch
psect	text520,local,class=CODE,delta=2
global __ptext520
__ptext520:

;; *************** function _putch *****************
;; Defined at:
;;		line 66 in file "D:\TTVXL\Project TTVXL\BT02week14ttvxl\BT02week14ttvxl.c"
;; Parameters:    Size  Location     Type
;;  c               1    wreg     unsigned char 
;; Auto vars:     Size  Location     Type
;;  c               1   11[COMMON] unsigned char 
;; Return value:  Size  Location     Type
;;		None               void
;; Registers used:
;;		wreg, fsr0l, fsr0h, status,2, status,0, pclath, cstack
;; Tracked objects:
;;		On entry : 0/20
;;		On exit  : 0/0
;;		Unchanged: 0/0
;; Data sizes:     COMMON   BANK0   BANK1   BANK3   BANK2
;;      Params:         0       0       0       0       0
;;      Locals:         1       0       0       0       0
;;      Temps:          0       0       0       0       0
;;      Totals:         1       0       0       0       0
;;Total ram usage:        1 bytes
;; Hardware stack levels used:    1
;; Hardware stack levels required when called:    4
;; This function calls:
;;		_lcd_putc
;; This function is called by:
;;		_printf
;; This function uses a non-reentrant model
;;
psect	text520
	file	"D:\TTVXL\Project TTVXL\BT02week14ttvxl\BT02week14ttvxl.c"
	line	66
	global	__size_of_putch
	__size_of_putch	equ	__end_of_putch-_putch
	
_putch:	
	opt	stack 2
; Regs used in _putch: [wreg-fsr0h+status,2+status,0+pclath+cstack]
;putch@c stored from wreg
	movwf	(putch@c)
	line	67
	
l6828:	
;BT02week14ttvxl.c: 67: lcd_putc(c);
	movf	(putch@c),w
	fcall	_lcd_putc
	line	68
	
l1061:	
	return
	opt stack 0
GLOBAL	__end_of_putch
	__end_of_putch:
;; =============== function _putch ends ============

	signat	_putch,4216
	global	_lcd_putc
psect	text521,local,class=CODE,delta=2
global __ptext521
__ptext521:

;; *************** function _lcd_putc *****************
;; Defined at:
;;		line 143 in file "D:\TTVXL\Library\lcd(16).c"
;; Parameters:    Size  Location     Type
;;  c               1    wreg     unsigned char 
;; Auto vars:     Size  Location     Type
;;  c               1   10[COMMON] unsigned char 
;; Return value:  Size  Location     Type
;;		None               void
;; Registers used:
;;		wreg, fsr0l, fsr0h, status,2, status,0, pclath, cstack
;; Tracked objects:
;;		On entry : 0/20
;;		On exit  : 0/0
;;		Unchanged: 0/0
;; Data sizes:     COMMON   BANK0   BANK1   BANK3   BANK2
;;      Params:         0       0       0       0       0
;;      Locals:         1       0       0       0       0
;;      Temps:          0       0       0       0       0
;;      Totals:         1       0       0       0       0
;;Total ram usage:        1 bytes
;; Hardware stack levels used:    1
;; Hardware stack levels required when called:    3
;; This function calls:
;;		_lcd_put_byte
;;		_lcd_busy
;;		_lcd_gotoxy
;;		_isprint
;; This function is called by:
;;		_putch
;; This function uses a non-reentrant model
;;
psect	text521
	file	"D:\TTVXL\Library\lcd(16).c"
	line	143
	global	__size_of_lcd_putc
	__size_of_lcd_putc	equ	__end_of_lcd_putc-_lcd_putc
	
_lcd_putc:	
	opt	stack 2
; Regs used in _lcd_putc: [wreg-fsr0h+status,2+status,0+pclath+cstack]
;lcd_putc@c stored from wreg
	movwf	(lcd_putc@c)
	line	144
	
l6810:	
;lcd(16).c: 144: switch(c){
	goto	l6826
	line	146
	
l6812:	
;lcd(16).c: 146: lcd_put_byte(0, 1);
	clrf	(?_lcd_put_byte)
	incf	(?_lcd_put_byte),f
	movlw	(0)
	fcall	_lcd_put_byte
	line	147
;lcd(16).c: 147: while(lcd_busy());
	
l6814:	
	fcall	_lcd_busy
	iorlw	0
	skipz
	goto	u3371
	goto	u3370
u3371:
	goto	l6814
u3370:
	goto	l2143
	line	150
	
l6816:	
;lcd(16).c: 150: lcd_gotoxy(0, 1);
	clrf	(?_lcd_gotoxy)
	incf	(?_lcd_gotoxy),f
	movlw	(0)
	fcall	_lcd_gotoxy
	line	151
;lcd(16).c: 151: break;
	goto	l2143
	line	153
	
l6818:	
;lcd(16).c: 153: if(isprint(c)){
	movf	(lcd_putc@c),w
	fcall	_isprint
	btfss	status,0
	goto	u3381
	goto	u3380
u3381:
	goto	l2143
u3380:
	line	154
	
l6820:	
;lcd(16).c: 154: lcd_put_byte(1, c);
	movf	(lcd_putc@c),w
	movwf	(?_lcd_put_byte)
	movlw	(01h)
	fcall	_lcd_put_byte
	line	155
;lcd(16).c: 155: while(lcd_busy());
	
l6822:	
	fcall	_lcd_busy
	iorlw	0
	skipz
	goto	u3391
	goto	u3390
u3391:
	goto	l6822
u3390:
	goto	l2143
	line	144
	
l6826:	
	movf	(lcd_putc@c),w
	; Switch size 1, requested type "space"
; Number of cases is 2, Range of values is 10 to 12
; switch strategies available:
; Name         Instructions Cycles
; simple_byte            7     4 (average)
; direct_byte           20    11 (fixed)
; jumptable            263     9 (fixed)
;	Chosen strategy is simple_byte

	opt asmopt_off
	xorlw	10^0	; case 10
	skipnz
	goto	l6816
	xorlw	12^10	; case 12
	skipnz
	goto	l6812
	goto	l6818
	opt asmopt_on

	line	159
	
l2143:	
	return
	opt stack 0
GLOBAL	__end_of_lcd_putc
	__end_of_lcd_putc:
;; =============== function _lcd_putc ends ============

	signat	_lcd_putc,4216
	global	___ftsub
psect	text522,local,class=CODE,delta=2
global __ptext522
__ptext522:

;; *************** function ___ftsub *****************
;; Defined at:
;;		line 17 in file "C:\Program Files (x86)\HI-TECH Software\PICC\9.83\sources\ftsub.c"
;; Parameters:    Size  Location     Type
;;  f2              3   44[BANK0 ] float 
;;  f1              3   47[BANK0 ] float 
;; Auto vars:     Size  Location     Type
;;		None
;; Return value:  Size  Location     Type
;;                  3   44[BANK0 ] float 
;; Registers used:
;;		wreg, status,2, status,0, pclath, cstack
;; Tracked objects:
;;		On entry : 60/0
;;		On exit  : 60/0
;;		Unchanged: FFF9F/0
;; Data sizes:     COMMON   BANK0   BANK1   BANK3   BANK2
;;      Params:         0       6       0       0       0
;;      Locals:         0       0       0       0       0
;;      Temps:          0       0       0       0       0
;;      Totals:         0       6       0       0       0
;;Total ram usage:        6 bytes
;; Hardware stack levels used:    1
;; Hardware stack levels required when called:    3
;; This function calls:
;;		___ftadd
;; This function is called by:
;;		_printf
;; This function uses a non-reentrant model
;;
psect	text522
	file	"C:\Program Files (x86)\HI-TECH Software\PICC\9.83\sources\ftsub.c"
	line	17
	global	__size_of___ftsub
	__size_of___ftsub	equ	__end_of___ftsub-___ftsub
	
___ftsub:	
	opt	stack 3
; Regs used in ___ftsub: [wreg+status,2+status,0+pclath+cstack]
	line	18
	
l6804:	
	movlw	080h
	xorwf	(___ftsub@f2+2),f
	line	19
	
l6806:	
	movf	(___ftsub@f1),w
	movwf	(?___ftadd)
	movf	(___ftsub@f1+1),w
	movwf	(?___ftadd+1)
	movf	(___ftsub@f1+2),w
	movwf	(?___ftadd+2)
	movf	(___ftsub@f2),w
	movwf	0+(?___ftadd)+03h
	movf	(___ftsub@f2+1),w
	movwf	1+(?___ftadd)+03h
	movf	(___ftsub@f2+2),w
	movwf	2+(?___ftadd)+03h
	fcall	___ftadd
	movf	(0+(?___ftadd)),w
	movwf	(?___ftsub)
	movf	(1+(?___ftadd)),w
	movwf	(?___ftsub+1)
	movf	(2+(?___ftadd)),w
	movwf	(?___ftsub+2)
	line	20
	
l3379:	
	return
	opt stack 0
GLOBAL	__end_of___ftsub
	__end_of___ftsub:
;; =============== function ___ftsub ends ============

	signat	___ftsub,8315
	global	_scale
psect	text523,local,class=CODE,delta=2
global __ptext523
__ptext523:

;; *************** function _scale *****************
;; Defined at:
;;		line 422 in file "C:\Program Files (x86)\HI-TECH Software\PICC\9.83\lib\doprnt.c"
;; Parameters:    Size  Location     Type
;;  scl             1    wreg     char 
;; Auto vars:     Size  Location     Type
;;  scl             1   42[BANK0 ] char 
;; Return value:  Size  Location     Type
;;                  3   32[BANK0 ] char 
;; Registers used:
;;		wreg, fsr0l, fsr0h, status,2, status,0, pclath, cstack
;; Tracked objects:
;;		On entry : 60/20
;;		On exit  : 60/0
;;		Unchanged: FFF9F/0
;; Data sizes:     COMMON   BANK0   BANK1   BANK3   BANK2
;;      Params:         0       3       0       0       0
;;      Locals:         0       4       0       0       0
;;      Temps:          0       4       0       0       0
;;      Totals:         0      11       0       0       0
;;Total ram usage:       11 bytes
;; Hardware stack levels used:    1
;; Hardware stack levels required when called:    3
;; This function calls:
;;		___awmod
;;		___awdiv
;;		___ftmul
;;		___bmul
;; This function is called by:
;;		_printf
;; This function uses a non-reentrant model
;;
psect	text523
	file	"C:\Program Files (x86)\HI-TECH Software\PICC\9.83\sources\doprnt.c"
	line	422
	global	__size_of_scale
	__size_of_scale	equ	__end_of_scale-_scale
	
_scale:	
	opt	stack 3
; Regs used in _scale: [wreg-fsr0h+status,2+status,0+pclath+cstack]
;scale@scl stored from wreg
	line	424
	bcf	status, 5	;RP0=0, select bank0
	movwf	(scale@scl)
	
l6764:	
	btfss	(scale@scl),7
	goto	u3321
	goto	u3320
u3321:
	goto	l6786
u3320:
	line	425
	
l6766:	
	comf	(scale@scl),f
	incf	(scale@scl),f
	line	426
	
l6768:	
	movf	(scale@scl),w
	xorlw	80h
	addlw	-((06Eh)^80h)
	skipc
	goto	u3331
	goto	u3330
u3331:
	goto	l6776
u3330:
	line	427
	
l6770:	
	movlw	0Ah
	movwf	(?___awdiv)
	clrf	(?___awdiv+1)
	movf	(scale@scl),w
	movwf	0+(?___awmod)+02h
	clrf	1+(?___awmod)+02h
	btfsc	0+(?___awmod)+02h,7
	decf	1+(?___awmod)+02h,f
	movlw	064h
	movwf	(?___awmod)
	clrf	(?___awmod+1)
	fcall	___awmod
	movf	(1+(?___awmod)),w
	movwf	1+(?___awdiv)+02h
	movf	(0+(?___awmod)),w
	movwf	0+(?___awdiv)+02h
	fcall	___awdiv
	movf	(0+?___awdiv),w
	movwf	(??_scale+0)+0
	movf	(1+?___awdiv),w
	movwf	((??_scale+0)+0+1)
	movf	0+(??_scale+0)+0,w
	addwf	0+(??_scale+0)+0,w
	addwf	0+(??_scale+0)+0,w
	addlw	low((__npowers_-__stringbase)+01Bh)
	movwf	fsr0
	fcall	stringdir
	movwf	(?___ftmul)
	fcall	stringdir
	movwf	(?___ftmul+1)
	fcall	stringdir
	movwf	(?___ftmul+2)
	movlw	064h
	movwf	(?___awdiv)
	clrf	(?___awdiv+1)
	movf	(scale@scl),w
	movwf	0+(?___awdiv)+02h
	clrf	1+(?___awdiv)+02h
	btfsc	0+(?___awdiv)+02h,7
	decf	1+(?___awdiv)+02h,f
	fcall	___awdiv
	movf	(0+?___awdiv),w
	movwf	(??_scale+2)+0
	movf	(1+?___awdiv),w
	movwf	((??_scale+2)+0+1)
	movf	0+(??_scale+2)+0,w
	addwf	0+(??_scale+2)+0,w
	addwf	0+(??_scale+2)+0,w
	addlw	low((__npowers_-__stringbase)+036h)
	movwf	fsr0
	fcall	stringdir
	movwf	0+(?___ftmul)+03h
	fcall	stringdir
	movwf	1+(?___ftmul)+03h
	fcall	stringdir
	movwf	2+(?___ftmul)+03h
	fcall	___ftmul
	movf	(0+(?___ftmul)),w
	movwf	(_scale$4108)
	movf	(1+(?___ftmul)),w
	movwf	(_scale$4108+1)
	movf	(2+(?___ftmul)),w
	movwf	(_scale$4108+2)
	movlw	0Ah
	movwf	(?___awmod)
	clrf	(?___awmod+1)
	movf	(scale@scl),w
	movwf	0+(?___awmod)+02h
	clrf	1+(?___awmod)+02h
	btfsc	0+(?___awmod)+02h,7
	decf	1+(?___awmod)+02h,f
	fcall	___awmod
	movf	(0+?___awmod),w
	movwf	(??_scale+0)+0
	movf	(1+?___awmod),w
	movwf	((??_scale+0)+0+1)
	movf	0+(??_scale+0)+0,w
	addwf	0+(??_scale+0)+0,w
	addwf	0+(??_scale+0)+0,w
	addlw	low((__npowers_-__stringbase))
	movwf	fsr0
	fcall	stringdir
	movwf	(?___ftmul)
	fcall	stringdir
	movwf	(?___ftmul+1)
	fcall	stringdir
	movwf	(?___ftmul+2)
	movf	(_scale$4108),w
	movwf	0+(?___ftmul)+03h
	movf	(_scale$4108+1),w
	movwf	1+(?___ftmul)+03h
	movf	(_scale$4108+2),w
	movwf	2+(?___ftmul)+03h
	fcall	___ftmul
	movf	(0+(?___ftmul)),w
	movwf	(?_scale)
	movf	(1+(?___ftmul)),w
	movwf	(?_scale+1)
	movf	(2+(?___ftmul)),w
	movwf	(?_scale+2)
	goto	l2186
	line	428
	
l6776:	
	movf	(scale@scl),w
	xorlw	80h
	addlw	-((0Bh)^80h)
	skipc
	goto	u3341
	goto	u3340
u3341:
	goto	l6782
u3340:
	line	429
	
l6778:	
	movlw	0Ah
	movwf	(?___awmod)
	clrf	(?___awmod+1)
	movf	(scale@scl),w
	movwf	0+(?___awmod)+02h
	clrf	1+(?___awmod)+02h
	btfsc	0+(?___awmod)+02h,7
	decf	1+(?___awmod)+02h,f
	fcall	___awmod
	movf	(0+?___awmod),w
	movwf	(??_scale+0)+0
	movf	(1+?___awmod),w
	movwf	((??_scale+0)+0+1)
	movf	0+(??_scale+0)+0,w
	addwf	0+(??_scale+0)+0,w
	addwf	0+(??_scale+0)+0,w
	addlw	low((__npowers_-__stringbase))
	movwf	fsr0
	fcall	stringdir
	movwf	(?___ftmul)
	fcall	stringdir
	movwf	(?___ftmul+1)
	fcall	stringdir
	movwf	(?___ftmul+2)
	movlw	0Ah
	movwf	(?___awdiv)
	clrf	(?___awdiv+1)
	movf	(scale@scl),w
	movwf	0+(?___awdiv)+02h
	clrf	1+(?___awdiv)+02h
	btfsc	0+(?___awdiv)+02h,7
	decf	1+(?___awdiv)+02h,f
	fcall	___awdiv
	movf	(0+?___awdiv),w
	movwf	(??_scale+2)+0
	movf	(1+?___awdiv),w
	movwf	((??_scale+2)+0+1)
	movf	0+(??_scale+2)+0,w
	addwf	0+(??_scale+2)+0,w
	addwf	0+(??_scale+2)+0,w
	addlw	low((__npowers_-__stringbase)+01Bh)
	movwf	fsr0
	fcall	stringdir
	movwf	0+(?___ftmul)+03h
	fcall	stringdir
	movwf	1+(?___ftmul)+03h
	fcall	stringdir
	movwf	2+(?___ftmul)+03h
	fcall	___ftmul
	movf	(0+(?___ftmul)),w
	movwf	(?_scale)
	movf	(1+(?___ftmul)),w
	movwf	(?_scale+1)
	movf	(2+(?___ftmul)),w
	movwf	(?_scale+2)
	goto	l2186
	line	430
	
l6782:	
	movlw	(03h)
	movwf	(?___bmul)
	movf	(scale@scl),w
	fcall	___bmul
	addlw	low((__npowers_-__stringbase))
	movwf	fsr0
	fcall	stringdir
	movwf	(?_scale)
	fcall	stringdir
	movwf	(?_scale+1)
	fcall	stringdir
	movwf	(?_scale+2)
	goto	l2186
	line	432
	
l6786:	
	movf	(scale@scl),w
	xorlw	80h
	addlw	-((06Eh)^80h)
	skipc
	goto	u3351
	goto	u3350
u3351:
	goto	l6794
u3350:
	line	433
	
l6788:	
	movlw	0Ah
	movwf	(?___awdiv)
	clrf	(?___awdiv+1)
	movf	(scale@scl),w
	movwf	0+(?___awmod)+02h
	clrf	1+(?___awmod)+02h
	btfsc	0+(?___awmod)+02h,7
	decf	1+(?___awmod)+02h,f
	movlw	064h
	movwf	(?___awmod)
	clrf	(?___awmod+1)
	fcall	___awmod
	movf	(1+(?___awmod)),w
	movwf	1+(?___awdiv)+02h
	movf	(0+(?___awmod)),w
	movwf	0+(?___awdiv)+02h
	fcall	___awdiv
	movf	(0+?___awdiv),w
	movwf	(??_scale+0)+0
	movf	(1+?___awdiv),w
	movwf	((??_scale+0)+0+1)
	movf	0+(??_scale+0)+0,w
	addwf	0+(??_scale+0)+0,w
	addwf	0+(??_scale+0)+0,w
	addlw	low((__powers_-__stringbase)+01Bh)
	movwf	fsr0
	fcall	stringdir
	movwf	(?___ftmul)
	fcall	stringdir
	movwf	(?___ftmul+1)
	fcall	stringdir
	movwf	(?___ftmul+2)
	movlw	064h
	movwf	(?___awdiv)
	clrf	(?___awdiv+1)
	movf	(scale@scl),w
	movwf	0+(?___awdiv)+02h
	clrf	1+(?___awdiv)+02h
	btfsc	0+(?___awdiv)+02h,7
	decf	1+(?___awdiv)+02h,f
	fcall	___awdiv
	movf	(0+?___awdiv),w
	movwf	(??_scale+2)+0
	movf	(1+?___awdiv),w
	movwf	((??_scale+2)+0+1)
	movf	0+(??_scale+2)+0,w
	addwf	0+(??_scale+2)+0,w
	addwf	0+(??_scale+2)+0,w
	addlw	low((__powers_-__stringbase)+036h)
	movwf	fsr0
	fcall	stringdir
	movwf	0+(?___ftmul)+03h
	fcall	stringdir
	movwf	1+(?___ftmul)+03h
	fcall	stringdir
	movwf	2+(?___ftmul)+03h
	fcall	___ftmul
	movf	(0+(?___ftmul)),w
	movwf	(_scale$4108)
	movf	(1+(?___ftmul)),w
	movwf	(_scale$4108+1)
	movf	(2+(?___ftmul)),w
	movwf	(_scale$4108+2)
	movlw	0Ah
	movwf	(?___awmod)
	clrf	(?___awmod+1)
	movf	(scale@scl),w
	movwf	0+(?___awmod)+02h
	clrf	1+(?___awmod)+02h
	btfsc	0+(?___awmod)+02h,7
	decf	1+(?___awmod)+02h,f
	fcall	___awmod
	movf	(0+?___awmod),w
	movwf	(??_scale+0)+0
	movf	(1+?___awmod),w
	movwf	((??_scale+0)+0+1)
	movf	0+(??_scale+0)+0,w
	addwf	0+(??_scale+0)+0,w
	addwf	0+(??_scale+0)+0,w
	addlw	low((__powers_-__stringbase))
	movwf	fsr0
	fcall	stringdir
	movwf	(?___ftmul)
	fcall	stringdir
	movwf	(?___ftmul+1)
	fcall	stringdir
	movwf	(?___ftmul+2)
	movf	(_scale$4108),w
	movwf	0+(?___ftmul)+03h
	movf	(_scale$4108+1),w
	movwf	1+(?___ftmul)+03h
	movf	(_scale$4108+2),w
	movwf	2+(?___ftmul)+03h
	fcall	___ftmul
	movf	(0+(?___ftmul)),w
	movwf	(?_scale)
	movf	(1+(?___ftmul)),w
	movwf	(?_scale+1)
	movf	(2+(?___ftmul)),w
	movwf	(?_scale+2)
	goto	l2186
	line	434
	
l6794:	
	movf	(scale@scl),w
	xorlw	80h
	addlw	-((0Bh)^80h)
	skipc
	goto	u3361
	goto	u3360
u3361:
	goto	l6800
u3360:
	line	435
	
l6796:	
	movlw	0Ah
	movwf	(?___awmod)
	clrf	(?___awmod+1)
	movf	(scale@scl),w
	movwf	0+(?___awmod)+02h
	clrf	1+(?___awmod)+02h
	btfsc	0+(?___awmod)+02h,7
	decf	1+(?___awmod)+02h,f
	fcall	___awmod
	movf	(0+?___awmod),w
	movwf	(??_scale+0)+0
	movf	(1+?___awmod),w
	movwf	((??_scale+0)+0+1)
	movf	0+(??_scale+0)+0,w
	addwf	0+(??_scale+0)+0,w
	addwf	0+(??_scale+0)+0,w
	addlw	low((__powers_-__stringbase))
	movwf	fsr0
	fcall	stringdir
	movwf	(?___ftmul)
	fcall	stringdir
	movwf	(?___ftmul+1)
	fcall	stringdir
	movwf	(?___ftmul+2)
	movlw	0Ah
	movwf	(?___awdiv)
	clrf	(?___awdiv+1)
	movf	(scale@scl),w
	movwf	0+(?___awdiv)+02h
	clrf	1+(?___awdiv)+02h
	btfsc	0+(?___awdiv)+02h,7
	decf	1+(?___awdiv)+02h,f
	fcall	___awdiv
	movf	(0+?___awdiv),w
	movwf	(??_scale+2)+0
	movf	(1+?___awdiv),w
	movwf	((??_scale+2)+0+1)
	movf	0+(??_scale+2)+0,w
	addwf	0+(??_scale+2)+0,w
	addwf	0+(??_scale+2)+0,w
	addlw	low((__powers_-__stringbase)+01Bh)
	movwf	fsr0
	fcall	stringdir
	movwf	0+(?___ftmul)+03h
	fcall	stringdir
	movwf	1+(?___ftmul)+03h
	fcall	stringdir
	movwf	2+(?___ftmul)+03h
	fcall	___ftmul
	movf	(0+(?___ftmul)),w
	movwf	(?_scale)
	movf	(1+(?___ftmul)),w
	movwf	(?_scale+1)
	movf	(2+(?___ftmul)),w
	movwf	(?_scale+2)
	goto	l2186
	line	436
	
l6800:	
	movlw	(03h)
	movwf	(?___bmul)
	movf	(scale@scl),w
	fcall	___bmul
	addlw	low((__powers_-__stringbase))
	movwf	fsr0
	fcall	stringdir
	movwf	(?_scale)
	fcall	stringdir
	movwf	(?_scale+1)
	fcall	stringdir
	movwf	(?_scale+2)
	line	437
	
l2186:	
	return
	opt stack 0
GLOBAL	__end_of_scale
	__end_of_scale:
;; =============== function _scale ends ============

	signat	_scale,4219
	global	_fround
psect	text524,local,class=CODE,delta=2
global __ptext524
__ptext524:

;; *************** function _fround *****************
;; Defined at:
;;		line 406 in file "C:\Program Files (x86)\HI-TECH Software\PICC\9.83\lib\doprnt.c"
;; Parameters:    Size  Location     Type
;;  prec            1    wreg     unsigned char 
;; Auto vars:     Size  Location     Type
;;  prec            1   53[BANK0 ] unsigned char 
;; Return value:  Size  Location     Type
;;                  3   44[BANK0 ] unsigned char 
;; Registers used:
;;		wreg, fsr0l, fsr0h, status,2, status,0, pclath, cstack
;; Tracked objects:
;;		On entry : 60/20
;;		On exit  : 60/0
;;		Unchanged: FFF9F/0
;; Data sizes:     COMMON   BANK0   BANK1   BANK3   BANK2
;;      Params:         0       3       0       0       0
;;      Locals:         0       7       0       0       0
;;      Temps:          0       0       0       0       0
;;      Totals:         0      10       0       0       0
;;Total ram usage:       10 bytes
;; Hardware stack levels used:    1
;; Hardware stack levels required when called:    3
;; This function calls:
;;		___lbmod
;;		___bmul
;;		___lbdiv
;;		___ftmul
;; This function is called by:
;;		_printf
;; This function uses a non-reentrant model
;;
psect	text524
	file	"C:\Program Files (x86)\HI-TECH Software\PICC\9.83\sources\doprnt.c"
	line	406
	global	__size_of_fround
	__size_of_fround	equ	__end_of_fround-_fround
	
_fround:	
	opt	stack 3
; Regs used in _fround: [wreg-fsr0h+status,2+status,0+pclath+cstack]
;fround@prec stored from wreg
	line	409
	bcf	status, 5	;RP0=0, select bank0
	movwf	(fround@prec)
	
l6742:	
	movlw	(06Eh)
	subwf	(fround@prec),w
	skipc
	goto	u3301
	goto	u3300
u3301:
	goto	l6752
u3300:
	line	410
	
l6744:	
	movlw	(03h)
	movwf	(?___bmul)
	movlw	(0Ah)
	movwf	(?___lbdiv)
	movlw	(064h)
	movwf	(?___lbmod)
	movf	(fround@prec),w
	fcall	___lbmod
	fcall	___lbdiv
	fcall	___bmul
	addlw	low((__npowers_-__stringbase)+01Bh)
	movwf	fsr0
	fcall	stringdir
	movwf	(?___ftmul)
	fcall	stringdir
	movwf	(?___ftmul+1)
	fcall	stringdir
	movwf	(?___ftmul+2)
	movlw	(03h)
	movwf	(?___bmul)
	movlw	(064h)
	movwf	(?___lbdiv)
	movf	(fround@prec),w
	fcall	___lbdiv
	fcall	___bmul
	addlw	low((__npowers_-__stringbase)+036h)
	movwf	fsr0
	fcall	stringdir
	movwf	0+(?___ftmul)+03h
	fcall	stringdir
	movwf	1+(?___ftmul)+03h
	fcall	stringdir
	movwf	2+(?___ftmul)+03h
	fcall	___ftmul
	movf	(0+(?___ftmul)),w
	movwf	(_fround$4106)
	movf	(1+(?___ftmul)),w
	movwf	(_fround$4106+1)
	movf	(2+(?___ftmul)),w
	movwf	(_fround$4106+2)
	movlw	(03h)
	movwf	(?___bmul)
	movlw	(0Ah)
	movwf	(?___lbmod)
	movf	(fround@prec),w
	fcall	___lbmod
	fcall	___bmul
	addlw	low((__npowers_-__stringbase))
	movwf	fsr0
	fcall	stringdir
	movwf	(?___ftmul)
	fcall	stringdir
	movwf	(?___ftmul+1)
	fcall	stringdir
	movwf	(?___ftmul+2)
	movf	(_fround$4106),w
	movwf	0+(?___ftmul)+03h
	movf	(_fround$4106+1),w
	movwf	1+(?___ftmul)+03h
	movf	(_fround$4106+2),w
	movwf	2+(?___ftmul)+03h
	fcall	___ftmul
	movf	(0+(?___ftmul)),w
	movwf	(_fround$4107)
	movf	(1+(?___ftmul)),w
	movwf	(_fround$4107+1)
	movf	(2+(?___ftmul)),w
	movwf	(_fround$4107+2)
	
l6746:	
	movlw	0x0
	movwf	(?___ftmul)
	movlw	0x0
	movwf	(?___ftmul+1)
	movlw	0x3f
	movwf	(?___ftmul+2)
	movf	(_fround$4107),w
	movwf	0+(?___ftmul)+03h
	movf	(_fround$4107+1),w
	movwf	1+(?___ftmul)+03h
	movf	(_fround$4107+2),w
	movwf	2+(?___ftmul)+03h
	fcall	___ftmul
	movf	(0+(?___ftmul)),w
	movwf	(?_fround)
	movf	(1+(?___ftmul)),w
	movwf	(?_fround+1)
	movf	(2+(?___ftmul)),w
	movwf	(?_fround+2)
	goto	l2179
	line	411
	
l6752:	
	movlw	(0Bh)
	subwf	(fround@prec),w
	skipc
	goto	u3311
	goto	u3310
u3311:
	goto	l6760
u3310:
	line	412
	
l6754:	
	movlw	(03h)
	movwf	(?___bmul)
	movlw	(0Ah)
	movwf	(?___lbmod)
	movf	(fround@prec),w
	fcall	___lbmod
	fcall	___bmul
	addlw	low((__npowers_-__stringbase))
	movwf	fsr0
	fcall	stringdir
	movwf	(?___ftmul)
	fcall	stringdir
	movwf	(?___ftmul+1)
	fcall	stringdir
	movwf	(?___ftmul+2)
	movlw	(03h)
	movwf	(?___bmul)
	movlw	(0Ah)
	movwf	(?___lbdiv)
	movf	(fround@prec),w
	fcall	___lbdiv
	fcall	___bmul
	addlw	low((__npowers_-__stringbase)+01Bh)
	movwf	fsr0
	fcall	stringdir
	movwf	0+(?___ftmul)+03h
	fcall	stringdir
	movwf	1+(?___ftmul)+03h
	fcall	stringdir
	movwf	2+(?___ftmul)+03h
	fcall	___ftmul
	movf	(0+(?___ftmul)),w
	movwf	(_fround$4106)
	movf	(1+(?___ftmul)),w
	movwf	(_fround$4106+1)
	movf	(2+(?___ftmul)),w
	movwf	(_fround$4106+2)
	
l6756:	
	movlw	0x0
	movwf	(?___ftmul)
	movlw	0x0
	movwf	(?___ftmul+1)
	movlw	0x3f
	movwf	(?___ftmul+2)
	movf	(_fround$4106),w
	movwf	0+(?___ftmul)+03h
	movf	(_fround$4106+1),w
	movwf	1+(?___ftmul)+03h
	movf	(_fround$4106+2),w
	movwf	2+(?___ftmul)+03h
	fcall	___ftmul
	movf	(0+(?___ftmul)),w
	movwf	(?_fround)
	movf	(1+(?___ftmul)),w
	movwf	(?_fround+1)
	movf	(2+(?___ftmul)),w
	movwf	(?_fround+2)
	goto	l2179
	line	413
	
l6760:	
	movlw	0x0
	movwf	(?___ftmul)
	movlw	0x0
	movwf	(?___ftmul+1)
	movlw	0x3f
	movwf	(?___ftmul+2)
	movlw	(03h)
	movwf	(?___bmul)
	movf	(fround@prec),w
	fcall	___bmul
	addlw	low((__npowers_-__stringbase))
	movwf	fsr0
	fcall	stringdir
	movwf	0+(?___ftmul)+03h
	fcall	stringdir
	movwf	1+(?___ftmul)+03h
	fcall	stringdir
	movwf	2+(?___ftmul)+03h
	fcall	___ftmul
	movf	(0+(?___ftmul)),w
	movwf	(?_fround)
	movf	(1+(?___ftmul)),w
	movwf	(?_fround+1)
	movf	(2+(?___ftmul)),w
	movwf	(?_fround+2)
	line	414
	
l2179:	
	return
	opt stack 0
GLOBAL	__end_of_fround
	__end_of_fround:
;; =============== function _fround ends ============

	signat	_fround,4219
	global	_lcd_gotoxy
psect	text525,local,class=CODE,delta=2
global __ptext525
__ptext525:

;; *************** function _lcd_gotoxy *****************
;; Defined at:
;;		line 162 in file "D:\TTVXL\Library\lcd(16).c"
;; Parameters:    Size  Location     Type
;;  col             1    wreg     unsigned char 
;;  row             1    7[COMMON] unsigned char 
;; Auto vars:     Size  Location     Type
;;  col             1    8[COMMON] unsigned char 
;;  address         1    9[COMMON] unsigned char 
;; Return value:  Size  Location     Type
;;		None               void
;; Registers used:
;;		wreg, status,2, status,0, pclath, cstack
;; Tracked objects:
;;		On entry : 0/0
;;		On exit  : 60/0
;;		Unchanged: 0/0
;; Data sizes:     COMMON   BANK0   BANK1   BANK3   BANK2
;;      Params:         1       0       0       0       0
;;      Locals:         2       0       0       0       0
;;      Temps:          0       0       0       0       0
;;      Totals:         3       0       0       0       0
;;Total ram usage:        3 bytes
;; Hardware stack levels used:    1
;; Hardware stack levels required when called:    2
;; This function calls:
;;		_lcd_put_byte
;;		_lcd_busy
;; This function is called by:
;;		_main
;;		_lcd_putc
;; This function uses a non-reentrant model
;;
psect	text525
	file	"D:\TTVXL\Library\lcd(16).c"
	line	162
	global	__size_of_lcd_gotoxy
	__size_of_lcd_gotoxy	equ	__end_of_lcd_gotoxy-_lcd_gotoxy
	
_lcd_gotoxy:	
	opt	stack 2
; Regs used in _lcd_gotoxy: [wreg+status,2+status,0+pclath+cstack]
;lcd_gotoxy@col stored from wreg
	line	165
	movwf	(lcd_gotoxy@col)
	
l6730:	
;lcd(16).c: 163: unsigned char address;
;lcd(16).c: 165: if(row!=0)
	movf	(lcd_gotoxy@row),w
	skipz
	goto	u3280
	goto	l6734
u3280:
	line	166
	
l6732:	
;lcd(16).c: 166: address=0x40;
	movlw	(040h)
	movwf	(lcd_gotoxy@address)
	goto	l6736
	line	168
	
l6734:	
;lcd(16).c: 167: else
;lcd(16).c: 168: address=0;
	clrf	(lcd_gotoxy@address)
	line	170
	
l6736:	
;lcd(16).c: 170: address += col;
	movf	(lcd_gotoxy@col),w
	addwf	(lcd_gotoxy@address),f
	line	171
	
l6738:	
;lcd(16).c: 171: lcd_put_byte(0,0x80|address);
	movf	(lcd_gotoxy@address),w
	iorlw	080h
	movwf	(?_lcd_put_byte)
	movlw	(0)
	fcall	_lcd_put_byte
	line	172
;lcd(16).c: 172: while(lcd_busy());
	
l6740:	
	fcall	_lcd_busy
	iorlw	0
	skipz
	goto	u3291
	goto	u3290
u3291:
	goto	l6740
u3290:
	line	173
	
l2151:	
	return
	opt stack 0
GLOBAL	__end_of_lcd_gotoxy
	__end_of_lcd_gotoxy:
;; =============== function _lcd_gotoxy ends ============

	signat	_lcd_gotoxy,8312
	global	_lcd_init
psect	text526,local,class=CODE,delta=2
global __ptext526
__ptext526:

;; *************** function _lcd_init *****************
;; Defined at:
;;		line 5 in file "D:\TTVXL\Library\lcd(16).c"
;; Parameters:    Size  Location     Type
;;		None
;; Auto vars:     Size  Location     Type
;;  i               1    0        unsigned char 
;; Return value:  Size  Location     Type
;;		None               void
;; Registers used:
;;		wreg, status,2, status,0, pclath, cstack
;; Tracked objects:
;;		On entry : 17F/60
;;		On exit  : 60/0
;;		Unchanged: 0/0
;; Data sizes:     COMMON   BANK0   BANK1   BANK3   BANK2
;;      Params:         0       0       0       0       0
;;      Locals:         0       0       0       0       0
;;      Temps:          3       0       0       0       0
;;      Totals:         3       0       0       0       0
;;Total ram usage:        3 bytes
;; Hardware stack levels used:    1
;; Hardware stack levels required when called:    2
;; This function calls:
;;		_lcd_put_byte
;;		_lcd_busy
;; This function is called by:
;;		_main
;; This function uses a non-reentrant model
;;
psect	text526
	file	"D:\TTVXL\Library\lcd(16).c"
	line	5
	global	__size_of_lcd_init
	__size_of_lcd_init	equ	__end_of_lcd_init-_lcd_init
	
_lcd_init:	
	opt	stack 5
; Regs used in _lcd_init: [wreg+status,2+status,0+pclath+cstack]
	line	7
	
l6692:	
;lcd(16).c: 6: unsigned char i;
;lcd(16).c: 7: TRISD3 = 0;
	bcf	status, 6	;RP1=0, select bank1
	bcf	(1091/8)^080h,(1091)&7
	line	8
;lcd(16).c: 8: TRISD1 = 0;
	bcf	(1089/8)^080h,(1089)&7
	line	9
;lcd(16).c: 9: TRISD2 = 0;
	bcf	(1090/8)^080h,(1090)&7
	line	10
;lcd(16).c: 10: TRISD4 = 0;
	bcf	(1092/8)^080h,(1092)&7
	line	11
;lcd(16).c: 11: TRISD5 = 0;
	bcf	(1093/8)^080h,(1093)&7
	line	12
;lcd(16).c: 12: TRISD6 = 0;
	bcf	(1094/8)^080h,(1094)&7
	line	13
;lcd(16).c: 13: TRISD7 = 0;
	bcf	(1095/8)^080h,(1095)&7
	line	14
;lcd(16).c: 14: RD3 = 0;
	bcf	status, 5	;RP0=0, select bank0
	bcf	(67/8),(67)&7
	line	15
;lcd(16).c: 15: RD1 = 0;
	bcf	(65/8),(65)&7
	line	16
;lcd(16).c: 16: RD2 = 0;
	bcf	(66/8),(66)&7
	line	18
	
l6694:	
;lcd(16).c: 18: _delay((unsigned long)((100)*(20000000/4000.0)));
	opt asmopt_off
movlw  3
movwf	((??_lcd_init+0)+0+2),f
movlw	138
movwf	((??_lcd_init+0)+0+1),f
	movlw	86
movwf	((??_lcd_init+0)+0),f
u3957:
	decfsz	((??_lcd_init+0)+0),f
	goto	u3957
	decfsz	((??_lcd_init+0)+0+1),f
	goto	u3957
	decfsz	((??_lcd_init+0)+0+2),f
	goto	u3957
	nop2
opt asmopt_on

	line	21
	
l6696:	
;lcd(16).c: 21: lcd_put_byte(0,0x30);
	movlw	(030h)
	movwf	(?_lcd_put_byte)
	movlw	(0)
	fcall	_lcd_put_byte
	line	22
	
l6698:	
;lcd(16).c: 22: _delay((unsigned long)((50)*(20000000/4000.0)));
	opt asmopt_off
movlw  2
movwf	((??_lcd_init+0)+0+2),f
movlw	69
movwf	((??_lcd_init+0)+0+1),f
	movlw	169
movwf	((??_lcd_init+0)+0),f
u3967:
	decfsz	((??_lcd_init+0)+0),f
	goto	u3967
	decfsz	((??_lcd_init+0)+0+1),f
	goto	u3967
	decfsz	((??_lcd_init+0)+0+2),f
	goto	u3967
	nop2
opt asmopt_on

	line	23
;lcd(16).c: 23: lcd_put_byte(0,0x30);
	movlw	(030h)
	movwf	(?_lcd_put_byte)
	movlw	(0)
	fcall	_lcd_put_byte
	line	24
	
l6700:	
;lcd(16).c: 24: _delay((unsigned long)((50)*(20000000/4000.0)));
	opt asmopt_off
movlw  2
movwf	((??_lcd_init+0)+0+2),f
movlw	69
movwf	((??_lcd_init+0)+0+1),f
	movlw	169
movwf	((??_lcd_init+0)+0),f
u3977:
	decfsz	((??_lcd_init+0)+0),f
	goto	u3977
	decfsz	((??_lcd_init+0)+0+1),f
	goto	u3977
	decfsz	((??_lcd_init+0)+0+2),f
	goto	u3977
	nop2
opt asmopt_on

	line	25
	
l6702:	
;lcd(16).c: 25: lcd_put_byte(0,0x32);
	movlw	(032h)
	movwf	(?_lcd_put_byte)
	movlw	(0)
	fcall	_lcd_put_byte
	line	26
;lcd(16).c: 26: _delay((unsigned long)((100)*(20000000/4000.0)));
	opt asmopt_off
movlw  3
movwf	((??_lcd_init+0)+0+2),f
movlw	138
movwf	((??_lcd_init+0)+0+1),f
	movlw	86
movwf	((??_lcd_init+0)+0),f
u3987:
	decfsz	((??_lcd_init+0)+0),f
	goto	u3987
	decfsz	((??_lcd_init+0)+0+1),f
	goto	u3987
	decfsz	((??_lcd_init+0)+0+2),f
	goto	u3987
	nop2
opt asmopt_on

	line	27
;lcd(16).c: 27: _delay((unsigned long)((100)*(20000000/4000.0)));
	opt asmopt_off
movlw  3
movwf	((??_lcd_init+0)+0+2),f
movlw	138
movwf	((??_lcd_init+0)+0+1),f
	movlw	86
movwf	((??_lcd_init+0)+0),f
u3997:
	decfsz	((??_lcd_init+0)+0),f
	goto	u3997
	decfsz	((??_lcd_init+0)+0+1),f
	goto	u3997
	decfsz	((??_lcd_init+0)+0+2),f
	goto	u3997
	nop2
opt asmopt_on

	line	28
;lcd(16).c: 28: _delay((unsigned long)((100)*(20000000/4000.0)));
	opt asmopt_off
movlw  3
movwf	((??_lcd_init+0)+0+2),f
movlw	138
movwf	((??_lcd_init+0)+0+1),f
	movlw	86
movwf	((??_lcd_init+0)+0),f
u4007:
	decfsz	((??_lcd_init+0)+0),f
	goto	u4007
	decfsz	((??_lcd_init+0)+0+1),f
	goto	u4007
	decfsz	((??_lcd_init+0)+0+2),f
	goto	u4007
	nop2
opt asmopt_on

	line	30
;lcd(16).c: 30: while(lcd_busy());
	
l6704:	
	fcall	_lcd_busy
	iorlw	0
	skipz
	goto	u3211
	goto	u3210
u3211:
	goto	l6704
u3210:
	line	31
	
l6706:	
;lcd(16).c: 31: lcd_put_byte(0,0b00101100 & 0b00111000);
	movlw	(028h)
	movwf	(?_lcd_put_byte)
	movlw	(0)
	fcall	_lcd_put_byte
	line	32
;lcd(16).c: 32: while(lcd_busy());
	
l6708:	
	fcall	_lcd_busy
	iorlw	0
	skipz
	goto	u3221
	goto	u3220
u3221:
	goto	l6708
u3220:
	line	34
	
l6710:	
;lcd(16).c: 34: lcd_put_byte(0,0b00001011&0b00001101&0b00001110);
	movlw	(08h)
	movwf	(?_lcd_put_byte)
	movlw	(0)
	fcall	_lcd_put_byte
	line	35
;lcd(16).c: 35: while(lcd_busy());
	
l6712:	
	fcall	_lcd_busy
	iorlw	0
	skipz
	goto	u3231
	goto	u3230
u3231:
	goto	l6712
u3230:
	line	36
	
l6714:	
;lcd(16).c: 36: lcd_put_byte(0,0b00001111&0b00001101&0b00001110);
	movlw	(0Ch)
	movwf	(?_lcd_put_byte)
	movlw	(0)
	fcall	_lcd_put_byte
	line	37
;lcd(16).c: 37: while(lcd_busy());
	
l6716:	
	fcall	_lcd_busy
	iorlw	0
	skipz
	goto	u3241
	goto	u3240
u3241:
	goto	l6716
u3240:
	line	39
	
l6718:	
;lcd(16).c: 39: lcd_put_byte(0,0x01);
	clrf	(?_lcd_put_byte)
	incf	(?_lcd_put_byte),f
	movlw	(0)
	fcall	_lcd_put_byte
	line	40
;lcd(16).c: 40: while(lcd_busy());
	
l6720:	
	fcall	_lcd_busy
	iorlw	0
	skipz
	goto	u3251
	goto	u3250
u3251:
	goto	l6720
u3250:
	line	41
	
l6722:	
;lcd(16).c: 41: lcd_put_byte(0,0b00000100);
	movlw	(04h)
	movwf	(?_lcd_put_byte)
	movlw	(0)
	fcall	_lcd_put_byte
	line	42
;lcd(16).c: 42: while(lcd_busy());
	
l6724:	
	fcall	_lcd_busy
	iorlw	0
	skipz
	goto	u3261
	goto	u3260
u3261:
	goto	l6724
u3260:
	line	43
	
l6726:	
;lcd(16).c: 43: lcd_put_byte(0,0x01);
	clrf	(?_lcd_put_byte)
	incf	(?_lcd_put_byte),f
	movlw	(0)
	fcall	_lcd_put_byte
	line	44
;lcd(16).c: 44: while(lcd_busy());
	
l6728:	
	fcall	_lcd_busy
	iorlw	0
	skipz
	goto	u3271
	goto	u3270
u3271:
	goto	l6728
u3270:
	line	45
	
l2117:	
	return
	opt stack 0
GLOBAL	__end_of_lcd_init
	__end_of_lcd_init:
;; =============== function _lcd_init ends ============

	signat	_lcd_init,88
	global	___lltoft
psect	text527,local,class=CODE,delta=2
global __ptext527
__ptext527:

;; *************** function ___lltoft *****************
;; Defined at:
;;		line 36 in file "C:\Program Files (x86)\HI-TECH Software\PICC\9.83\sources\lltoft.c"
;; Parameters:    Size  Location     Type
;;  c               4    0[BANK0 ] unsigned long 
;; Auto vars:     Size  Location     Type
;;  exp             1   10[COMMON] unsigned char 
;; Return value:  Size  Location     Type
;;                  3    0[BANK0 ] float 
;; Registers used:
;;		wreg, status,2, status,0, pclath, cstack
;; Tracked objects:
;;		On entry : 60/0
;;		On exit  : 60/0
;;		Unchanged: FFF9F/0
;; Data sizes:     COMMON   BANK0   BANK1   BANK3   BANK2
;;      Params:         0       4       0       0       0
;;      Locals:         1       0       0       0       0
;;      Temps:          0       0       0       0       0
;;      Totals:         1       4       0       0       0
;;Total ram usage:        5 bytes
;; Hardware stack levels used:    1
;; Hardware stack levels required when called:    2
;; This function calls:
;;		___ftpack
;; This function is called by:
;;		_printf
;; This function uses a non-reentrant model
;;
psect	text527
	file	"C:\Program Files (x86)\HI-TECH Software\PICC\9.83\sources\lltoft.c"
	line	36
	global	__size_of___lltoft
	__size_of___lltoft	equ	__end_of___lltoft-___lltoft
	
___lltoft:	
	opt	stack 4
; Regs used in ___lltoft: [wreg+status,2+status,0+pclath+cstack]
	line	38
	
l6682:	
	movlw	(08Eh)
	movwf	(___lltoft@exp)
	line	41
	goto	l6686
	line	42
	
l6684:	
	clrc
	rrf	(___lltoft@c+3),f
	rrf	(___lltoft@c+2),f
	rrf	(___lltoft@c+1),f
	rrf	(___lltoft@c),f
	line	43
	incf	(___lltoft@exp),f
	line	41
	
l6686:	
	movlw	high highword(-16777216)
	andwf	(___lltoft@c+3),w
	btfss	status,2
	goto	u3201
	goto	u3200
u3201:
	goto	l6684
u3200:
	line	45
	
l6688:	
	movf	(___lltoft@c),w
	movwf	(?___ftpack)
	movf	(___lltoft@c+1),w
	movwf	(?___ftpack+1)
	movf	(___lltoft@c+2),w
	movwf	(?___ftpack+2)
	movf	(___lltoft@exp),w
	movwf	0+(?___ftpack)+03h
	clrf	0+(?___ftpack)+04h
	fcall	___ftpack
	movf	(0+(?___ftpack)),w
	movwf	(?___lltoft)
	movf	(1+(?___ftpack)),w
	movwf	(?___lltoft+1)
	movf	(2+(?___ftpack)),w
	movwf	(?___lltoft+2)
	line	46
	
l3536:	
	return
	opt stack 0
GLOBAL	__end_of___lltoft
	__end_of___lltoft:
;; =============== function ___lltoft ends ============

	signat	___lltoft,4219
	global	___altoft
psect	text528,local,class=CODE,delta=2
global __ptext528
__ptext528:

;; *************** function ___altoft *****************
;; Defined at:
;;		line 43 in file "C:\Program Files (x86)\HI-TECH Software\PICC\9.83\sources\altoft.c"
;; Parameters:    Size  Location     Type
;;  c               4    0[BANK0 ] long 
;; Auto vars:     Size  Location     Type
;;  sign            1   11[COMMON] unsigned char 
;;  exp             1   10[COMMON] unsigned char 
;; Return value:  Size  Location     Type
;;                  3    0[BANK0 ] float 
;; Registers used:
;;		wreg, status,2, status,0, pclath, cstack
;; Tracked objects:
;;		On entry : 60/0
;;		On exit  : 60/0
;;		Unchanged: FFF9F/0
;; Data sizes:     COMMON   BANK0   BANK1   BANK3   BANK2
;;      Params:         0       4       0       0       0
;;      Locals:         2       0       0       0       0
;;      Temps:          0       0       0       0       0
;;      Totals:         2       4       0       0       0
;;Total ram usage:        6 bytes
;; Hardware stack levels used:    1
;; Hardware stack levels required when called:    2
;; This function calls:
;;		___ftpack
;; This function is called by:
;;		_main
;; This function uses a non-reentrant model
;;
psect	text528
	file	"C:\Program Files (x86)\HI-TECH Software\PICC\9.83\sources\altoft.c"
	line	43
	global	__size_of___altoft
	__size_of___altoft	equ	__end_of___altoft-___altoft
	
___altoft:	
	opt	stack 5
; Regs used in ___altoft: [wreg+status,2+status,0+pclath+cstack]
	line	45
	
l6666:	
	clrf	(___altoft@sign)
	line	46
	
l6668:	
	movlw	(08Eh)
	movwf	(___altoft@exp)
	line	47
	
l6670:	
	btfss	(___altoft@c+3),7
	goto	u3181
	goto	u3180
u3181:
	goto	l6676
u3180:
	line	48
	
l6672:	
	comf	(___altoft@c),f
	comf	(___altoft@c+1),f
	comf	(___altoft@c+2),f
	comf	(___altoft@c+3),f
	incf	(___altoft@c),f
	skipnz
	incf	(___altoft@c+1),f
	skipnz
	incf	(___altoft@c+2),f
	skipnz
	incf	(___altoft@c+3),f
	line	49
	clrf	(___altoft@sign)
	incf	(___altoft@sign),f
	goto	l6676
	line	53
	
l6674:	
	clrc
	rrf	(___altoft@c+3),f
	rrf	(___altoft@c+2),f
	rrf	(___altoft@c+1),f
	rrf	(___altoft@c),f
	line	54
	incf	(___altoft@exp),f
	line	52
	
l6676:	
	movlw	high highword(-16777216)
	andwf	(___altoft@c+3),w
	btfss	status,2
	goto	u3191
	goto	u3190
u3191:
	goto	l6674
u3190:
	line	56
	
l6678:	
	movf	(___altoft@c),w
	movwf	(?___ftpack)
	movf	(___altoft@c+1),w
	movwf	(?___ftpack+1)
	movf	(___altoft@c+2),w
	movwf	(?___ftpack+2)
	movf	(___altoft@exp),w
	movwf	0+(?___ftpack)+03h
	movf	(___altoft@sign),w
	movwf	0+(?___ftpack)+04h
	fcall	___ftpack
	movf	(0+(?___ftpack)),w
	movwf	(?___altoft)
	movf	(1+(?___ftpack)),w
	movwf	(?___altoft+1)
	movf	(2+(?___ftpack)),w
	movwf	(?___altoft+2)
	line	57
	
l3528:	
	return
	opt stack 0
GLOBAL	__end_of___altoft
	__end_of___altoft:
;; =============== function ___altoft ends ============

	signat	___altoft,4219
	global	___ftmul
psect	text529,local,class=CODE,delta=2
global __ptext529
__ptext529:

;; *************** function ___ftmul *****************
;; Defined at:
;;		line 52 in file "C:\Program Files (x86)\HI-TECH Software\PICC\9.83\sources\ftmul.c"
;; Parameters:    Size  Location     Type
;;  f1              3   17[BANK0 ] float 
;;  f2              3   20[BANK0 ] float 
;; Auto vars:     Size  Location     Type
;;  f3_as_produc    3   27[BANK0 ] unsigned um
;;  sign            1   31[BANK0 ] unsigned char 
;;  cntr            1   30[BANK0 ] unsigned char 
;;  exp             1   26[BANK0 ] unsigned char 
;; Return value:  Size  Location     Type
;;                  3   17[BANK0 ] float 
;; Registers used:
;;		wreg, status,2, status,0, pclath, cstack
;; Tracked objects:
;;		On entry : 60/0
;;		On exit  : 60/0
;;		Unchanged: FFF9F/0
;; Data sizes:     COMMON   BANK0   BANK1   BANK3   BANK2
;;      Params:         0       6       0       0       0
;;      Locals:         0       6       0       0       0
;;      Temps:          0       3       0       0       0
;;      Totals:         0      15       0       0       0
;;Total ram usage:       15 bytes
;; Hardware stack levels used:    1
;; Hardware stack levels required when called:    2
;; This function calls:
;;		___ftpack
;; This function is called by:
;;		_main
;;		_fround
;;		_scale
;;		_printf
;; This function uses a non-reentrant model
;;
psect	text529
	file	"C:\Program Files (x86)\HI-TECH Software\PICC\9.83\sources\ftmul.c"
	line	52
	global	__size_of___ftmul
	__size_of___ftmul	equ	__end_of___ftmul-___ftmul
	
___ftmul:	
	opt	stack 3
; Regs used in ___ftmul: [wreg+status,2+status,0+pclath+cstack]
	line	56
	
l6610:	
	movf	(___ftmul@f1),w
	movwf	((??___ftmul+0)+0)
	movf	(___ftmul@f1+1),w
	movwf	((??___ftmul+0)+0+1)
	movf	(___ftmul@f1+2),w
	movwf	((??___ftmul+0)+0+2)
	clrc
	rlf	(??___ftmul+0)+1,w
	rlf	(??___ftmul+0)+2,w
	movwf	(___ftmul@exp)
	movf	((___ftmul@exp)),f
	skipz
	goto	u3101
	goto	u3100
u3101:
	goto	l6616
u3100:
	line	57
	
l6612:	
	clrf	(?___ftmul)
	clrf	(?___ftmul+1)
	clrf	(?___ftmul+2)
	goto	l3395
	line	58
	
l6616:	
	movf	(___ftmul@f2),w
	movwf	((??___ftmul+0)+0)
	movf	(___ftmul@f2+1),w
	movwf	((??___ftmul+0)+0+1)
	movf	(___ftmul@f2+2),w
	movwf	((??___ftmul+0)+0+2)
	clrc
	rlf	(??___ftmul+0)+1,w
	rlf	(??___ftmul+0)+2,w
	movwf	(___ftmul@sign)
	movf	((___ftmul@sign)),f
	skipz
	goto	u3111
	goto	u3110
u3111:
	goto	l6622
u3110:
	line	59
	
l6618:	
	clrf	(?___ftmul)
	clrf	(?___ftmul+1)
	clrf	(?___ftmul+2)
	goto	l3395
	line	60
	
l6622:	
	movf	(___ftmul@sign),w
	addlw	07Bh
	addwf	(___ftmul@exp),f
	line	61
	
l6624:	
	movf	0+(((___ftmul@f1))+2),w
	movwf	(___ftmul@sign)
	line	62
	
l6626:	
	movf	0+(((___ftmul@f2))+2),w
	xorwf	(___ftmul@sign),f
	line	63
	
l6628:	
	movlw	(080h)
	andwf	(___ftmul@sign),f
	line	64
	
l6630:	
	bsf	(___ftmul@f1)+(15/8),(15)&7
	line	66
	
l6632:	
	bsf	(___ftmul@f2)+(15/8),(15)&7
	line	67
	
l6634:	
	movlw	0FFh
	andwf	(___ftmul@f2),f
	movlw	0FFh
	andwf	(___ftmul@f2+1),f
	movlw	0
	andwf	(___ftmul@f2+2),f
	line	68
	
l6636:	
	clrf	(___ftmul@f3_as_product)
	clrf	(___ftmul@f3_as_product+1)
	clrf	(___ftmul@f3_as_product+2)
	line	69
	
l6638:	
	movlw	(07h)
	movwf	(___ftmul@cntr)
	line	71
	
l6640:	
	btfss	(___ftmul@f1),(0)&7
	goto	u3121
	goto	u3120
u3121:
	goto	l6644
u3120:
	line	72
	
l6642:	
	movf	(___ftmul@f2),w
	addwf	(___ftmul@f3_as_product),f
	movf	(___ftmul@f2+1),w
	clrz
	skipnc
	incf	(___ftmul@f2+1),w
	skipnz
	goto	u3131
	addwf	(___ftmul@f3_as_product+1),f
u3131:
	movf	(___ftmul@f2+2),w
	clrz
	skipnc
	incf	(___ftmul@f2+2),w
	skipnz
	goto	u3132
	addwf	(___ftmul@f3_as_product+2),f
u3132:

	line	73
	
l6644:	
	clrc
	rrf	(___ftmul@f1+2),f
	rrf	(___ftmul@f1+1),f
	rrf	(___ftmul@f1),f
	line	74
	
l6646:	
	clrc
	rlf	(___ftmul@f2),f
	rlf	(___ftmul@f2+1),f
	rlf	(___ftmul@f2+2),f
	line	75
	
l6648:	
	decfsz	(___ftmul@cntr),f
	goto	u3141
	goto	u3140
u3141:
	goto	l6640
u3140:
	line	76
	
l6650:	
	movlw	(09h)
	movwf	(___ftmul@cntr)
	line	78
	
l6652:	
	btfss	(___ftmul@f1),(0)&7
	goto	u3151
	goto	u3150
u3151:
	goto	l6656
u3150:
	line	79
	
l6654:	
	movf	(___ftmul@f2),w
	addwf	(___ftmul@f3_as_product),f
	movf	(___ftmul@f2+1),w
	clrz
	skipnc
	incf	(___ftmul@f2+1),w
	skipnz
	goto	u3161
	addwf	(___ftmul@f3_as_product+1),f
u3161:
	movf	(___ftmul@f2+2),w
	clrz
	skipnc
	incf	(___ftmul@f2+2),w
	skipnz
	goto	u3162
	addwf	(___ftmul@f3_as_product+2),f
u3162:

	line	80
	
l6656:	
	clrc
	rrf	(___ftmul@f1+2),f
	rrf	(___ftmul@f1+1),f
	rrf	(___ftmul@f1),f
	line	81
	
l6658:	
	clrc
	rrf	(___ftmul@f3_as_product+2),f
	rrf	(___ftmul@f3_as_product+1),f
	rrf	(___ftmul@f3_as_product),f
	line	82
	
l6660:	
	decfsz	(___ftmul@cntr),f
	goto	u3171
	goto	u3170
u3171:
	goto	l6652
u3170:
	line	83
	
l6662:	
	movf	(___ftmul@f3_as_product),w
	movwf	(?___ftpack)
	movf	(___ftmul@f3_as_product+1),w
	movwf	(?___ftpack+1)
	movf	(___ftmul@f3_as_product+2),w
	movwf	(?___ftpack+2)
	movf	(___ftmul@exp),w
	movwf	0+(?___ftpack)+03h
	movf	(___ftmul@sign),w
	movwf	0+(?___ftpack)+04h
	fcall	___ftpack
	movf	(0+(?___ftpack)),w
	movwf	(?___ftmul)
	movf	(1+(?___ftpack)),w
	movwf	(?___ftmul+1)
	movf	(2+(?___ftpack)),w
	movwf	(?___ftmul+2)
	line	84
	
l3395:	
	return
	opt stack 0
GLOBAL	__end_of___ftmul
	__end_of___ftmul:
;; =============== function ___ftmul ends ============

	signat	___ftmul,8315
	global	___ftadd
psect	text530,local,class=CODE,delta=2
global __ptext530
__ptext530:

;; *************** function ___ftadd *****************
;; Defined at:
;;		line 87 in file "C:\Program Files (x86)\HI-TECH Software\PICC\9.83\sources\ftadd.c"
;; Parameters:    Size  Location     Type
;;  f1              3   32[BANK0 ] float 
;;  f2              3   35[BANK0 ] float 
;; Auto vars:     Size  Location     Type
;;  exp1            1   43[BANK0 ] unsigned char 
;;  exp2            1   42[BANK0 ] unsigned char 
;;  sign            1   41[BANK0 ] unsigned char 
;; Return value:  Size  Location     Type
;;                  3   32[BANK0 ] float 
;; Registers used:
;;		wreg, status,2, status,0, pclath, cstack
;; Tracked objects:
;;		On entry : 60/0
;;		On exit  : 60/0
;;		Unchanged: FFF9F/0
;; Data sizes:     COMMON   BANK0   BANK1   BANK3   BANK2
;;      Params:         0       6       0       0       0
;;      Locals:         0       3       0       0       0
;;      Temps:          0       3       0       0       0
;;      Totals:         0      12       0       0       0
;;Total ram usage:       12 bytes
;; Hardware stack levels used:    1
;; Hardware stack levels required when called:    2
;; This function calls:
;;		___ftpack
;; This function is called by:
;;		_printf
;;		___ftsub
;; This function uses a non-reentrant model
;;
psect	text530
	file	"C:\Program Files (x86)\HI-TECH Software\PICC\9.83\sources\ftadd.c"
	line	87
	global	__size_of___ftadd
	__size_of___ftadd	equ	__end_of___ftadd-___ftadd
	
___ftadd:	
	opt	stack 3
; Regs used in ___ftadd: [wreg+status,2+status,0+pclath+cstack]
	line	90
	
l6532:	
	movf	(___ftadd@f1),w
	movwf	((??___ftadd+0)+0)
	movf	(___ftadd@f1+1),w
	movwf	((??___ftadd+0)+0+1)
	movf	(___ftadd@f1+2),w
	movwf	((??___ftadd+0)+0+2)
	clrc
	rlf	(??___ftadd+0)+1,w
	rlf	(??___ftadd+0)+2,w
	movwf	(___ftadd@exp1)
	line	91
	movf	(___ftadd@f2),w
	movwf	((??___ftadd+0)+0)
	movf	(___ftadd@f2+1),w
	movwf	((??___ftadd+0)+0+1)
	movf	(___ftadd@f2+2),w
	movwf	((??___ftadd+0)+0+2)
	clrc
	rlf	(??___ftadd+0)+1,w
	rlf	(??___ftadd+0)+2,w
	movwf	(___ftadd@exp2)
	line	92
	
l6534:	
	movf	(___ftadd@exp1),w
	skipz
	goto	u2900
	goto	l6540
u2900:
	
l6536:	
	movf	(___ftadd@exp2),w
	subwf	(___ftadd@exp1),w
	skipnc
	goto	u2911
	goto	u2910
u2911:
	goto	l6544
u2910:
	
l6538:	
	movf	(___ftadd@exp2),w
	movwf	(??___ftadd+0)+0
	movf	(___ftadd@exp1),w
	subwf	(??___ftadd+0)+0,f
	movlw	(019h)
	subwf	0+(??___ftadd+0)+0,w
	skipc
	goto	u2921
	goto	u2920
u2921:
	goto	l6544
u2920:
	line	93
	
l6540:	
	movf	(___ftadd@f2),w
	movwf	(?___ftadd)
	movf	(___ftadd@f2+1),w
	movwf	(?___ftadd+1)
	movf	(___ftadd@f2+2),w
	movwf	(?___ftadd+2)
	goto	l3343
	line	94
	
l6544:	
	movf	(___ftadd@exp2),w
	skipz
	goto	u2930
	goto	l3346
u2930:
	
l6546:	
	movf	(___ftadd@exp1),w
	subwf	(___ftadd@exp2),w
	skipnc
	goto	u2941
	goto	u2940
u2941:
	goto	l6550
u2940:
	
l6548:	
	movf	(___ftadd@exp1),w
	movwf	(??___ftadd+0)+0
	movf	(___ftadd@exp2),w
	subwf	(??___ftadd+0)+0,f
	movlw	(019h)
	subwf	0+(??___ftadd+0)+0,w
	skipc
	goto	u2951
	goto	u2950
u2951:
	goto	l6550
u2950:
	
l3346:	
	line	95
	goto	l3343
	line	96
	
l6550:	
	movlw	(06h)
	movwf	(___ftadd@sign)
	line	97
	
l6552:	
	btfss	(___ftadd@f1+2),(23)&7
	goto	u2961
	goto	u2960
u2961:
	goto	l3347
u2960:
	line	98
	
l6554:	
	bsf	(___ftadd@sign)+(7/8),(7)&7
	
l3347:	
	line	99
	btfss	(___ftadd@f2+2),(23)&7
	goto	u2971
	goto	u2970
u2971:
	goto	l3348
u2970:
	line	100
	
l6556:	
	bsf	(___ftadd@sign)+(6/8),(6)&7
	
l3348:	
	line	101
	bsf	(___ftadd@f1)+(15/8),(15)&7
	line	102
	
l6558:	
	movlw	0FFh
	andwf	(___ftadd@f1),f
	movlw	0FFh
	andwf	(___ftadd@f1+1),f
	movlw	0
	andwf	(___ftadd@f1+2),f
	line	103
	
l6560:	
	bsf	(___ftadd@f2)+(15/8),(15)&7
	line	104
	movlw	0FFh
	andwf	(___ftadd@f2),f
	movlw	0FFh
	andwf	(___ftadd@f2+1),f
	movlw	0
	andwf	(___ftadd@f2+2),f
	line	106
	movf	(___ftadd@exp2),w
	subwf	(___ftadd@exp1),w
	skipnc
	goto	u2981
	goto	u2980
u2981:
	goto	l6572
u2980:
	line	110
	
l6562:	
	clrc
	rlf	(___ftadd@f2),f
	rlf	(___ftadd@f2+1),f
	rlf	(___ftadd@f2+2),f
	line	111
	decf	(___ftadd@exp2),f
	line	112
	
l6564:	
	movf	(___ftadd@exp2),w
	xorwf	(___ftadd@exp1),w
	skipnz
	goto	u2991
	goto	u2990
u2991:
	goto	l6570
u2990:
	
l6566:	
	decf	(___ftadd@sign),f
	movf	((___ftadd@sign)),w
	andlw	07h
	btfss	status,2
	goto	u3001
	goto	u3000
u3001:
	goto	l6562
u3000:
	goto	l6570
	line	114
	
l6568:	
	clrc
	rrf	(___ftadd@f1+2),f
	rrf	(___ftadd@f1+1),f
	rrf	(___ftadd@f1),f
	line	115
	incf	(___ftadd@exp1),f
	line	113
	
l6570:	
	movf	(___ftadd@exp1),w
	xorwf	(___ftadd@exp2),w
	skipz
	goto	u3011
	goto	u3010
u3011:
	goto	l6568
u3010:
	goto	l3357
	line	117
	
l6572:	
	movf	(___ftadd@exp1),w
	subwf	(___ftadd@exp2),w
	skipnc
	goto	u3021
	goto	u3020
u3021:
	goto	l3357
u3020:
	line	121
	
l6574:	
	clrc
	rlf	(___ftadd@f1),f
	rlf	(___ftadd@f1+1),f
	rlf	(___ftadd@f1+2),f
	line	122
	decf	(___ftadd@exp1),f
	line	123
	
l6576:	
	movf	(___ftadd@exp2),w
	xorwf	(___ftadd@exp1),w
	skipnz
	goto	u3031
	goto	u3030
u3031:
	goto	l6582
u3030:
	
l6578:	
	decf	(___ftadd@sign),f
	movf	((___ftadd@sign)),w
	andlw	07h
	btfss	status,2
	goto	u3041
	goto	u3040
u3041:
	goto	l6574
u3040:
	goto	l6582
	line	125
	
l6580:	
	clrc
	rrf	(___ftadd@f2+2),f
	rrf	(___ftadd@f2+1),f
	rrf	(___ftadd@f2),f
	line	126
	incf	(___ftadd@exp2),f
	line	124
	
l6582:	
	movf	(___ftadd@exp1),w
	xorwf	(___ftadd@exp2),w
	skipz
	goto	u3051
	goto	u3050
u3051:
	goto	l6580
u3050:
	line	129
	
l3357:	
	btfss	(___ftadd@sign),(7)&7
	goto	u3061
	goto	u3060
u3061:
	goto	l6588
u3060:
	line	131
	
l6584:	
	movlw	0FFh
	xorwf	(___ftadd@f1),f
	movlw	0FFh
	xorwf	(___ftadd@f1+1),f
	movlw	0FFh
	xorwf	(___ftadd@f1+2),f
	line	132
	
l6586:	
	incf	(___ftadd@f1),f
	skipnz
	incf	(___ftadd@f1+1),f
	skipnz
	incf	(___ftadd@f1+2),f
	line	134
	
l6588:	
	btfss	(___ftadd@sign),(6)&7
	goto	u3071
	goto	u3070
u3071:
	goto	l6594
u3070:
	line	136
	
l6590:	
	movlw	0FFh
	xorwf	(___ftadd@f2),f
	movlw	0FFh
	xorwf	(___ftadd@f2+1),f
	movlw	0FFh
	xorwf	(___ftadd@f2+2),f
	line	137
	
l6592:	
	incf	(___ftadd@f2),f
	skipnz
	incf	(___ftadd@f2+1),f
	skipnz
	incf	(___ftadd@f2+2),f
	line	139
	
l6594:	
	clrf	(___ftadd@sign)
	line	140
	
l6596:	
	movf	(___ftadd@f1),w
	addwf	(___ftadd@f2),f
	movf	(___ftadd@f1+1),w
	clrz
	skipnc
	incf	(___ftadd@f1+1),w
	skipnz
	goto	u3081
	addwf	(___ftadd@f2+1),f
u3081:
	movf	(___ftadd@f1+2),w
	clrz
	skipnc
	incf	(___ftadd@f1+2),w
	skipnz
	goto	u3082
	addwf	(___ftadd@f2+2),f
u3082:

	line	141
	
l6598:	
	btfss	(___ftadd@f2+2),(23)&7
	goto	u3091
	goto	u3090
u3091:
	goto	l6606
u3090:
	line	142
	
l6600:	
	movlw	0FFh
	xorwf	(___ftadd@f2),f
	movlw	0FFh
	xorwf	(___ftadd@f2+1),f
	movlw	0FFh
	xorwf	(___ftadd@f2+2),f
	line	143
	
l6602:	
	incf	(___ftadd@f2),f
	skipnz
	incf	(___ftadd@f2+1),f
	skipnz
	incf	(___ftadd@f2+2),f
	line	144
	
l6604:	
	clrf	(___ftadd@sign)
	incf	(___ftadd@sign),f
	line	146
	
l6606:	
	movf	(___ftadd@f2),w
	movwf	(?___ftpack)
	movf	(___ftadd@f2+1),w
	movwf	(?___ftpack+1)
	movf	(___ftadd@f2+2),w
	movwf	(?___ftpack+2)
	movf	(___ftadd@exp1),w
	movwf	0+(?___ftpack)+03h
	movf	(___ftadd@sign),w
	movwf	0+(?___ftpack)+04h
	fcall	___ftpack
	movf	(0+(?___ftpack)),w
	movwf	(?___ftadd)
	movf	(1+(?___ftpack)),w
	movwf	(?___ftadd+1)
	movf	(2+(?___ftpack)),w
	movwf	(?___ftadd+2)
	line	148
	
l3343:	
	return
	opt stack 0
GLOBAL	__end_of___ftadd
	__end_of___ftadd:
;; =============== function ___ftadd ends ============

	signat	___ftadd,8315
	global	_lcd_busy
psect	text531,local,class=CODE,delta=2
global __ptext531
__ptext531:

;; *************** function _lcd_busy *****************
;; Defined at:
;;		line 47 in file "D:\TTVXL\Library\lcd(16).c"
;; Parameters:    Size  Location     Type
;;		None
;; Auto vars:     Size  Location     Type
;;  busy            1    3[COMMON] unsigned char 
;; Return value:  Size  Location     Type
;;                  1    wreg      unsigned char 
;; Registers used:
;;		wreg
;; Tracked objects:
;;		On entry : 0/0
;;		On exit  : 60/0
;;		Unchanged: 0/0
;; Data sizes:     COMMON   BANK0   BANK1   BANK3   BANK2
;;      Params:         0       0       0       0       0
;;      Locals:         1       0       0       0       0
;;      Temps:          1       0       0       0       0
;;      Totals:         2       0       0       0       0
;;Total ram usage:        2 bytes
;; Hardware stack levels used:    1
;; Hardware stack levels required when called:    1
;; This function calls:
;;		Nothing
;; This function is called by:
;;		_lcd_init
;;		_lcd_putc
;;		_lcd_gotoxy
;; This function uses a non-reentrant model
;;
psect	text531
	file	"D:\TTVXL\Library\lcd(16).c"
	line	47
	global	__size_of_lcd_busy
	__size_of_lcd_busy	equ	__end_of_lcd_busy-_lcd_busy
	
_lcd_busy:	
	opt	stack 2
; Regs used in _lcd_busy: [wreg]
	line	50
	
l6518:	
;lcd(16).c: 48: unsigned char busy;
;lcd(16).c: 50: TRISD4 = 1;
	bsf	status, 5	;RP0=1, select bank1
	bcf	status, 6	;RP1=0, select bank1
	bsf	(1092/8)^080h,(1092)&7
	line	51
;lcd(16).c: 51: TRISD5 = 1;
	bsf	(1093/8)^080h,(1093)&7
	line	52
;lcd(16).c: 52: TRISD6 = 1;
	bsf	(1094/8)^080h,(1094)&7
	line	53
;lcd(16).c: 53: TRISD7 = 1;
	bsf	(1095/8)^080h,(1095)&7
	line	55
;lcd(16).c: 55: RD2 = 1;
	bcf	status, 5	;RP0=0, select bank0
	bsf	(66/8),(66)&7
	line	56
;lcd(16).c: 56: RD1 = 0;
	bcf	(65/8),(65)&7
	line	57
	
l6520:	
;lcd(16).c: 57: _delay((unsigned long)((20)*(20000000/4000000.0)));
	opt asmopt_off
movlw	33
movwf	(??_lcd_busy+0)+0,f
u4017:
decfsz	(??_lcd_busy+0)+0,f
	goto	u4017
opt asmopt_on

	line	58
	
l6522:	
;lcd(16).c: 58: RD3 = 1;
	bcf	status, 5	;RP0=0, select bank0
	bcf	status, 6	;RP1=0, select bank0
	bsf	(67/8),(67)&7
	line	59
;lcd(16).c: 59: _delay((unsigned long)((20)*(20000000/4000000.0)));
	opt asmopt_off
movlw	33
movwf	(??_lcd_busy+0)+0,f
u4027:
decfsz	(??_lcd_busy+0)+0,f
	goto	u4027
opt asmopt_on

	line	61
;lcd(16).c: 61: busy = RD7;
	movlw	0
	bcf	status, 5	;RP0=0, select bank0
	bcf	status, 6	;RP1=0, select bank0
	btfsc	(71/8),(71)&7
	movlw	1
	movwf	(lcd_busy@busy)
	line	63
	
l6524:	
;lcd(16).c: 63: RD3 = 0;
	bcf	(67/8),(67)&7
	line	64
;lcd(16).c: 64: _delay((unsigned long)((20)*(20000000/4000000.0)));
	opt asmopt_off
movlw	33
movwf	(??_lcd_busy+0)+0,f
u4037:
decfsz	(??_lcd_busy+0)+0,f
	goto	u4037
opt asmopt_on

	line	65
	
l6526:	
;lcd(16).c: 65: RD3 = 1;
	bcf	status, 5	;RP0=0, select bank0
	bcf	status, 6	;RP1=0, select bank0
	bsf	(67/8),(67)&7
	line	66
;lcd(16).c: 66: _delay((unsigned long)((20)*(20000000/4000000.0)));
	opt asmopt_off
movlw	33
movwf	(??_lcd_busy+0)+0,f
u4047:
decfsz	(??_lcd_busy+0)+0,f
	goto	u4047
opt asmopt_on

	line	67
	
l6528:	
;lcd(16).c: 67: RD3 = 0;
	bcf	status, 5	;RP0=0, select bank0
	bcf	status, 6	;RP1=0, select bank0
	bcf	(67/8),(67)&7
	line	70
;lcd(16).c: 70: return busy;
	movf	(lcd_busy@busy),w
	line	71
	
l2120:	
	return
	opt stack 0
GLOBAL	__end_of_lcd_busy
	__end_of_lcd_busy:
;; =============== function _lcd_busy ends ============

	signat	_lcd_busy,89
	global	_lcd_put_byte
psect	text532,local,class=CODE,delta=2
global __ptext532
__ptext532:

;; *************** function _lcd_put_byte *****************
;; Defined at:
;;		line 106 in file "D:\TTVXL\Library\lcd(16).c"
;; Parameters:    Size  Location     Type
;;  rs              1    wreg     unsigned char 
;;  b               1    2[COMMON] unsigned char 
;; Auto vars:     Size  Location     Type
;;  rs              1    5[COMMON] unsigned char 
;;  temp            1    6[COMMON] struct _BYTE_VAL
;; Return value:  Size  Location     Type
;;		None               void
;; Registers used:
;;		wreg, status,2, status,0
;; Tracked objects:
;;		On entry : 0/20
;;		On exit  : 60/0
;;		Unchanged: 0/0
;; Data sizes:     COMMON   BANK0   BANK1   BANK3   BANK2
;;      Params:         1       0       0       0       0
;;      Locals:         2       0       0       0       0
;;      Temps:          2       0       0       0       0
;;      Totals:         5       0       0       0       0
;;Total ram usage:        5 bytes
;; Hardware stack levels used:    1
;; Hardware stack levels required when called:    1
;; This function calls:
;;		Nothing
;; This function is called by:
;;		_lcd_init
;;		_lcd_putc
;;		_lcd_gotoxy
;; This function uses a non-reentrant model
;;
psect	text532
	file	"D:\TTVXL\Library\lcd(16).c"
	line	106
	global	__size_of_lcd_put_byte
	__size_of_lcd_put_byte	equ	__end_of_lcd_put_byte-_lcd_put_byte
	
_lcd_put_byte:	
	opt	stack 2
; Regs used in _lcd_put_byte: [wreg+status,2+status,0]
;lcd_put_byte@rs stored from wreg
	line	109
	movwf	(lcd_put_byte@rs)
	
l6482:	
;lcd(16).c: 107: BYTE_VAL temp;
;lcd(16).c: 109: TRISD4 = 0;
	bsf	status, 5	;RP0=1, select bank1
	bcf	status, 6	;RP1=0, select bank1
	bcf	(1092/8)^080h,(1092)&7
	line	110
;lcd(16).c: 110: TRISD5 = 0;
	bcf	(1093/8)^080h,(1093)&7
	line	111
;lcd(16).c: 111: TRISD6 = 0;
	bcf	(1094/8)^080h,(1094)&7
	line	112
;lcd(16).c: 112: TRISD7 = 0;
	bcf	(1095/8)^080h,(1095)&7
	line	114
;lcd(16).c: 114: RD1 = 0;
	bcf	status, 5	;RP0=0, select bank0
	bcf	(65/8),(65)&7
	line	115
	
l6484:	
;lcd(16).c: 115: if(rs) RD1 = 1;
	movf	(lcd_put_byte@rs),w
	skipz
	goto	u2730
	goto	l6488
u2730:
	
l6486:	
	bsf	(65/8),(65)&7
	line	117
	
l6488:	
;lcd(16).c: 117: _delay((unsigned long)((20)*(20000000/4000000.0)));
	opt asmopt_off
movlw	33
movwf	(??_lcd_put_byte+0)+0,f
u4057:
decfsz	(??_lcd_put_byte+0)+0,f
	goto	u4057
opt asmopt_on

	line	118
	
l6490:	
;lcd(16).c: 118: RD2 = 0;
	bcf	status, 5	;RP0=0, select bank0
	bcf	status, 6	;RP1=0, select bank0
	bcf	(66/8),(66)&7
	line	119
;lcd(16).c: 119: _delay((unsigned long)((20)*(20000000/4000000.0)));
	opt asmopt_off
movlw	33
movwf	(??_lcd_put_byte+0)+0,f
u4067:
decfsz	(??_lcd_put_byte+0)+0,f
	goto	u4067
opt asmopt_on

	line	120
	
l6492:	
;lcd(16).c: 120: RD3 = 0;
	bcf	status, 5	;RP0=0, select bank0
	bcf	status, 6	;RP1=0, select bank0
	bcf	(67/8),(67)&7
	line	122
;lcd(16).c: 122: temp.Val = b;
	movf	(lcd_put_byte@b),w
	movwf	(lcd_put_byte@temp)
	line	125
	
l6494:	
;lcd(16).c: 125: RD4 = temp.bits.b4;
	swapf	(lcd_put_byte@temp),w
	andlw	(1<<1)-1
	movwf	(??_lcd_put_byte+0)+0
	rrf	(??_lcd_put_byte+0)+0,w
	btfsc	status,0
	goto	u2741
	goto	u2740
	
u2741:
	bcf	status, 5	;RP0=0, select bank0
	bcf	status, 6	;RP1=0, select bank0
	bsf	(68/8),(68)&7
	goto	u2754
u2740:
	bcf	status, 5	;RP0=0, select bank0
	bcf	status, 6	;RP1=0, select bank0
	bcf	(68/8),(68)&7
u2754:
	line	126
	
l6496:	
;lcd(16).c: 126: RD5 = temp.bits.b5;
	swapf	(lcd_put_byte@temp),w
	movwf	(??_lcd_put_byte+0)+0
	rrf	(??_lcd_put_byte+0)+0,w
	andlw	(1<<1)-1
	movwf	(??_lcd_put_byte+1)+0
	rrf	(??_lcd_put_byte+1)+0,w
	btfsc	status,0
	goto	u2761
	goto	u2760
	
u2761:
	bcf	status, 5	;RP0=0, select bank0
	bcf	status, 6	;RP1=0, select bank0
	bsf	(69/8),(69)&7
	goto	u2774
u2760:
	bcf	status, 5	;RP0=0, select bank0
	bcf	status, 6	;RP1=0, select bank0
	bcf	(69/8),(69)&7
u2774:
	line	127
	
l6498:	
;lcd(16).c: 127: RD6 = temp.bits.b6;
	swapf	(lcd_put_byte@temp),w
	movwf	(??_lcd_put_byte+0)+0
	rrf	(??_lcd_put_byte+0)+0,f
	rrf	(??_lcd_put_byte+0)+0,w
	andlw	(1<<1)-1
	movwf	(??_lcd_put_byte+1)+0
	rrf	(??_lcd_put_byte+1)+0,w
	btfsc	status,0
	goto	u2781
	goto	u2780
	
u2781:
	bcf	status, 5	;RP0=0, select bank0
	bcf	status, 6	;RP1=0, select bank0
	bsf	(70/8),(70)&7
	goto	u2794
u2780:
	bcf	status, 5	;RP0=0, select bank0
	bcf	status, 6	;RP1=0, select bank0
	bcf	(70/8),(70)&7
u2794:
	line	128
	
l6500:	
;lcd(16).c: 128: RD7 = temp.bits.b7;
	rlf	(lcd_put_byte@temp),w
	rlf	(lcd_put_byte@temp),w
	andlw	1
	movwf	(??_lcd_put_byte+0)+0
	rrf	(??_lcd_put_byte+0)+0,w
	btfsc	status,0
	goto	u2801
	goto	u2800
	
u2801:
	bcf	status, 5	;RP0=0, select bank0
	bcf	status, 6	;RP1=0, select bank0
	bsf	(71/8),(71)&7
	goto	u2814
u2800:
	bcf	status, 5	;RP0=0, select bank0
	bcf	status, 6	;RP1=0, select bank0
	bcf	(71/8),(71)&7
u2814:
	line	129
;lcd(16).c: 129: _delay((unsigned long)((20)*(20000000/4000000.0)));
	opt asmopt_off
movlw	33
movwf	(??_lcd_put_byte+0)+0,f
u4077:
decfsz	(??_lcd_put_byte+0)+0,f
	goto	u4077
opt asmopt_on

	line	130
	
l6502:	
;lcd(16).c: 130: RD3 = 1;
	bcf	status, 5	;RP0=0, select bank0
	bcf	status, 6	;RP1=0, select bank0
	bsf	(67/8),(67)&7
	line	131
;lcd(16).c: 131: _delay((unsigned long)((20)*(20000000/4000000.0)));
	opt asmopt_off
movlw	33
movwf	(??_lcd_put_byte+0)+0,f
u4087:
decfsz	(??_lcd_put_byte+0)+0,f
	goto	u4087
opt asmopt_on

	line	132
	
l6504:	
;lcd(16).c: 132: RD3 = 0;
	bcf	status, 5	;RP0=0, select bank0
	bcf	status, 6	;RP1=0, select bank0
	bcf	(67/8),(67)&7
	line	134
	
l6506:	
;lcd(16).c: 134: RD4 = temp.bits.b0;
	movf	(lcd_put_byte@temp),w
	andlw	(1<<1)-1
	movwf	(??_lcd_put_byte+0)+0
	rrf	(??_lcd_put_byte+0)+0,w
	btfsc	status,0
	goto	u2821
	goto	u2820
	
u2821:
	bcf	status, 5	;RP0=0, select bank0
	bcf	status, 6	;RP1=0, select bank0
	bsf	(68/8),(68)&7
	goto	u2834
u2820:
	bcf	status, 5	;RP0=0, select bank0
	bcf	status, 6	;RP1=0, select bank0
	bcf	(68/8),(68)&7
u2834:
	line	135
	
l6508:	
;lcd(16).c: 135: RD5 = temp.bits.b1;
	rrf	(lcd_put_byte@temp),w
	andlw	(1<<1)-1
	movwf	(??_lcd_put_byte+0)+0
	rrf	(??_lcd_put_byte+0)+0,w
	btfsc	status,0
	goto	u2841
	goto	u2840
	
u2841:
	bcf	status, 5	;RP0=0, select bank0
	bcf	status, 6	;RP1=0, select bank0
	bsf	(69/8),(69)&7
	goto	u2854
u2840:
	bcf	status, 5	;RP0=0, select bank0
	bcf	status, 6	;RP1=0, select bank0
	bcf	(69/8),(69)&7
u2854:
	line	136
	
l6510:	
;lcd(16).c: 136: RD6 = temp.bits.b2;
	rrf	(lcd_put_byte@temp),w
	movwf	(??_lcd_put_byte+0)+0
	rrf	(??_lcd_put_byte+0)+0,w
	andlw	(1<<1)-1
	movwf	(??_lcd_put_byte+1)+0
	rrf	(??_lcd_put_byte+1)+0,w
	btfsc	status,0
	goto	u2861
	goto	u2860
	
u2861:
	bcf	status, 5	;RP0=0, select bank0
	bcf	status, 6	;RP1=0, select bank0
	bsf	(70/8),(70)&7
	goto	u2874
u2860:
	bcf	status, 5	;RP0=0, select bank0
	bcf	status, 6	;RP1=0, select bank0
	bcf	(70/8),(70)&7
u2874:
	line	137
	
l6512:	
;lcd(16).c: 137: RD7 = temp.bits.b3;
	rrf	(lcd_put_byte@temp),w
	movwf	(??_lcd_put_byte+0)+0
	rrf	(??_lcd_put_byte+0)+0,f
	rrf	(??_lcd_put_byte+0)+0,w
	andlw	(1<<1)-1
	movwf	(??_lcd_put_byte+1)+0
	rrf	(??_lcd_put_byte+1)+0,w
	btfsc	status,0
	goto	u2881
	goto	u2880
	
u2881:
	bcf	status, 5	;RP0=0, select bank0
	bcf	status, 6	;RP1=0, select bank0
	bsf	(71/8),(71)&7
	goto	u2894
u2880:
	bcf	status, 5	;RP0=0, select bank0
	bcf	status, 6	;RP1=0, select bank0
	bcf	(71/8),(71)&7
u2894:
	line	138
;lcd(16).c: 138: _delay((unsigned long)((20)*(20000000/4000000.0)));
	opt asmopt_off
movlw	33
movwf	(??_lcd_put_byte+0)+0,f
u4097:
decfsz	(??_lcd_put_byte+0)+0,f
	goto	u4097
opt asmopt_on

	line	139
	
l6514:	
;lcd(16).c: 139: RD3 = 1;
	bcf	status, 5	;RP0=0, select bank0
	bcf	status, 6	;RP1=0, select bank0
	bsf	(67/8),(67)&7
	line	140
;lcd(16).c: 140: _delay((unsigned long)((20)*(20000000/4000000.0)));
	opt asmopt_off
movlw	33
movwf	(??_lcd_put_byte+0)+0,f
u4107:
decfsz	(??_lcd_put_byte+0)+0,f
	goto	u4107
opt asmopt_on

	line	141
	
l6516:	
;lcd(16).c: 141: RD3 = 0;
	bcf	status, 5	;RP0=0, select bank0
	bcf	status, 6	;RP1=0, select bank0
	bcf	(67/8),(67)&7
	line	142
	
l2128:	
	return
	opt stack 0
GLOBAL	__end_of_lcd_put_byte
	__end_of_lcd_put_byte:
;; =============== function _lcd_put_byte ends ============

	signat	_lcd_put_byte,8312
	global	___awmod
psect	text533,local,class=CODE,delta=2
global __ptext533
__ptext533:

;; *************** function ___awmod *****************
;; Defined at:
;;		line 5 in file "C:\Program Files (x86)\HI-TECH Software\PICC\9.83\sources\awmod.c"
;; Parameters:    Size  Location     Type
;;  divisor         2    2[COMMON] int 
;;  dividend        2    4[COMMON] int 
;; Auto vars:     Size  Location     Type
;;  sign            1    7[COMMON] unsigned char 
;;  counter         1    6[COMMON] unsigned char 
;; Return value:  Size  Location     Type
;;                  2    2[COMMON] int 
;; Registers used:
;;		wreg, status,2, status,0
;; Tracked objects:
;;		On entry : 60/0
;;		On exit  : 60/0
;;		Unchanged: FFF9F/0
;; Data sizes:     COMMON   BANK0   BANK1   BANK3   BANK2
;;      Params:         4       0       0       0       0
;;      Locals:         2       0       0       0       0
;;      Temps:          0       0       0       0       0
;;      Totals:         6       0       0       0       0
;;Total ram usage:        6 bytes
;; Hardware stack levels used:    1
;; Hardware stack levels required when called:    1
;; This function calls:
;;		Nothing
;; This function is called by:
;;		_scale
;; This function uses a non-reentrant model
;;
psect	text533
	file	"C:\Program Files (x86)\HI-TECH Software\PICC\9.83\sources\awmod.c"
	line	5
	global	__size_of___awmod
	__size_of___awmod	equ	__end_of___awmod-___awmod
	
___awmod:	
	opt	stack 4
; Regs used in ___awmod: [wreg+status,2+status,0]
	line	8
	
l6446:	
	clrf	(___awmod@sign)
	line	9
	
l6448:	
	btfss	(___awmod@dividend+1),7
	goto	u2661
	goto	u2660
u2661:
	goto	l6454
u2660:
	line	10
	
l6450:	
	comf	(___awmod@dividend),f
	comf	(___awmod@dividend+1),f
	incf	(___awmod@dividend),f
	skipnz
	incf	(___awmod@dividend+1),f
	line	11
	
l6452:	
	clrf	(___awmod@sign)
	incf	(___awmod@sign),f
	line	13
	
l6454:	
	btfss	(___awmod@divisor+1),7
	goto	u2671
	goto	u2670
u2671:
	goto	l6458
u2670:
	line	14
	
l6456:	
	comf	(___awmod@divisor),f
	comf	(___awmod@divisor+1),f
	incf	(___awmod@divisor),f
	skipnz
	incf	(___awmod@divisor+1),f
	line	15
	
l6458:	
	movf	(___awmod@divisor+1),w
	iorwf	(___awmod@divisor),w
	skipnz
	goto	u2681
	goto	u2680
u2681:
	goto	l6474
u2680:
	line	16
	
l6460:	
	clrf	(___awmod@counter)
	incf	(___awmod@counter),f
	line	17
	goto	l6464
	line	18
	
l6462:	
	clrc
	rlf	(___awmod@divisor),f
	rlf	(___awmod@divisor+1),f
	line	19
	incf	(___awmod@counter),f
	line	17
	
l6464:	
	btfss	(___awmod@divisor+1),(15)&7
	goto	u2691
	goto	u2690
u2691:
	goto	l6462
u2690:
	line	22
	
l6466:	
	movf	(___awmod@divisor+1),w
	subwf	(___awmod@dividend+1),w
	skipz
	goto	u2705
	movf	(___awmod@divisor),w
	subwf	(___awmod@dividend),w
u2705:
	skipc
	goto	u2701
	goto	u2700
u2701:
	goto	l6470
u2700:
	line	23
	
l6468:	
	movf	(___awmod@divisor),w
	subwf	(___awmod@dividend),f
	movf	(___awmod@divisor+1),w
	skipc
	decf	(___awmod@dividend+1),f
	subwf	(___awmod@dividend+1),f
	line	24
	
l6470:	
	clrc
	rrf	(___awmod@divisor+1),f
	rrf	(___awmod@divisor),f
	line	25
	
l6472:	
	decfsz	(___awmod@counter),f
	goto	u2711
	goto	u2710
u2711:
	goto	l6466
u2710:
	line	27
	
l6474:	
	movf	(___awmod@sign),w
	skipz
	goto	u2720
	goto	l6478
u2720:
	line	28
	
l6476:	
	comf	(___awmod@dividend),f
	comf	(___awmod@dividend+1),f
	incf	(___awmod@dividend),f
	skipnz
	incf	(___awmod@dividend+1),f
	line	29
	
l6478:	
	movf	(___awmod@dividend+1),w
	movwf	(?___awmod+1)
	movf	(___awmod@dividend),w
	movwf	(?___awmod)
	line	30
	
l3514:	
	return
	opt stack 0
GLOBAL	__end_of___awmod
	__end_of___awmod:
;; =============== function ___awmod ends ============

	signat	___awmod,8314
	global	___lldiv
psect	text534,local,class=CODE,delta=2
global __ptext534
__ptext534:

;; *************** function ___lldiv *****************
;; Defined at:
;;		line 5 in file "C:\Program Files (x86)\HI-TECH Software\PICC\9.83\sources\lldiv.c"
;; Parameters:    Size  Location     Type
;;  divisor         4    2[COMMON] unsigned long 
;;  dividend        4    6[COMMON] unsigned long 
;; Auto vars:     Size  Location     Type
;;  quotient        4    0[BANK0 ] unsigned long 
;;  counter         1    4[BANK0 ] unsigned char 
;; Return value:  Size  Location     Type
;;                  4    2[COMMON] unsigned long 
;; Registers used:
;;		wreg, status,2, status,0
;; Tracked objects:
;;		On entry : 60/20
;;		On exit  : 60/0
;;		Unchanged: FFF9F/0
;; Data sizes:     COMMON   BANK0   BANK1   BANK3   BANK2
;;      Params:         8       0       0       0       0
;;      Locals:         0       5       0       0       0
;;      Temps:          0       0       0       0       0
;;      Totals:         8       5       0       0       0
;;Total ram usage:       13 bytes
;; Hardware stack levels used:    1
;; Hardware stack levels required when called:    1
;; This function calls:
;;		Nothing
;; This function is called by:
;;		_printf
;; This function uses a non-reentrant model
;;
psect	text534
	file	"C:\Program Files (x86)\HI-TECH Software\PICC\9.83\sources\lldiv.c"
	line	5
	global	__size_of___lldiv
	__size_of___lldiv	equ	__end_of___lldiv-___lldiv
	
___lldiv:	
	opt	stack 5
; Regs used in ___lldiv: [wreg+status,2+status,0]
	line	9
	
l6420:	
	bcf	status, 5	;RP0=0, select bank0
	clrf	(___lldiv@quotient)
	clrf	(___lldiv@quotient+1)
	clrf	(___lldiv@quotient+2)
	clrf	(___lldiv@quotient+3)
	line	10
	
l6422:	
	movf	(___lldiv@divisor+3),w
	iorwf	(___lldiv@divisor+2),w
	iorwf	(___lldiv@divisor+1),w
	iorwf	(___lldiv@divisor),w
	skipnz
	goto	u2621
	goto	u2620
u2621:
	goto	l6442
u2620:
	line	11
	
l6424:	
	clrf	(___lldiv@counter)
	incf	(___lldiv@counter),f
	line	12
	goto	l6428
	line	13
	
l6426:	
	clrc
	rlf	(___lldiv@divisor),f
	rlf	(___lldiv@divisor+1),f
	rlf	(___lldiv@divisor+2),f
	rlf	(___lldiv@divisor+3),f
	line	14
	incf	(___lldiv@counter),f
	line	12
	
l6428:	
	btfss	(___lldiv@divisor+3),(31)&7
	goto	u2631
	goto	u2630
u2631:
	goto	l6426
u2630:
	line	17
	
l6430:	
	clrc
	rlf	(___lldiv@quotient),f
	rlf	(___lldiv@quotient+1),f
	rlf	(___lldiv@quotient+2),f
	rlf	(___lldiv@quotient+3),f
	line	18
	
l6432:	
	movf	(___lldiv@divisor+3),w
	subwf	(___lldiv@dividend+3),w
	skipz
	goto	u2645
	movf	(___lldiv@divisor+2),w
	subwf	(___lldiv@dividend+2),w
	skipz
	goto	u2645
	movf	(___lldiv@divisor+1),w
	subwf	(___lldiv@dividend+1),w
	skipz
	goto	u2645
	movf	(___lldiv@divisor),w
	subwf	(___lldiv@dividend),w
u2645:
	skipc
	goto	u2641
	goto	u2640
u2641:
	goto	l6438
u2640:
	line	19
	
l6434:	
	movf	(___lldiv@divisor),w
	subwf	(___lldiv@dividend),f
	movf	(___lldiv@divisor+1),w
	skipc
	incfsz	(___lldiv@divisor+1),w
	subwf	(___lldiv@dividend+1),f
	movf	(___lldiv@divisor+2),w
	skipc
	incfsz	(___lldiv@divisor+2),w
	subwf	(___lldiv@dividend+2),f
	movf	(___lldiv@divisor+3),w
	skipc
	incfsz	(___lldiv@divisor+3),w
	subwf	(___lldiv@dividend+3),f
	line	20
	
l6436:	
	bsf	(___lldiv@quotient)+(0/8),(0)&7
	line	22
	
l6438:	
	clrc
	rrf	(___lldiv@divisor+3),f
	rrf	(___lldiv@divisor+2),f
	rrf	(___lldiv@divisor+1),f
	rrf	(___lldiv@divisor),f
	line	23
	
l6440:	
	decfsz	(___lldiv@counter),f
	goto	u2651
	goto	u2650
u2651:
	goto	l6430
u2650:
	line	25
	
l6442:	
	movf	(___lldiv@quotient+3),w
	movwf	(?___lldiv+3)
	movf	(___lldiv@quotient+2),w
	movwf	(?___lldiv+2)
	movf	(___lldiv@quotient+1),w
	movwf	(?___lldiv+1)
	movf	(___lldiv@quotient),w
	movwf	(?___lldiv)

	line	26
	
l3475:	
	return
	opt stack 0
GLOBAL	__end_of___lldiv
	__end_of___lldiv:
;; =============== function ___lldiv ends ============

	signat	___lldiv,8316
	global	___ftge
psect	text535,local,class=CODE,delta=2
global __ptext535
__ptext535:

;; *************** function ___ftge *****************
;; Defined at:
;;		line 5 in file "C:\Program Files (x86)\HI-TECH Software\PICC\9.83\sources\ftge.c"
;; Parameters:    Size  Location     Type
;;  ff1             3    2[COMMON] float 
;;  ff2             3    5[COMMON] float 
;; Auto vars:     Size  Location     Type
;;		None
;; Return value:  Size  Location     Type
;;		None               void
;; Registers used:
;;		wreg, status,2, status,0
;; Tracked objects:
;;		On entry : 60/20
;;		On exit  : 60/20
;;		Unchanged: FFF9F/0
;; Data sizes:     COMMON   BANK0   BANK1   BANK3   BANK2
;;      Params:         6       0       0       0       0
;;      Locals:         0       0       0       0       0
;;      Temps:          0       0       0       0       0
;;      Totals:         6       0       0       0       0
;;Total ram usage:        6 bytes
;; Hardware stack levels used:    1
;; Hardware stack levels required when called:    1
;; This function calls:
;;		Nothing
;; This function is called by:
;;		_printf
;; This function uses a non-reentrant model
;;
psect	text535
	file	"C:\Program Files (x86)\HI-TECH Software\PICC\9.83\sources\ftge.c"
	line	5
	global	__size_of___ftge
	__size_of___ftge	equ	__end_of___ftge-___ftge
	
___ftge:	
	opt	stack 5
; Regs used in ___ftge: [wreg+status,2+status,0]
	line	6
	
l6400:	
	btfss	(___ftge@ff1+2),(23)&7
	goto	u2591
	goto	u2590
u2591:
	goto	l6404
u2590:
	line	7
	
l6402:	
	movf	(___ftge@ff1),w
	sublw	0
	movwf	(___ftge@ff1)
	movf	(___ftge@ff1+1),w
	skipc
	incfsz	(___ftge@ff1+1),w
	sublw	0
	movwf	1+(___ftge@ff1)
	movf	(___ftge@ff1+2),w
	skipc
	incfsz	(___ftge@ff1+2),w
	sublw	080h
	movwf	2+(___ftge@ff1)
	line	8
	
l6404:	
	btfss	(___ftge@ff2+2),(23)&7
	goto	u2601
	goto	u2600
u2601:
	goto	l6408
u2600:
	line	9
	
l6406:	
	movf	(___ftge@ff2),w
	sublw	0
	movwf	(___ftge@ff2)
	movf	(___ftge@ff2+1),w
	skipc
	incfsz	(___ftge@ff2+1),w
	sublw	0
	movwf	1+(___ftge@ff2)
	movf	(___ftge@ff2+2),w
	skipc
	incfsz	(___ftge@ff2+2),w
	sublw	080h
	movwf	2+(___ftge@ff2)
	line	10
	
l6408:	
	movlw	080h
	xorwf	(___ftge@ff1+2),f
	line	11
	
l6410:	
	movlw	080h
	xorwf	(___ftge@ff2+2),f
	line	12
	
l6412:	
	movf	(___ftge@ff2+2),w
	subwf	(___ftge@ff1+2),w
	skipz
	goto	u2615
	movf	(___ftge@ff2+1),w
	subwf	(___ftge@ff1+1),w
	skipz
	goto	u2615
	movf	(___ftge@ff2),w
	subwf	(___ftge@ff1),w
u2615:
	skipnc
	goto	u2611
	goto	u2610
u2611:
	goto	l6416
u2610:
	
l6414:	
	clrc
	
	goto	l3465
	
l6416:	
	setc
	
	line	13
	
l3465:	
	return
	opt stack 0
GLOBAL	__end_of___ftge
	__end_of___ftge:
;; =============== function ___ftge ends ============

	signat	___ftge,8312
	global	___ftneg
psect	text536,local,class=CODE,delta=2
global __ptext536
__ptext536:

;; *************** function ___ftneg *****************
;; Defined at:
;;		line 16 in file "C:\Program Files (x86)\HI-TECH Software\PICC\9.83\sources\ftneg.c"
;; Parameters:    Size  Location     Type
;;  f1              3    2[COMMON] float 
;; Auto vars:     Size  Location     Type
;;		None
;; Return value:  Size  Location     Type
;;                  3    2[COMMON] float 
;; Registers used:
;;		wreg
;; Tracked objects:
;;		On entry : 160/20
;;		On exit  : 160/20
;;		Unchanged: FFE9F/0
;; Data sizes:     COMMON   BANK0   BANK1   BANK3   BANK2
;;      Params:         3       0       0       0       0
;;      Locals:         0       0       0       0       0
;;      Temps:          0       0       0       0       0
;;      Totals:         3       0       0       0       0
;;Total ram usage:        3 bytes
;; Hardware stack levels used:    1
;; Hardware stack levels required when called:    1
;; This function calls:
;;		Nothing
;; This function is called by:
;;		_printf
;; This function uses a non-reentrant model
;;
psect	text536
	file	"C:\Program Files (x86)\HI-TECH Software\PICC\9.83\sources\ftneg.c"
	line	16
	global	__size_of___ftneg
	__size_of___ftneg	equ	__end_of___ftneg-___ftneg
	
___ftneg:	
	opt	stack 5
; Regs used in ___ftneg: [wreg]
	line	17
	
l6392:	
	movf	(___ftneg@f1+2),w
	iorwf	(___ftneg@f1+1),w
	iorwf	(___ftneg@f1),w
	skipnz
	goto	u2581
	goto	u2580
u2581:
	goto	l6396
u2580:
	line	18
	
l6394:	
	movlw	080h
	xorwf	(___ftneg@f1+2),f
	line	19
	
l6396:	
	line	20
	
l3460:	
	return
	opt stack 0
GLOBAL	__end_of___ftneg
	__end_of___ftneg:
;; =============== function ___ftneg ends ============

	signat	___ftneg,4219
	global	___llmod
psect	text537,local,class=CODE,delta=2
global __ptext537
__ptext537:

;; *************** function ___llmod *****************
;; Defined at:
;;		line 5 in file "C:\Program Files (x86)\HI-TECH Software\PICC\9.83\sources\llmod.c"
;; Parameters:    Size  Location     Type
;;  divisor         4    5[BANK0 ] unsigned long 
;;  dividend        4    9[BANK0 ] unsigned long 
;; Auto vars:     Size  Location     Type
;;  counter         1   10[COMMON] unsigned char 
;; Return value:  Size  Location     Type
;;                  4    5[BANK0 ] unsigned long 
;; Registers used:
;;		wreg, status,2, status,0
;; Tracked objects:
;;		On entry : 60/0
;;		On exit  : 60/0
;;		Unchanged: FFF9F/0
;; Data sizes:     COMMON   BANK0   BANK1   BANK3   BANK2
;;      Params:         0       8       0       0       0
;;      Locals:         1       0       0       0       0
;;      Temps:          0       0       0       0       0
;;      Totals:         1       8       0       0       0
;;Total ram usage:        9 bytes
;; Hardware stack levels used:    1
;; Hardware stack levels required when called:    1
;; This function calls:
;;		Nothing
;; This function is called by:
;;		_printf
;; This function uses a non-reentrant model
;;
psect	text537
	file	"C:\Program Files (x86)\HI-TECH Software\PICC\9.83\sources\llmod.c"
	line	5
	global	__size_of___llmod
	__size_of___llmod	equ	__end_of___llmod-___llmod
	
___llmod:	
	opt	stack 5
; Regs used in ___llmod: [wreg+status,2+status,0]
	line	8
	
l6372:	
	movf	(___llmod@divisor+3),w
	iorwf	(___llmod@divisor+2),w
	iorwf	(___llmod@divisor+1),w
	iorwf	(___llmod@divisor),w
	skipnz
	goto	u2541
	goto	u2540
u2541:
	goto	l6388
u2540:
	line	9
	
l6374:	
	clrf	(___llmod@counter)
	incf	(___llmod@counter),f
	line	10
	goto	l6378
	line	11
	
l6376:	
	clrc
	rlf	(___llmod@divisor),f
	rlf	(___llmod@divisor+1),f
	rlf	(___llmod@divisor+2),f
	rlf	(___llmod@divisor+3),f
	line	12
	incf	(___llmod@counter),f
	line	10
	
l6378:	
	btfss	(___llmod@divisor+3),(31)&7
	goto	u2551
	goto	u2550
u2551:
	goto	l6376
u2550:
	line	15
	
l6380:	
	movf	(___llmod@divisor+3),w
	subwf	(___llmod@dividend+3),w
	skipz
	goto	u2565
	movf	(___llmod@divisor+2),w
	subwf	(___llmod@dividend+2),w
	skipz
	goto	u2565
	movf	(___llmod@divisor+1),w
	subwf	(___llmod@dividend+1),w
	skipz
	goto	u2565
	movf	(___llmod@divisor),w
	subwf	(___llmod@dividend),w
u2565:
	skipc
	goto	u2561
	goto	u2560
u2561:
	goto	l6384
u2560:
	line	16
	
l6382:	
	movf	(___llmod@divisor),w
	subwf	(___llmod@dividend),f
	movf	(___llmod@divisor+1),w
	skipc
	incfsz	(___llmod@divisor+1),w
	subwf	(___llmod@dividend+1),f
	movf	(___llmod@divisor+2),w
	skipc
	incfsz	(___llmod@divisor+2),w
	subwf	(___llmod@dividend+2),f
	movf	(___llmod@divisor+3),w
	skipc
	incfsz	(___llmod@divisor+3),w
	subwf	(___llmod@dividend+3),f
	line	17
	
l6384:	
	clrc
	rrf	(___llmod@divisor+3),f
	rrf	(___llmod@divisor+2),f
	rrf	(___llmod@divisor+1),f
	rrf	(___llmod@divisor),f
	line	18
	
l6386:	
	decfsz	(___llmod@counter),f
	goto	u2571
	goto	u2570
u2571:
	goto	l6380
u2570:
	line	20
	
l6388:	
	movf	(___llmod@dividend+3),w
	movwf	(?___llmod+3)
	movf	(___llmod@dividend+2),w
	movwf	(?___llmod+2)
	movf	(___llmod@dividend+1),w
	movwf	(?___llmod+1)
	movf	(___llmod@dividend),w
	movwf	(?___llmod)

	line	21
	
l3456:	
	return
	opt stack 0
GLOBAL	__end_of___llmod
	__end_of___llmod:
;; =============== function ___llmod ends ============

	signat	___llmod,8316
	global	___awdiv
psect	text538,local,class=CODE,delta=2
global __ptext538
__ptext538:

;; *************** function ___awdiv *****************
;; Defined at:
;;		line 5 in file "C:\Program Files (x86)\HI-TECH Software\PICC\9.83\sources\awdiv.c"
;; Parameters:    Size  Location     Type
;;  divisor         2    8[COMMON] int 
;;  dividend        2   10[COMMON] int 
;; Auto vars:     Size  Location     Type
;;  quotient        2    2[BANK0 ] int 
;;  sign            1    1[BANK0 ] unsigned char 
;;  counter         1    0[BANK0 ] unsigned char 
;; Return value:  Size  Location     Type
;;                  2    8[COMMON] int 
;; Registers used:
;;		wreg, status,2, status,0
;; Tracked objects:
;;		On entry : 40/20
;;		On exit  : 60/0
;;		Unchanged: FFF9F/0
;; Data sizes:     COMMON   BANK0   BANK1   BANK3   BANK2
;;      Params:         4       0       0       0       0
;;      Locals:         0       4       0       0       0
;;      Temps:          0       0       0       0       0
;;      Totals:         4       4       0       0       0
;;Total ram usage:        8 bytes
;; Hardware stack levels used:    1
;; Hardware stack levels required when called:    1
;; This function calls:
;;		Nothing
;; This function is called by:
;;		_scale
;;		_printf
;; This function uses a non-reentrant model
;;
psect	text538
	file	"C:\Program Files (x86)\HI-TECH Software\PICC\9.83\sources\awdiv.c"
	line	5
	global	__size_of___awdiv
	__size_of___awdiv	equ	__end_of___awdiv-___awdiv
	
___awdiv:	
	opt	stack 4
; Regs used in ___awdiv: [wreg+status,2+status,0]
	line	9
	
l6328:	
	bcf	status, 5	;RP0=0, select bank0
	clrf	(___awdiv@sign)
	line	10
	
l6330:	
	btfss	(___awdiv@divisor+1),7
	goto	u2471
	goto	u2470
u2471:
	goto	l6336
u2470:
	line	11
	
l6332:	
	comf	(___awdiv@divisor),f
	comf	(___awdiv@divisor+1),f
	incf	(___awdiv@divisor),f
	skipnz
	incf	(___awdiv@divisor+1),f
	line	12
	
l6334:	
	clrf	(___awdiv@sign)
	incf	(___awdiv@sign),f
	line	14
	
l6336:	
	btfss	(___awdiv@dividend+1),7
	goto	u2481
	goto	u2480
u2481:
	goto	l6342
u2480:
	line	15
	
l6338:	
	comf	(___awdiv@dividend),f
	comf	(___awdiv@dividend+1),f
	incf	(___awdiv@dividend),f
	skipnz
	incf	(___awdiv@dividend+1),f
	line	16
	
l6340:	
	movlw	(01h)
	xorwf	(___awdiv@sign),f
	line	18
	
l6342:	
	clrf	(___awdiv@quotient)
	clrf	(___awdiv@quotient+1)
	line	19
	
l6344:	
	movf	(___awdiv@divisor+1),w
	iorwf	(___awdiv@divisor),w
	skipnz
	goto	u2491
	goto	u2490
u2491:
	goto	l6364
u2490:
	line	20
	
l6346:	
	clrf	(___awdiv@counter)
	incf	(___awdiv@counter),f
	line	21
	goto	l6350
	line	22
	
l6348:	
	clrc
	rlf	(___awdiv@divisor),f
	rlf	(___awdiv@divisor+1),f
	line	23
	incf	(___awdiv@counter),f
	line	21
	
l6350:	
	btfss	(___awdiv@divisor+1),(15)&7
	goto	u2501
	goto	u2500
u2501:
	goto	l6348
u2500:
	line	26
	
l6352:	
	clrc
	rlf	(___awdiv@quotient),f
	rlf	(___awdiv@quotient+1),f
	line	27
	
l6354:	
	movf	(___awdiv@divisor+1),w
	subwf	(___awdiv@dividend+1),w
	skipz
	goto	u2515
	movf	(___awdiv@divisor),w
	subwf	(___awdiv@dividend),w
u2515:
	skipc
	goto	u2511
	goto	u2510
u2511:
	goto	l6360
u2510:
	line	28
	
l6356:	
	movf	(___awdiv@divisor),w
	subwf	(___awdiv@dividend),f
	movf	(___awdiv@divisor+1),w
	skipc
	decf	(___awdiv@dividend+1),f
	subwf	(___awdiv@dividend+1),f
	line	29
	
l6358:	
	bsf	(___awdiv@quotient)+(0/8),(0)&7
	line	31
	
l6360:	
	clrc
	rrf	(___awdiv@divisor+1),f
	rrf	(___awdiv@divisor),f
	line	32
	
l6362:	
	decfsz	(___awdiv@counter),f
	goto	u2521
	goto	u2520
u2521:
	goto	l6352
u2520:
	line	34
	
l6364:	
	movf	(___awdiv@sign),w
	skipz
	goto	u2530
	goto	l6368
u2530:
	line	35
	
l6366:	
	comf	(___awdiv@quotient),f
	comf	(___awdiv@quotient+1),f
	incf	(___awdiv@quotient),f
	skipnz
	incf	(___awdiv@quotient+1),f
	line	36
	
l6368:	
	movf	(___awdiv@quotient+1),w
	movwf	(?___awdiv+1)
	movf	(___awdiv@quotient),w
	movwf	(?___awdiv)
	line	37
	
l3446:	
	return
	opt stack 0
GLOBAL	__end_of___awdiv
	__end_of___awdiv:
;; =============== function ___awdiv ends ============

	signat	___awdiv,8314
	global	___fttol
psect	text539,local,class=CODE,delta=2
global __ptext539
__ptext539:

;; *************** function ___fttol *****************
;; Defined at:
;;		line 45 in file "C:\Program Files (x86)\HI-TECH Software\PICC\9.83\sources\fttol.c"
;; Parameters:    Size  Location     Type
;;  f1              3    4[BANK0 ] float 
;; Auto vars:     Size  Location     Type
;;  lval            4   12[BANK0 ] unsigned long 
;;  exp1            1   16[BANK0 ] unsigned char 
;;  sign1           1   11[BANK0 ] unsigned char 
;; Return value:  Size  Location     Type
;;                  4    4[BANK0 ] long 
;; Registers used:
;;		wreg, status,2, status,0
;; Tracked objects:
;;		On entry : 60/0
;;		On exit  : 60/0
;;		Unchanged: FFF9F/0
;; Data sizes:     COMMON   BANK0   BANK1   BANK3   BANK2
;;      Params:         0       4       0       0       0
;;      Locals:         0       6       0       0       0
;;      Temps:          0       3       0       0       0
;;      Totals:         0      13       0       0       0
;;Total ram usage:       13 bytes
;; Hardware stack levels used:    1
;; Hardware stack levels required when called:    1
;; This function calls:
;;		Nothing
;; This function is called by:
;;		_printf
;; This function uses a non-reentrant model
;;
psect	text539
	file	"C:\Program Files (x86)\HI-TECH Software\PICC\9.83\sources\fttol.c"
	line	45
	global	__size_of___fttol
	__size_of___fttol	equ	__end_of___fttol-___fttol
	
___fttol:	
	opt	stack 5
; Regs used in ___fttol: [wreg+status,2+status,0]
	line	49
	
l6290:	
	movf	(___fttol@f1),w
	movwf	((??___fttol+0)+0)
	movf	(___fttol@f1+1),w
	movwf	((??___fttol+0)+0+1)
	movf	(___fttol@f1+2),w
	movwf	((??___fttol+0)+0+2)
	clrc
	rlf	(??___fttol+0)+1,w
	rlf	(??___fttol+0)+2,w
	movwf	(___fttol@exp1)
	movf	((___fttol@exp1)),f
	skipz
	goto	u2391
	goto	u2390
u2391:
	goto	l6294
u2390:
	line	50
	
l6292:	
	clrf	(?___fttol)
	clrf	(?___fttol+1)
	clrf	(?___fttol+2)
	clrf	(?___fttol+3)
	goto	l3406
	line	51
	
l6294:	
	movf	(___fttol@f1),w
	movwf	((??___fttol+0)+0)
	movf	(___fttol@f1+1),w
	movwf	((??___fttol+0)+0+1)
	movf	(___fttol@f1+2),w
	movwf	((??___fttol+0)+0+2)
	movlw	017h
u2405:
	clrc
	rrf	(??___fttol+0)+2,f
	rrf	(??___fttol+0)+1,f
	rrf	(??___fttol+0)+0,f
u2400:
	addlw	-1
	skipz
	goto	u2405
	movf	0+(??___fttol+0)+0,w
	movwf	(___fttol@sign1)
	line	52
	
l6296:	
	bsf	(___fttol@f1)+(15/8),(15)&7
	line	53
	
l6298:	
	movlw	0FFh
	andwf	(___fttol@f1),f
	movlw	0FFh
	andwf	(___fttol@f1+1),f
	movlw	0
	andwf	(___fttol@f1+2),f
	line	54
	
l6300:	
	movf	(___fttol@f1),w
	movwf	(___fttol@lval)
	movf	(___fttol@f1+1),w
	movwf	((___fttol@lval))+1
	movf	(___fttol@f1+2),w
	movwf	((___fttol@lval))+2
	clrf	((___fttol@lval))+3
	line	55
	
l6302:	
	movlw	low(08Eh)
	subwf	(___fttol@exp1),f
	line	56
	
l6304:	
	btfss	(___fttol@exp1),7
	goto	u2411
	goto	u2410
u2411:
	goto	l6314
u2410:
	line	57
	
l6306:	
	movf	(___fttol@exp1),w
	xorlw	80h
	addlw	-((-15)^80h)
	skipnc
	goto	u2421
	goto	u2420
u2421:
	goto	l6310
u2420:
	goto	l6292
	line	60
	
l6310:	
	clrc
	rrf	(___fttol@lval+3),f
	rrf	(___fttol@lval+2),f
	rrf	(___fttol@lval+1),f
	rrf	(___fttol@lval),f
	line	61
	
l6312:	
	incfsz	(___fttol@exp1),f
	goto	u2431
	goto	u2430
u2431:
	goto	l6310
u2430:
	goto	l6320
	line	63
	
l6314:	
	movlw	(018h)
	subwf	(___fttol@exp1),w
	skipc
	goto	u2441
	goto	u2440
u2441:
	goto	l3413
u2440:
	goto	l6292
	line	66
	
l6318:	
	clrc
	rlf	(___fttol@lval),f
	rlf	(___fttol@lval+1),f
	rlf	(___fttol@lval+2),f
	rlf	(___fttol@lval+3),f
	line	67
	decf	(___fttol@exp1),f
	line	68
	
l3413:	
	line	65
	movf	(___fttol@exp1),f
	skipz
	goto	u2451
	goto	u2450
u2451:
	goto	l6318
u2450:
	line	70
	
l6320:	
	movf	(___fttol@sign1),w
	skipz
	goto	u2460
	goto	l6324
u2460:
	line	71
	
l6322:	
	comf	(___fttol@lval),f
	comf	(___fttol@lval+1),f
	comf	(___fttol@lval+2),f
	comf	(___fttol@lval+3),f
	incf	(___fttol@lval),f
	skipnz
	incf	(___fttol@lval+1),f
	skipnz
	incf	(___fttol@lval+2),f
	skipnz
	incf	(___fttol@lval+3),f
	line	72
	
l6324:	
	movf	(___fttol@lval+3),w
	movwf	(?___fttol+3)
	movf	(___fttol@lval+2),w
	movwf	(?___fttol+2)
	movf	(___fttol@lval+1),w
	movwf	(?___fttol+1)
	movf	(___fttol@lval),w
	movwf	(?___fttol)

	line	73
	
l3406:	
	return
	opt stack 0
GLOBAL	__end_of___fttol
	__end_of___fttol:
;; =============== function ___fttol ends ============

	signat	___fttol,4220
	global	___ftpack
psect	text540,local,class=CODE,delta=2
global __ptext540
__ptext540:

;; *************** function ___ftpack *****************
;; Defined at:
;;		line 63 in file "C:\Program Files (x86)\HI-TECH Software\PICC\9.83\sources\float.c"
;; Parameters:    Size  Location     Type
;;  arg             3    2[COMMON] unsigned um
;;  exp             1    5[COMMON] unsigned char 
;;  sign            1    6[COMMON] unsigned char 
;; Auto vars:     Size  Location     Type
;;		None
;; Return value:  Size  Location     Type
;;                  3    2[COMMON] float 
;; Registers used:
;;		wreg, status,2, status,0
;; Tracked objects:
;;		On entry : 60/0
;;		On exit  : 60/0
;;		Unchanged: FFF9F/0
;; Data sizes:     COMMON   BANK0   BANK1   BANK3   BANK2
;;      Params:         5       0       0       0       0
;;      Locals:         0       0       0       0       0
;;      Temps:          3       0       0       0       0
;;      Totals:         8       0       0       0       0
;;Total ram usage:        8 bytes
;; Hardware stack levels used:    1
;; Hardware stack levels required when called:    1
;; This function calls:
;;		Nothing
;; This function is called by:
;;		___ftadd
;;		___ftmul
;;		___altoft
;;		___lltoft
;; This function uses a non-reentrant model
;;
psect	text540
	file	"C:\Program Files (x86)\HI-TECH Software\PICC\9.83\sources\float.c"
	line	63
	global	__size_of___ftpack
	__size_of___ftpack	equ	__end_of___ftpack-___ftpack
	
___ftpack:	
	opt	stack 3
; Regs used in ___ftpack: [wreg+status,2+status,0]
	line	64
	
l6262:	
	movf	(___ftpack@exp),w
	skipz
	goto	u2320
	goto	l6266
u2320:
	
l6264:	
	movf	(___ftpack@arg+2),w
	iorwf	(___ftpack@arg+1),w
	iorwf	(___ftpack@arg),w
	skipz
	goto	u2331
	goto	u2330
u2331:
	goto	l6272
u2330:
	line	65
	
l6266:	
	clrf	(?___ftpack)
	clrf	(?___ftpack+1)
	clrf	(?___ftpack+2)
	goto	l3665
	line	67
	
l6270:	
	incf	(___ftpack@exp),f
	line	68
	clrc
	rrf	(___ftpack@arg+2),f
	rrf	(___ftpack@arg+1),f
	rrf	(___ftpack@arg),f
	line	66
	
l6272:	
	movlw	low highword(0FE0000h)
	andwf	(___ftpack@arg+2),w
	btfss	status,2
	goto	u2341
	goto	u2340
u2341:
	goto	l6270
u2340:
	goto	l6276
	line	71
	
l6274:	
	incf	(___ftpack@exp),f
	line	72
	incf	(___ftpack@arg),f
	skipnz
	incf	(___ftpack@arg+1),f
	skipnz
	incf	(___ftpack@arg+2),f
	line	73
	clrc
	rrf	(___ftpack@arg+2),f
	rrf	(___ftpack@arg+1),f
	rrf	(___ftpack@arg),f
	line	70
	
l6276:	
	movlw	low highword(0FF0000h)
	andwf	(___ftpack@arg+2),w
	btfss	status,2
	goto	u2351
	goto	u2350
u2351:
	goto	l6274
u2350:
	goto	l6280
	line	76
	
l6278:	
	decf	(___ftpack@exp),f
	line	77
	clrc
	rlf	(___ftpack@arg),f
	rlf	(___ftpack@arg+1),f
	rlf	(___ftpack@arg+2),f
	line	75
	
l6280:	
	btfss	(___ftpack@arg+1),(15)&7
	goto	u2361
	goto	u2360
u2361:
	goto	l6278
u2360:
	
l3674:	
	line	79
	btfsc	(___ftpack@exp),(0)&7
	goto	u2371
	goto	u2370
u2371:
	goto	l3675
u2370:
	line	80
	
l6282:	
	bcf	(___ftpack@arg)+(15/8),(15)&7
	
l3675:	
	line	81
	clrc
	rrf	(___ftpack@exp),f
	line	82
	
l6284:	
	movf	(___ftpack@exp),w
	movwf	((??___ftpack+0)+0+2)
	clrf	((??___ftpack+0)+0+1)
	clrf	((??___ftpack+0)+0+0)
	movf	0+(??___ftpack+0)+0,w
	iorwf	(___ftpack@arg),f
	movf	1+(??___ftpack+0)+0,w
	iorwf	(___ftpack@arg+1),f
	movf	2+(??___ftpack+0)+0,w
	iorwf	(___ftpack@arg+2),f
	line	83
	
l6286:	
	movf	(___ftpack@sign),w
	skipz
	goto	u2380
	goto	l3676
u2380:
	line	84
	
l6288:	
	bsf	(___ftpack@arg)+(23/8),(23)&7
	
l3676:	
	line	85
	line	86
	
l3665:	
	return
	opt stack 0
GLOBAL	__end_of___ftpack
	__end_of___ftpack:
;; =============== function ___ftpack ends ============

	signat	___ftpack,12411
	global	___lbmod
psect	text541,local,class=CODE,delta=2
global __ptext541
__ptext541:

;; *************** function ___lbmod *****************
;; Defined at:
;;		line 5 in file "C:\Program Files (x86)\HI-TECH Software\PICC\9.83\sources\lbmod.c"
;; Parameters:    Size  Location     Type
;;  dividend        1    wreg     unsigned char 
;;  divisor         1    2[COMMON] unsigned char 
;; Auto vars:     Size  Location     Type
;;  dividend        1    4[COMMON] unsigned char 
;;  rem             1    6[COMMON] unsigned char 
;;  counter         1    5[COMMON] unsigned char 
;; Return value:  Size  Location     Type
;;                  1    wreg      unsigned char 
;; Registers used:
;;		wreg, status,2, status,0
;; Tracked objects:
;;		On entry : 60/0
;;		On exit  : 60/0
;;		Unchanged: FFF9F/0
;; Data sizes:     COMMON   BANK0   BANK1   BANK3   BANK2
;;      Params:         1       0       0       0       0
;;      Locals:         3       0       0       0       0
;;      Temps:          1       0       0       0       0
;;      Totals:         5       0       0       0       0
;;Total ram usage:        5 bytes
;; Hardware stack levels used:    1
;; Hardware stack levels required when called:    1
;; This function calls:
;;		Nothing
;; This function is called by:
;;		_fround
;; This function uses a non-reentrant model
;;
psect	text541
	file	"C:\Program Files (x86)\HI-TECH Software\PICC\9.83\sources\lbmod.c"
	line	5
	global	__size_of___lbmod
	__size_of___lbmod	equ	__end_of___lbmod-___lbmod
	
___lbmod:	
	opt	stack 4
; Regs used in ___lbmod: [wreg+status,2+status,0]
;___lbmod@dividend stored from wreg
	line	9
	movwf	(___lbmod@dividend)
	
l6244:	
	movlw	(08h)
	movwf	(___lbmod@counter)
	line	10
	
l6246:	
	clrf	(___lbmod@rem)
	line	12
	
l6248:	
	movf	(___lbmod@dividend),w
	movwf	(??___lbmod+0)+0
	movlw	07h
u2295:
	clrc
	rrf	(??___lbmod+0)+0,f
	addlw	-1
	skipz
	goto	u2295
	clrc
	rlf	(___lbmod@rem),w
	iorwf	0+(??___lbmod+0)+0,w
	movwf	(___lbmod@rem)
	line	13
	
l6250:	
	clrc
	rlf	(___lbmod@dividend),f
	line	14
	
l6252:	
	movf	(___lbmod@divisor),w
	subwf	(___lbmod@rem),w
	skipc
	goto	u2301
	goto	u2300
u2301:
	goto	l6256
u2300:
	line	15
	
l6254:	
	movf	(___lbmod@divisor),w
	subwf	(___lbmod@rem),f
	line	16
	
l6256:	
	decfsz	(___lbmod@counter),f
	goto	u2311
	goto	u2310
u2311:
	goto	l6248
u2310:
	line	17
	
l6258:	
	movf	(___lbmod@rem),w
	line	18
	
l3335:	
	return
	opt stack 0
GLOBAL	__end_of___lbmod
	__end_of___lbmod:
;; =============== function ___lbmod ends ============

	signat	___lbmod,8313
	global	___lbdiv
psect	text542,local,class=CODE,delta=2
global __ptext542
__ptext542:

;; *************** function ___lbdiv *****************
;; Defined at:
;;		line 5 in file "C:\Program Files (x86)\HI-TECH Software\PICC\9.83\sources\lbdiv.c"
;; Parameters:    Size  Location     Type
;;  dividend        1    wreg     unsigned char 
;;  divisor         1    7[COMMON] unsigned char 
;; Auto vars:     Size  Location     Type
;;  dividend        1    8[COMMON] unsigned char 
;;  quotient        1   10[COMMON] unsigned char 
;;  counter         1    9[COMMON] unsigned char 
;; Return value:  Size  Location     Type
;;                  1    wreg      unsigned char 
;; Registers used:
;;		wreg, status,2, status,0
;; Tracked objects:
;;		On entry : 60/0
;;		On exit  : 60/0
;;		Unchanged: FFF9F/0
;; Data sizes:     COMMON   BANK0   BANK1   BANK3   BANK2
;;      Params:         1       0       0       0       0
;;      Locals:         3       0       0       0       0
;;      Temps:          0       0       0       0       0
;;      Totals:         4       0       0       0       0
;;Total ram usage:        4 bytes
;; Hardware stack levels used:    1
;; Hardware stack levels required when called:    1
;; This function calls:
;;		Nothing
;; This function is called by:
;;		_fround
;; This function uses a non-reentrant model
;;
psect	text542
	file	"C:\Program Files (x86)\HI-TECH Software\PICC\9.83\sources\lbdiv.c"
	line	5
	global	__size_of___lbdiv
	__size_of___lbdiv	equ	__end_of___lbdiv-___lbdiv
	
___lbdiv:	
	opt	stack 4
; Regs used in ___lbdiv: [wreg+status,2+status,0]
;___lbdiv@dividend stored from wreg
	line	9
	movwf	(___lbdiv@dividend)
	
l6220:	
	clrf	(___lbdiv@quotient)
	line	10
	
l6222:	
	movf	(___lbdiv@divisor),w
	skipz
	goto	u2250
	goto	l6240
u2250:
	line	11
	
l6224:	
	clrf	(___lbdiv@counter)
	incf	(___lbdiv@counter),f
	line	12
	goto	l6228
	
l3324:	
	line	13
	clrc
	rlf	(___lbdiv@divisor),f
	line	14
	
l6226:	
	incf	(___lbdiv@counter),f
	line	12
	
l6228:	
	btfss	(___lbdiv@divisor),(7)&7
	goto	u2261
	goto	u2260
u2261:
	goto	l3324
u2260:
	line	16
	
l3326:	
	line	17
	clrc
	rlf	(___lbdiv@quotient),f
	line	18
	
l6230:	
	movf	(___lbdiv@divisor),w
	subwf	(___lbdiv@dividend),w
	skipc
	goto	u2271
	goto	u2270
u2271:
	goto	l6236
u2270:
	line	19
	
l6232:	
	movf	(___lbdiv@divisor),w
	subwf	(___lbdiv@dividend),f
	line	20
	
l6234:	
	bsf	(___lbdiv@quotient)+(0/8),(0)&7
	line	22
	
l6236:	
	clrc
	rrf	(___lbdiv@divisor),f
	line	23
	
l6238:	
	decfsz	(___lbdiv@counter),f
	goto	u2281
	goto	u2280
u2281:
	goto	l3326
u2280:
	line	25
	
l6240:	
	movf	(___lbdiv@quotient),w
	line	26
	
l3329:	
	return
	opt stack 0
GLOBAL	__end_of___lbdiv
	__end_of___lbdiv:
;; =============== function ___lbdiv ends ============

	signat	___lbdiv,8313
	global	___wmul
psect	text543,local,class=CODE,delta=2
global __ptext543
__ptext543:

;; *************** function ___wmul *****************
;; Defined at:
;;		line 3 in file "C:\Program Files (x86)\HI-TECH Software\PICC\9.83\sources\wmul.c"
;; Parameters:    Size  Location     Type
;;  multiplier      2    2[COMMON] unsigned int 
;;  multiplicand    2    4[COMMON] unsigned int 
;; Auto vars:     Size  Location     Type
;;  product         2    6[COMMON] unsigned int 
;; Return value:  Size  Location     Type
;;                  2    2[COMMON] unsigned int 
;; Registers used:
;;		wreg, status,2, status,0
;; Tracked objects:
;;		On entry : 60/20
;;		On exit  : 60/20
;;		Unchanged: FFF9F/0
;; Data sizes:     COMMON   BANK0   BANK1   BANK3   BANK2
;;      Params:         4       0       0       0       0
;;      Locals:         2       0       0       0       0
;;      Temps:          0       0       0       0       0
;;      Totals:         6       0       0       0       0
;;Total ram usage:        6 bytes
;; Hardware stack levels used:    1
;; Hardware stack levels required when called:    1
;; This function calls:
;;		Nothing
;; This function is called by:
;;		_fround
;;		_scale
;;		_printf
;; This function uses a non-reentrant model
;;
psect	text543
	file	"C:\Program Files (x86)\HI-TECH Software\PICC\9.83\sources\wmul.c"
	line	3
	global	__size_of___wmul
	__size_of___wmul	equ	__end_of___wmul-___wmul
	
___wmul:	
	opt	stack 5
; Regs used in ___wmul: [wreg+status,2+status,0]
	line	4
	
l6204:	
	clrf	(___wmul@product)
	clrf	(___wmul@product+1)
	line	7
	
l6206:	
	btfss	(___wmul@multiplier),(0)&7
	goto	u2231
	goto	u2230
u2231:
	goto	l6210
u2230:
	line	8
	
l6208:	
	movf	(___wmul@multiplicand),w
	addwf	(___wmul@product),f
	skipnc
	incf	(___wmul@product+1),f
	movf	(___wmul@multiplicand+1),w
	addwf	(___wmul@product+1),f
	line	9
	
l6210:	
	clrc
	rlf	(___wmul@multiplicand),f
	rlf	(___wmul@multiplicand+1),f
	line	10
	
l6212:	
	clrc
	rrf	(___wmul@multiplier+1),f
	rrf	(___wmul@multiplier),f
	line	11
	
l6214:	
	movf	((___wmul@multiplier+1)),w
	iorwf	((___wmul@multiplier)),w
	skipz
	goto	u2241
	goto	u2240
u2241:
	goto	l6206
u2240:
	line	12
	
l6216:	
	movf	(___wmul@product+1),w
	movwf	(?___wmul+1)
	movf	(___wmul@product),w
	movwf	(?___wmul)
	line	13
	
l3299:	
	return
	opt stack 0
GLOBAL	__end_of___wmul
	__end_of___wmul:
;; =============== function ___wmul ends ============

	signat	___wmul,8314
	global	___bmul
psect	text544,local,class=CODE,delta=2
global __ptext544
__ptext544:

;; *************** function ___bmul *****************
;; Defined at:
;;		line 3 in file "C:\Program Files (x86)\HI-TECH Software\PICC\9.83\sources\bmul.c"
;; Parameters:    Size  Location     Type
;;  multiplier      1    wreg     unsigned char 
;;  multiplicand    1   11[COMMON] unsigned char 
;; Auto vars:     Size  Location     Type
;;  multiplier      1    1[BANK0 ] unsigned char 
;;  product         1    0[BANK0 ] unsigned char 
;; Return value:  Size  Location     Type
;;                  1    wreg      unsigned char 
;; Registers used:
;;		wreg, status,2, status,0
;; Tracked objects:
;;		On entry : 60/0
;;		On exit  : 60/0
;;		Unchanged: FFF9F/0
;; Data sizes:     COMMON   BANK0   BANK1   BANK3   BANK2
;;      Params:         1       0       0       0       0
;;      Locals:         0       2       0       0       0
;;      Temps:          0       0       0       0       0
;;      Totals:         1       2       0       0       0
;;Total ram usage:        3 bytes
;; Hardware stack levels used:    1
;; Hardware stack levels required when called:    1
;; This function calls:
;;		Nothing
;; This function is called by:
;;		_fround
;;		_scale
;; This function uses a non-reentrant model
;;
psect	text544
	file	"C:\Program Files (x86)\HI-TECH Software\PICC\9.83\sources\bmul.c"
	line	3
	global	__size_of___bmul
	__size_of___bmul	equ	__end_of___bmul-___bmul
	
___bmul:	
	opt	stack 4
; Regs used in ___bmul: [wreg+status,2+status,0]
;___bmul@multiplier stored from wreg
	movwf	(___bmul@multiplier)
	line	4
	
l6188:	
	clrf	(___bmul@product)
	line	7
	
l6190:	
	btfss	(___bmul@multiplier),(0)&7
	goto	u2211
	goto	u2210
u2211:
	goto	l6194
u2210:
	line	8
	
l6192:	
	movf	(___bmul@multiplicand),w
	addwf	(___bmul@product),f
	line	9
	
l6194:	
	clrc
	rlf	(___bmul@multiplicand),f
	line	10
	
l6196:	
	clrc
	rrf	(___bmul@multiplier),f
	line	11
	
l6198:	
	movf	(___bmul@multiplier),f
	skipz
	goto	u2221
	goto	u2220
u2221:
	goto	l6190
u2220:
	line	12
	
l6200:	
	movf	(___bmul@product),w
	line	13
	
l3293:	
	return
	opt stack 0
GLOBAL	__end_of___bmul
	__end_of___bmul:
;; =============== function ___bmul ends ============

	signat	___bmul,8313
	global	__div_to_l_
psect	text545,local,class=CODE,delta=2
global __ptext545
__ptext545:

;; *************** function __div_to_l_ *****************
;; Defined at:
;;		line 61 in file "C:\Program Files (x86)\HI-TECH Software\PICC\9.83\sources\fldivl.c"
;; Parameters:    Size  Location     Type
;;  f1              3    2[COMMON] unsigned char 
;;  f2              3    5[COMMON] unsigned char 
;; Auto vars:     Size  Location     Type
;;  quot            4    8[BANK0 ] unsigned long 
;;  exp1            1   13[BANK0 ] unsigned char 
;;  cntr            1   12[BANK0 ] unsigned char 
;; Return value:  Size  Location     Type
;;                  4    2[COMMON] unsigned long 
;; Registers used:
;;		wreg, fsr0l, fsr0h, status,2, status,0
;; Tracked objects:
;;		On entry : 0/0
;;		On exit  : 60/0
;;		Unchanged: FFF9F/0
;; Data sizes:     COMMON   BANK0   BANK1   BANK3   BANK2
;;      Params:         6       0       0       0       0
;;      Locals:         0       6       0       0       0
;;      Temps:          0       8       0       0       0
;;      Totals:         6      14       0       0       0
;;Total ram usage:       20 bytes
;; Hardware stack levels used:    1
;; Hardware stack levels required when called:    1
;; This function calls:
;;		Nothing
;; This function is called by:
;;		_printf
;; This function uses a non-reentrant model
;;
psect	text545
	file	"C:\Program Files (x86)\HI-TECH Software\PICC\9.83\sources\fldivl.c"
	line	61
	global	__size_of__div_to_l_
	__size_of__div_to_l_	equ	__end_of__div_to_l_-__div_to_l_
	
__div_to_l_:	
	opt	stack 5
; Regs used in __div_to_l_: [wreg-fsr0h+status,2+status,0]
	line	66
	
l6142:	
	movlw	low(__div_to_l_@f1)
	movwf	fsr0
	movf	indf,w
	bcf	status, 5	;RP0=0, select bank0
	bcf	status, 6	;RP1=0, select bank0
	movwf	(??__div_to_l_+0)+0+0
	incf	fsr0,f
	movf	indf,w
	movwf	(??__div_to_l_+0)+0+1
	incf	fsr0,f
	movf	indf,w
	movwf	(??__div_to_l_+0)+0+2
	incf	fsr0,f
	movf	indf,w
	movwf	(??__div_to_l_+0)+0+3
	clrc
	rlf	(??__div_to_l_+0)+2,w
	rlf	(??__div_to_l_+0)+3,w
	movwf	(__div_to_l_@exp1)
	movf	((__div_to_l_@exp1)),f
	skipz
	goto	u2121
	goto	u2120
u2121:
	goto	l6146
u2120:
	line	67
	
l6144:	
	clrf	(?__div_to_l_)
	clrf	(?__div_to_l_+1)
	clrf	(?__div_to_l_+2)
	clrf	(?__div_to_l_+3)
	goto	l3583
	line	68
	
l6146:	
	movlw	low(__div_to_l_@f2)
	movwf	fsr0
	movf	indf,w
	movwf	(??__div_to_l_+0)+0+0
	incf	fsr0,f
	movf	indf,w
	movwf	(??__div_to_l_+0)+0+1
	incf	fsr0,f
	movf	indf,w
	movwf	(??__div_to_l_+0)+0+2
	incf	fsr0,f
	movf	indf,w
	movwf	(??__div_to_l_+0)+0+3
	clrc
	rlf	(??__div_to_l_+0)+2,w
	rlf	(??__div_to_l_+0)+3,w
	movwf	(__div_to_l_@cntr)
	movf	((__div_to_l_@cntr)),f
	skipz
	goto	u2131
	goto	u2130
u2131:
	goto	l6150
u2130:
	goto	l6144
	line	70
	
l6150:	
	movlw	low(__div_to_l_@f1)
	movwf	fsr0
	movlw	0
	iorwf	indf,f
	incf	fsr0,f
	movlw	0
	iorwf	indf,f
	incf	fsr0,f
	movlw	080h
	iorwf	indf,f
	incf	fsr0,f
	movlw	0
	iorwf	indf,f
	line	71
	movlw	low(__div_to_l_@f1)
	movwf	fsr0
	movlw	0FFh
	andwf	indf,f
	incf	fsr0,f
	movlw	0FFh
	andwf	indf,f
	incf	fsr0,f
	movlw	0FFh
	andwf	indf,f
	incf	fsr0,f
	movlw	0
	andwf	indf,f
	line	72
	movlw	low(__div_to_l_@f2)
	movwf	fsr0
	movlw	0
	iorwf	indf,f
	incf	fsr0,f
	movlw	0
	iorwf	indf,f
	incf	fsr0,f
	movlw	080h
	iorwf	indf,f
	incf	fsr0,f
	movlw	0
	iorwf	indf,f
	line	73
	movlw	low(__div_to_l_@f2)
	movwf	fsr0
	movlw	0FFh
	andwf	indf,f
	incf	fsr0,f
	movlw	0FFh
	andwf	indf,f
	incf	fsr0,f
	movlw	0FFh
	andwf	indf,f
	incf	fsr0,f
	movlw	0
	andwf	indf,f
	line	74
	
l6152:	
	clrf	(__div_to_l_@quot)
	clrf	(__div_to_l_@quot+1)
	clrf	(__div_to_l_@quot+2)
	clrf	(__div_to_l_@quot+3)
	line	75
	
l6154:	
	movlw	low(07Fh)
	subwf	(__div_to_l_@exp1),f
	line	76
	
l6156:	
	movlw	(0A0h)
	addwf	(__div_to_l_@cntr),w
	movwf	(??__div_to_l_+0)+0
	movf	0+(??__div_to_l_+0)+0,w
	subwf	(__div_to_l_@exp1),f
	line	77
	
l6158:	
	movlw	(020h)
	movwf	(__div_to_l_@cntr)
	line	79
	
l6160:	
	clrc
	rlf	(__div_to_l_@quot),f
	rlf	(__div_to_l_@quot+1),f
	rlf	(__div_to_l_@quot+2),f
	rlf	(__div_to_l_@quot+3),f
	line	80
	
l6162:	
	movlw	low(__div_to_l_@f2)
	movwf	fsr0
	movf	indf,w
	movwf	(??__div_to_l_+0)+0+0
	incf	fsr0,f
	movf	indf,w
	movwf	(??__div_to_l_+0)+0+1
	incf	fsr0,f
	movf	indf,w
	movwf	(??__div_to_l_+0)+0+2
	incf	fsr0,f
	movf	indf,w
	movwf	(??__div_to_l_+0)+0+3
	movlw	low(__div_to_l_@f1)
	movwf	fsr0
	movf	indf,w
	movwf	(??__div_to_l_+4)+0+0
	incf	fsr0,f
	movf	indf,w
	movwf	(??__div_to_l_+4)+0+1
	incf	fsr0,f
	movf	indf,w
	movwf	(??__div_to_l_+4)+0+2
	incf	fsr0,f
	movf	indf,w
	movwf	(??__div_to_l_+4)+0+3
	movf	3+(??__div_to_l_+0)+0,w
	subwf	3+(??__div_to_l_+4)+0,w
	skipz
	goto	u2145
	movf	2+(??__div_to_l_+0)+0,w
	subwf	2+(??__div_to_l_+4)+0,w
	skipz
	goto	u2145
	movf	1+(??__div_to_l_+0)+0,w
	subwf	1+(??__div_to_l_+4)+0,w
	skipz
	goto	u2145
	movf	0+(??__div_to_l_+0)+0,w
	subwf	0+(??__div_to_l_+4)+0,w
u2145:
	skipc
	goto	u2141
	goto	u2140
u2141:
	goto	l3586
u2140:
	line	81
	
l6164:	
	movlw	low(__div_to_l_@f2)
	movwf	fsr0
	movf	indf,w
	movwf	(??__div_to_l_+0)+0+0
	incf	fsr0,f
	movf	indf,w
	movwf	(??__div_to_l_+0)+0+1
	incf	fsr0,f
	movf	indf,w
	movwf	(??__div_to_l_+0)+0+2
	incf	fsr0,f
	movf	indf,w
	movwf	(??__div_to_l_+0)+0+3
	movlw	low(__div_to_l_@f1)
	movwf	fsr0
	movf	0+(??__div_to_l_+0)+0,w
	subwf	indf,f
	incf	fsr0
	movf	1+(??__div_to_l_+0)+0,w
	skipc
	incfsz	1+(??__div_to_l_+0)+0,w
	subwf	indf,f
	incf	fsr0
	movf	2+(??__div_to_l_+0)+0,w
	skipc
	incfsz	2+(??__div_to_l_+0)+0,w
	subwf	indf,f
	incf	fsr0
	movf	3+(??__div_to_l_+0)+0,w
	skipc
	incf	3+(??__div_to_l_+0)+0,w
	subwf	indf,f
	movlw	3
	subwf	fsr0
	line	82
	
l6166:	
	bsf	(__div_to_l_@quot)+(0/8),(0)&7
	line	83
	
l3586:	
	line	84
	movlw	low(__div_to_l_@f1)
	movwf	fsr0
	clrc
	rlf	indf,f
	incf	fsr0,f
	rlf	indf,f
	incf	fsr0,f
	rlf	indf,f
	incf	fsr0,f
	rlf	indf,f
	line	85
	
l6168:	
	decfsz	(__div_to_l_@cntr),f
	goto	u2151
	goto	u2150
u2151:
	goto	l6160
u2150:
	
l3587:	
	line	86
	btfss	(__div_to_l_@exp1),7
	goto	u2161
	goto	u2160
u2161:
	goto	l6178
u2160:
	line	87
	
l6170:	
	movf	(__div_to_l_@exp1),w
	xorlw	80h
	addlw	-((-31)^80h)
	skipnc
	goto	u2171
	goto	u2170
u2171:
	goto	l6174
u2170:
	goto	l6144
	line	90
	
l6174:	
	clrc
	rrf	(__div_to_l_@quot+3),f
	rrf	(__div_to_l_@quot+2),f
	rrf	(__div_to_l_@quot+1),f
	rrf	(__div_to_l_@quot),f
	line	91
	
l6176:	
	incfsz	(__div_to_l_@exp1),f
	goto	u2181
	goto	u2180
u2181:
	goto	l6174
u2180:
	goto	l6184
	line	93
	
l6178:	
	movlw	(020h)
	subwf	(__div_to_l_@exp1),w
	skipc
	goto	u2191
	goto	u2190
u2191:
	goto	l3594
u2190:
	goto	l6144
	line	96
	
l6182:	
	clrc
	rlf	(__div_to_l_@quot),f
	rlf	(__div_to_l_@quot+1),f
	rlf	(__div_to_l_@quot+2),f
	rlf	(__div_to_l_@quot+3),f
	line	97
	decf	(__div_to_l_@exp1),f
	line	98
	
l3594:	
	line	95
	movf	(__div_to_l_@exp1),f
	skipz
	goto	u2201
	goto	u2200
u2201:
	goto	l6182
u2200:
	line	100
	
l6184:	
	movf	(__div_to_l_@quot+3),w
	movwf	(?__div_to_l_+3)
	movf	(__div_to_l_@quot+2),w
	movwf	(?__div_to_l_+2)
	movf	(__div_to_l_@quot+1),w
	movwf	(?__div_to_l_+1)
	movf	(__div_to_l_@quot),w
	movwf	(?__div_to_l_)

	line	101
	
l3583:	
	return
	opt stack 0
GLOBAL	__end_of__div_to_l_
	__end_of__div_to_l_:
;; =============== function __div_to_l_ ends ============

	signat	__div_to_l_,8316
	global	__tdiv_to_l_
psect	text546,local,class=CODE,delta=2
global __ptext546
__ptext546:

;; *************** function __tdiv_to_l_ *****************
;; Defined at:
;;		line 61 in file "C:\Program Files (x86)\HI-TECH Software\PICC\9.83\sources\ftdivl.c"
;; Parameters:    Size  Location     Type
;;  f1              3    2[COMMON] float 
;;  f2              3    5[COMMON] float 
;; Auto vars:     Size  Location     Type
;;  quot            4    0[BANK0 ] unsigned long 
;;  exp1            1    5[BANK0 ] unsigned char 
;;  cntr            1    4[BANK0 ] unsigned char 
;; Return value:  Size  Location     Type
;;                  4    2[COMMON] unsigned long 
;; Registers used:
;;		wreg, status,2, status,0
;; Tracked objects:
;;		On entry : 60/20
;;		On exit  : 60/0
;;		Unchanged: FFF9F/0
;; Data sizes:     COMMON   BANK0   BANK1   BANK3   BANK2
;;      Params:         6       0       0       0       0
;;      Locals:         0       6       0       0       0
;;      Temps:          3       0       0       0       0
;;      Totals:         9       6       0       0       0
;;Total ram usage:       15 bytes
;; Hardware stack levels used:    1
;; Hardware stack levels required when called:    1
;; This function calls:
;;		Nothing
;; This function is called by:
;;		_printf
;; This function uses a non-reentrant model
;;
psect	text546
	file	"C:\Program Files (x86)\HI-TECH Software\PICC\9.83\sources\ftdivl.c"
	line	61
	global	__size_of__tdiv_to_l_
	__size_of__tdiv_to_l_	equ	__end_of__tdiv_to_l_-__tdiv_to_l_
	
__tdiv_to_l_:	
	opt	stack 5
; Regs used in __tdiv_to_l_: [wreg+status,2+status,0]
	line	66
	
l6094:	
	movf	(__tdiv_to_l_@f1),w
	movwf	((??__tdiv_to_l_+0)+0)
	movf	(__tdiv_to_l_@f1+1),w
	movwf	((??__tdiv_to_l_+0)+0+1)
	movf	(__tdiv_to_l_@f1+2),w
	movwf	((??__tdiv_to_l_+0)+0+2)
	clrc
	rlf	(??__tdiv_to_l_+0)+1,w
	rlf	(??__tdiv_to_l_+0)+2,w
	bcf	status, 5	;RP0=0, select bank0
	movwf	(__tdiv_to_l_@exp1)
	movf	((__tdiv_to_l_@exp1)),f
	skipz
	goto	u2031
	goto	u2030
u2031:
	goto	l6098
u2030:
	line	67
	
l6096:	
	clrf	(?__tdiv_to_l_)
	clrf	(?__tdiv_to_l_+1)
	clrf	(?__tdiv_to_l_+2)
	clrf	(?__tdiv_to_l_+3)
	goto	l3540
	line	68
	
l6098:	
	movf	(__tdiv_to_l_@f2),w
	movwf	((??__tdiv_to_l_+0)+0)
	movf	(__tdiv_to_l_@f2+1),w
	movwf	((??__tdiv_to_l_+0)+0+1)
	movf	(__tdiv_to_l_@f2+2),w
	movwf	((??__tdiv_to_l_+0)+0+2)
	clrc
	rlf	(??__tdiv_to_l_+0)+1,w
	rlf	(??__tdiv_to_l_+0)+2,w
	movwf	(__tdiv_to_l_@cntr)
	movf	((__tdiv_to_l_@cntr)),f
	skipz
	goto	u2041
	goto	u2040
u2041:
	goto	l3541
u2040:
	goto	l6096
	line	69
	
l3541:	
	line	70
	bsf	(__tdiv_to_l_@f1)+(15/8),(15)&7
	line	71
	
l6102:	
	movlw	0FFh
	andwf	(__tdiv_to_l_@f1),f
	movlw	0FFh
	andwf	(__tdiv_to_l_@f1+1),f
	movlw	0
	andwf	(__tdiv_to_l_@f1+2),f
	line	72
	
l6104:	
	bsf	(__tdiv_to_l_@f2)+(15/8),(15)&7
	line	73
	movlw	0FFh
	andwf	(__tdiv_to_l_@f2),f
	movlw	0FFh
	andwf	(__tdiv_to_l_@f2+1),f
	movlw	0
	andwf	(__tdiv_to_l_@f2+2),f
	line	74
	
l6106:	
	clrf	(__tdiv_to_l_@quot)
	clrf	(__tdiv_to_l_@quot+1)
	clrf	(__tdiv_to_l_@quot+2)
	clrf	(__tdiv_to_l_@quot+3)
	line	75
	
l6108:	
	movlw	low(07Fh)
	subwf	(__tdiv_to_l_@exp1),f
	line	76
	
l6110:	
	movlw	(098h)
	addwf	(__tdiv_to_l_@cntr),w
	movwf	(??__tdiv_to_l_+0)+0
	movf	0+(??__tdiv_to_l_+0)+0,w
	subwf	(__tdiv_to_l_@exp1),f
	line	77
	movlw	(018h)
	movwf	(__tdiv_to_l_@cntr)
	line	79
	
l6112:	
	clrc
	rlf	(__tdiv_to_l_@quot),f
	rlf	(__tdiv_to_l_@quot+1),f
	rlf	(__tdiv_to_l_@quot+2),f
	rlf	(__tdiv_to_l_@quot+3),f
	line	80
	
l6114:	
	movf	(__tdiv_to_l_@f2+2),w
	subwf	(__tdiv_to_l_@f1+2),w
	skipz
	goto	u2055
	movf	(__tdiv_to_l_@f2+1),w
	subwf	(__tdiv_to_l_@f1+1),w
	skipz
	goto	u2055
	movf	(__tdiv_to_l_@f2),w
	subwf	(__tdiv_to_l_@f1),w
u2055:
	skipc
	goto	u2051
	goto	u2050
u2051:
	goto	l6120
u2050:
	line	81
	
l6116:	
	movf	(__tdiv_to_l_@f2),w
	subwf	(__tdiv_to_l_@f1),f
	movf	(__tdiv_to_l_@f2+1),w
	skipc
	incfsz	(__tdiv_to_l_@f2+1),w
	subwf	(__tdiv_to_l_@f1+1),f
	movf	(__tdiv_to_l_@f2+2),w
	skipc
	incf	(__tdiv_to_l_@f2+2),w
	subwf	(__tdiv_to_l_@f1+2),f
	line	82
	
l6118:	
	bsf	(__tdiv_to_l_@quot)+(0/8),(0)&7
	line	84
	
l6120:	
	clrc
	rlf	(__tdiv_to_l_@f1),f
	rlf	(__tdiv_to_l_@f1+1),f
	rlf	(__tdiv_to_l_@f1+2),f
	line	85
	
l6122:	
	decfsz	(__tdiv_to_l_@cntr),f
	goto	u2061
	goto	u2060
u2061:
	goto	l6112
u2060:
	
l3544:	
	line	86
	btfss	(__tdiv_to_l_@exp1),7
	goto	u2071
	goto	u2070
u2071:
	goto	l6132
u2070:
	line	87
	
l6124:	
	movf	(__tdiv_to_l_@exp1),w
	xorlw	80h
	addlw	-((-23)^80h)
	skipnc
	goto	u2081
	goto	u2080
u2081:
	goto	l6128
u2080:
	goto	l6096
	line	90
	
l6128:	
	clrc
	rrf	(__tdiv_to_l_@quot+3),f
	rrf	(__tdiv_to_l_@quot+2),f
	rrf	(__tdiv_to_l_@quot+1),f
	rrf	(__tdiv_to_l_@quot),f
	line	91
	
l6130:	
	incfsz	(__tdiv_to_l_@exp1),f
	goto	u2091
	goto	u2090
u2091:
	goto	l6128
u2090:
	goto	l6138
	line	93
	
l6132:	
	movlw	(018h)
	subwf	(__tdiv_to_l_@exp1),w
	skipc
	goto	u2101
	goto	u2100
u2101:
	goto	l3551
u2100:
	goto	l6096
	line	96
	
l6136:	
	clrc
	rlf	(__tdiv_to_l_@quot),f
	rlf	(__tdiv_to_l_@quot+1),f
	rlf	(__tdiv_to_l_@quot+2),f
	rlf	(__tdiv_to_l_@quot+3),f
	line	97
	decf	(__tdiv_to_l_@exp1),f
	line	98
	
l3551:	
	line	95
	movf	(__tdiv_to_l_@exp1),f
	skipz
	goto	u2111
	goto	u2110
u2111:
	goto	l6136
u2110:
	line	100
	
l6138:	
	movf	(__tdiv_to_l_@quot+3),w
	movwf	(?__tdiv_to_l_+3)
	movf	(__tdiv_to_l_@quot+2),w
	movwf	(?__tdiv_to_l_+2)
	movf	(__tdiv_to_l_@quot+1),w
	movwf	(?__tdiv_to_l_+1)
	movf	(__tdiv_to_l_@quot),w
	movwf	(?__tdiv_to_l_)

	line	101
	
l3540:	
	return
	opt stack 0
GLOBAL	__end_of__tdiv_to_l_
	__end_of__tdiv_to_l_:
;; =============== function __tdiv_to_l_ ends ============

	signat	__tdiv_to_l_,8316
	global	_isdigit
psect	text547,local,class=CODE,delta=2
global __ptext547
__ptext547:

;; *************** function _isdigit *****************
;; Defined at:
;;		line 13 in file "C:\Program Files (x86)\HI-TECH Software\PICC\9.83\sources\isdigit.c"
;; Parameters:    Size  Location     Type
;;  c               1    wreg     unsigned char 
;; Auto vars:     Size  Location     Type
;;  c               1    3[COMMON] unsigned char 
;; Return value:  Size  Location     Type
;;		None               void
;; Registers used:
;;		wreg, status,2, status,0
;; Tracked objects:
;;		On entry : 60/20
;;		On exit  : 60/20
;;		Unchanged: FFF9F/0
;; Data sizes:     COMMON   BANK0   BANK1   BANK3   BANK2
;;      Params:         0       0       0       0       0
;;      Locals:         2       0       0       0       0
;;      Temps:          0       0       0       0       0
;;      Totals:         2       0       0       0       0
;;Total ram usage:        2 bytes
;; Hardware stack levels used:    1
;; Hardware stack levels required when called:    1
;; This function calls:
;;		Nothing
;; This function is called by:
;;		_printf
;; This function uses a non-reentrant model
;;
psect	text547
	file	"C:\Program Files (x86)\HI-TECH Software\PICC\9.83\sources\isdigit.c"
	line	13
	global	__size_of_isdigit
	__size_of_isdigit	equ	__end_of_isdigit-_isdigit
	
_isdigit:	
	opt	stack 5
; Regs used in _isdigit: [wreg+status,2+status,0]
;isdigit@c stored from wreg
	movwf	(isdigit@c)
	line	14
	
l6082:	
	clrf	(_isdigit$3671)
	
l6084:	
	movlw	(03Ah)
	subwf	(isdigit@c),w
	skipnc
	goto	u2011
	goto	u2010
u2011:
	goto	l6090
u2010:
	
l6086:	
	movlw	(030h)
	subwf	(isdigit@c),w
	skipc
	goto	u2021
	goto	u2020
u2021:
	goto	l6090
u2020:
	
l6088:	
	clrf	(_isdigit$3671)
	incf	(_isdigit$3671),f
	
l6090:	
	rrf	(_isdigit$3671),w
	
	line	15
	
l3278:	
	return
	opt stack 0
GLOBAL	__end_of_isdigit
	__end_of_isdigit:
;; =============== function _isdigit ends ============

	signat	_isdigit,4216
	global	_isprint
psect	text548,local,class=CODE,delta=2
global __ptext548
__ptext548:

;; *************** function _isprint *****************
;; Defined at:
;;		line 13 in file "C:\Program Files (x86)\HI-TECH Software\PICC\9.83\sources\isprint.c"
;; Parameters:    Size  Location     Type
;;  c               1    wreg     unsigned char 
;; Auto vars:     Size  Location     Type
;;  c               1    3[COMMON] unsigned char 
;; Return value:  Size  Location     Type
;;		None               void
;; Registers used:
;;		wreg, status,2, status,0
;; Tracked objects:
;;		On entry : 0/20
;;		On exit  : 0/20
;;		Unchanged: FFFFF/0
;; Data sizes:     COMMON   BANK0   BANK1   BANK3   BANK2
;;      Params:         0       0       0       0       0
;;      Locals:         2       0       0       0       0
;;      Temps:          0       0       0       0       0
;;      Totals:         2       0       0       0       0
;;Total ram usage:        2 bytes
;; Hardware stack levels used:    1
;; Hardware stack levels required when called:    1
;; This function calls:
;;		Nothing
;; This function is called by:
;;		_lcd_putc
;; This function uses a non-reentrant model
;;
psect	text548
	file	"C:\Program Files (x86)\HI-TECH Software\PICC\9.83\sources\isprint.c"
	line	13
	global	__size_of_isprint
	__size_of_isprint	equ	__end_of_isprint-_isprint
	
_isprint:	
	opt	stack 3
; Regs used in _isprint: [wreg+status,2+status,0]
;isprint@c stored from wreg
	movwf	(isprint@c)
	line	14
	
l6070:	
	clrf	(_isprint$3674)
	
l6072:	
	movlw	(07Fh)
	subwf	(isprint@c),w
	skipnc
	goto	u1991
	goto	u1990
u1991:
	goto	l6078
u1990:
	
l6074:	
	movlw	(020h)
	subwf	(isprint@c),w
	skipc
	goto	u2001
	goto	u2000
u2001:
	goto	l6078
u2000:
	
l6076:	
	clrf	(_isprint$3674)
	incf	(_isprint$3674),f
	
l6078:	
	rrf	(_isprint$3674),w
	
	line	15
	
l3283:	
	return
	opt stack 0
GLOBAL	__end_of_isprint
	__end_of_isprint:
;; =============== function _isprint ends ============

	signat	_isprint,4216
	global	_ngat
psect	text549,local,class=CODE,delta=2
global __ptext549
__ptext549:

;; *************** function _ngat *****************
;; Defined at:
;;		line 54 in file "D:\TTVXL\Project TTVXL\BT02week14ttvxl\BT02week14ttvxl.c"
;; Parameters:    Size  Location     Type
;;		None
;; Auto vars:     Size  Location     Type
;;		None
;; Return value:  Size  Location     Type
;;		None               void
;; Registers used:
;;		wreg, status,2
;; Tracked objects:
;;		On entry : 0/0
;;		On exit  : 0/0
;;		Unchanged: FFF9F/0
;; Data sizes:     COMMON   BANK0   BANK1   BANK3   BANK2
;;      Params:         0       0       0       0       0
;;      Locals:         0       0       0       0       0
;;      Temps:          2       0       0       0       0
;;      Totals:         2       0       0       0       0
;;Total ram usage:        2 bytes
;; Hardware stack levels used:    1
;; This function calls:
;;		Nothing
;; This function is called by:
;;		Interrupt level 1
;; This function uses a non-reentrant model
;;
psect	text549
	file	"D:\TTVXL\Project TTVXL\BT02week14ttvxl\BT02week14ttvxl.c"
	line	54
	global	__size_of_ngat
	__size_of_ngat	equ	__end_of_ngat-_ngat
	
_ngat:	
	opt	stack 2
; Regs used in _ngat: [wreg+status,2]
psect	intentry,class=CODE,delta=2
global __pintentry
__pintentry:
global interrupt_function
interrupt_function:
	global saved_w
	saved_w	set	btemp+0
	movwf	saved_w
	swapf	status,w
	movwf	(??_ngat+0)
	movf	pclath,w
	movwf	(??_ngat+1)
	ljmp	_ngat
psect	text549
	line	55
	
i1l6058:	
;BT02week14ttvxl.c: 55: if(RBIF)
	btfss	(88/8),(88)&7
	goto	u197_21
	goto	u197_20
u197_21:
	goto	i1l6068
u197_20:
	line	57
	
i1l6060:	
;BT02week14ttvxl.c: 56: {
;BT02week14ttvxl.c: 57: if(RB1 == 1)
	bcf	status, 5	;RP0=0, select bank0
	bcf	status, 6	;RP1=0, select bank0
	btfss	(49/8),(49)&7
	goto	u198_21
	goto	u198_20
u198_21:
	goto	i1l1056
u198_20:
	line	58
	
i1l6062:	
;BT02week14ttvxl.c: 58: {TMR1ON = 1;}
	bsf	(128/8),(128)&7
	goto	i1l6068
	line	59
	
i1l1056:	
	line	60
;BT02week14ttvxl.c: 59: else
;BT02week14ttvxl.c: 60: {TMR1ON = 0;count = TMR1;TMR1= 0;}
	bcf	(128/8),(128)&7
	
i1l6064:	
	movf	(14+1),w	;volatile
	movwf	(_count+1)
	movf	(14),w	;volatile
	movwf	(_count)
	
i1l6066:	
	clrf	(14)	;volatile
	clrf	(14+1)	;volatile
	line	62
	
i1l6068:	
;BT02week14ttvxl.c: 61: }
;BT02week14ttvxl.c: 62: RBIF = 0;
	bcf	(88/8),(88)&7
	line	63
	
i1l1058:	
	movf	(??_ngat+1),w
	movwf	pclath
	swapf	(??_ngat+0)^0FFFFFF80h,w
	movwf	status
	swapf	saved_w,f
	swapf	saved_w,w
	retfie
	opt stack 0
GLOBAL	__end_of_ngat
	__end_of_ngat:
;; =============== function _ngat ends ============

	signat	_ngat,88
psect	text550,local,class=CODE,delta=2
global __ptext550
__ptext550:
	global	btemp
	btemp set 07Eh

	DABS	1,126,2	;btemp
	global	wtemp0
	wtemp0 set btemp
	end
