

HI-TECH Software PIC PRO Macro Assembler V9.83 build 10920 
                                                                                               Sat Dec 24 14:07:23 2022

HI-TECH Software Omniscient Code Generator (PRO mode) build 10920
     1                           	processor	16F887
     2                           	opt	pw 120
     3                           	opt	pm
     4                           	psect	config,global,class=CONFIG,delta=2
     5                           	psect	strings,global,class=STRING,delta=2
     6                           	psect	cinit,global,class=CODE,delta=2
     7                           	psect	bssBANK0,global,class=BANK0,space=1,delta=1
     8                           	psect	clrtext,global,class=CODE,delta=2
     9                           	psect	cstackCOMMON,global,class=COMMON,space=1,delta=1
    10                           	psect	cstackBANK0,global,class=BANK0,space=1,delta=1
    11                           	psect	maintext,global,class=CODE,delta=2
    12                           	psect	text405,local,class=CODE,delta=2
    13                           	psect	text408,local,class=CODE,delta=2
    14                           	psect	text413,local,class=CODE,delta=2
    15                           	psect	text421,local,class=CODE,delta=2
    16                           	psect	text422,local,class=CODE,delta=2
    17                           	psect	text423,local,class=CODE,delta=2
    18                           	psect	intentry,global,class=CODE,delta=2
    19                           	psect	functab,global,reloc=256,class=CODE,delta=2
    20                           	psect	pa_nodes,global,class=CODE,delta=2
    21                           	dabs	1,0x7E,2
    22  000A                     	;#
    23                           
    24                           	psect	config
    25  2007  E3C2               	dw	58306	;#
    26                           
    27                           	psect	strings
    28  0015                     __pstrings:	
    29  0015                     stringtab:	
    30                           ;	global	stringdir,stringtab,__stringbase
    31                           
    32  0015                     stringcode:	
    33                           ;	String table - string pointers are 1 byte each
    34                           
    35  0015                     stringdir:	
    36  0015  3000               	movlw	high stringdir
    37  0016  008A               	movwf	10
    38  0017  0804               	movf	4,w
    39  0018  0A84               	incf	4,f
    40  0019  0782               	addwf	2,f
    41  001A                     __stringbase:	
    42  001A  3400               	retlw	0
    43  001B                     _dpowers:	
    44  001B  3401               	retlw	1
    45  001C  3400               	retlw	0
    46  001D  340A               	retlw	10
    47  001E  3400               	retlw	0
    48  001F  3464               	retlw	100
    49  0020  3400               	retlw	0
    50  0021  34E8               	retlw	232
    51  0022  3403               	retlw	3
    52  0023  3410               	retlw	16
    53  0024  3427               	retlw	39
    54  000F                     _TMR1H	set	15
    55  000E                     _TMR1L	set	14
    56  0019                     _TXREG	set	25
    57  00FE                     _ADCS0	set	254
    58  00FF                     _ADCS1	set	255
    59  00F8                     _ADON	set	248
    60  00FA                     _CHS0	set	250
    61  00FB                     _CHS1	set	251
    62  00FC                     _CHS2	set	252
    63  00FD                     _CHS3	set	253
    64  00C4                     _CREN	set	196
    65  005F                     _GIE	set	95
    66  005E                     _PEIE	set	94
    67  005B                     _RBIE	set	91
    68  0058                     _RBIF	set	88
    69  0065                     _RCIF	set	101
    70  0041                     _RD1	set	65
    71  0042                     _RD2	set	66
    72  0043                     _RD3	set	67
    73  0044                     _RD4	set	68
    74  0045                     _RD5	set	69
    75  0046                     _RD6	set	70
    76  0047                     _RD7	set	71
    77  00C6                     _RX9	set	198
    78  00C7                     _SPEN	set	199
    79  0084                     _T1CKPS0	set	132
    80  0085                     _T1CKPS1	set	133
    81  0082                     _T1SYNC	set	130
    82  0081                     _TMR1CS	set	129
    83  0086                     _TMR1GE	set	134
    84  0060                     _TMR1IF	set	96
    85  0080                     _TMR1ON	set	128
    86  0064                     _TXIF	set	100
    87  0099                     _SPBRG	set	153
    88  009A                     _SPBRGH	set	154
    89  0088                     _TRISD	set	136
    90  0095                     _WPUB	set	149
    91  04FF                     _ADFM	set	1279
    92  04C2                     _BRGH	set	1218
    93  0465                     _RCIE	set	1125
    94  04C4                     _SYNC	set	1220
    95  0460                     _TMR1IE	set	1120
    96  0428                     _TRISA0	set	1064
    97  042C                     _TRISA4	set	1068
    98  0430                     _TRISB0	set	1072
    99  0441                     _TRISD1	set	1089
   100  0442                     _TRISD2	set	1090
   101  0443                     _TRISD3	set	1091
   102  0444                     _TRISD4	set	1092
   103  0445                     _TRISD5	set	1093
   104  0446                     _TRISD6	set	1094
   105  0447                     _TRISD7	set	1095
   106  0448                     _TRISE0	set	1096
   107  04C6                     _TX9	set	1222
   108  04C5                     _TXEN	set	1221
   109  04FC                     _VCFG0	set	1276
   110  04FD                     _VCFG1	set	1277
   111  040F                     _nRBPU	set	1039
   112  0188                     _ANSEL	set	392
   113  0189                     _ANSELH	set	393
   114  0C40                     _ANS0	set	3136
   115  0C3B                     _BRG16	set	3131
   116  0025                     STR_4:	
   117  0025  344E               	retlw	78	;'N'
   118  0026  3467               	retlw	103	;'g'
   119  0027  3475               	retlw	117	;'u'
   120  0028  3479               	retlw	121	;'y'
   121  0029  3465               	retlw	101	;'e'
   122  002A  346E               	retlw	110	;'n'
   123  002B  3420               	retlw	32	;' '
   124  002C  3450               	retlw	80	;'P'
   125  002D  3468               	retlw	104	;'h'
   126  002E  3475               	retlw	117	;'u'
   127  002F  3463               	retlw	99	;'c'
   128  0030  3420               	retlw	32	;' '
   129  0031  3444               	retlw	68	;'D'
   130  0032  3475               	retlw	117	;'u'
   131  0033  346E               	retlw	110	;'n'
   132  0034  3467               	retlw	103	;'g'
   133  0035  3400               	retlw	0
   134  0036                     STR_6:	
   135  0036  3470               	retlw	112	;'p'
   136  0037  3468               	retlw	104	;'h'
   137  0038  3475               	retlw	117	;'u'
   138  0039  3474               	retlw	116	;'t'
   139  003A  343A               	retlw	58	;':'
   140  003B  3425               	retlw	37	;'%'
   141  003C  3430               	retlw	48	;'0'
   142  003D  3432               	retlw	50	;'2'
   143  003E  3464               	retlw	100	;'d'
   144  003F  3400               	retlw	0
   145  0040                     STR_5:	
   146  0040  3467               	retlw	103	;'g'
   147  0041  3469               	retlw	105	;'i'
   148  0042  346F               	retlw	111	;'o'
   149  0043  343A               	retlw	58	;':'
   150  0044  3425               	retlw	37	;'%'
   151  0045  3430               	retlw	48	;'0'
   152  0046  3432               	retlw	50	;'2'
   153  0047  3464               	retlw	100	;'d'
   154  0048  3400               	retlw	0
   155  0049                     STR_2:	
   156  0049  343A               	retlw	58	;':'
   157  004A  3425               	retlw	37	;'%'
   158  004B  3430               	retlw	48	;'0'
   159  004C  3432               	retlw	50	;'2'
   160  004D  3464               	retlw	100	;'d'
   161  004E  346D               	retlw	109	;'m'
   162  004F  3400               	retlw	0
   163  0050                     STR_3:	
   164  0050  343A               	retlw	58	;':'
   165  0051  3425               	retlw	37	;'%'
   166  0052  3430               	retlw	48	;'0'
   167  0053  3432               	retlw	50	;'2'
   168  0054  3464               	retlw	100	;'d'
   169  0055  3473               	retlw	115	;'s'
   170  0056  3400               	retlw	0
   171  0057                     STR_1:	
   172  0057  3425               	retlw	37	;'%'
   173  0058  3430               	retlw	48	;'0'
   174  0059  3432               	retlw	50	;'2'
   175  005A  3464               	retlw	100	;'d'
   176  005B  3468               	retlw	104	;'h'
   177  005C  3400               	retlw	0
   178                           
   179                           	psect	cinit
   180  07F4                     start_initialization:	
   181  07F4  304E               	movlw	low __pbssBANK0
   182                           
   183                           ; Clear objects allocated to BANK0
   184  07F5  1383               	bcf	3,7	;select IRP bank0
   185  07F6  0084               	movwf	4
   186  07F7  3063               	movlw	low (__pbssBANK0+21)
   187  07F8  120A  118A  205D   	fcall	clear_ram
   188  07FB                     end_of_initialization:	
   189                           ;End of C runtime variable initialization code
   190                           
   191  07FB  0183               	clrf	3
   192  07FC  120A  118A  2EB0   	ljmp	_main	;jump to C main() function
   193                           
   194                           	psect	bssBANK0
   195  004E                     __pbssBANK0:	
   196  004E                     _dem:	
   197  004E                     	ds	3
   198  0051                     _h:	
   199  0051                     	ds	2
   200  0053                     _m:	
   201  0053                     	ds	2
   202  0055                     _ms:	
   203  0055                     	ds	2
   204  0057                     _s:	
   205  0057                     	ds	2
   206  0059                     _data_rx:	
   207  0059                     	ds	10
   208                           
   209                           	psect	clrtext
   210  005D                     clear_ram:	
   211                           ;	Called with FSR containing the base address, and
   212                           ;	W with the last address+1
   213                           
   214  005D  0064               	clrwdt	;clear the watchdog before getting into this loop
   215  005E                     clrloop:	
   216  005E  0180               	clrf	0	;clear RAM location pointed to by FSR
   217  005F  0A84               	incf	4,f	;increment pointer
   218  0060  0604               	xorwf	4,w	;XOR with final address
   219  0061  1903               	btfsc	3,2	;have we reached the end yet?
   220  0062  3400               	retlw	0	;all done for this memory range, return
   221  0063  0604               	xorwf	4,w	;XOR again to restore value
   222  0064  285E               	goto	clrloop	;do the next byte
   223                           
   224                           	psect	cstackCOMMON
   225  0070                     __pcstackCOMMON:	
   226  0070                     ?_lcd_init:	
   227  0070                     ?_tx:	
   228                           ; 0 bytes @ 0x0
   229                           
   230  0070                     ?_rx:	
   231                           ; 0 bytes @ 0x0
   232                           
   233  0070                     ?_send_string:	
   234                           ; 0 bytes @ 0x0
   235                           
   236  0070                     ?_lcd_putc:	
   237                           ; 0 bytes @ 0x0
   238                           
   239  0070                     ?_isprint:	
   240                           ; 0 bytes @ 0x0
   241                           
   242  0070                     ?_isdigit:	
   243                           ; 1 bit 
   244                           
   245  0070                     ?_lcd_counter:	
   246                           ; 1 bit 
   247                           
   248  0070                     ?_main:	
   249                           ; 0 bytes @ 0x0
   250                           
   251  0070                     ?_ngat:	
   252                           ; 0 bytes @ 0x0
   253                           
   254  0070                     ?_send_char:	
   255                           ; 0 bytes @ 0x0
   256                           
   257  0070                     ?_lcd_busy:	
   258                           ; 0 bytes @ 0x0
   259                           
   260  0070                     ?___ftpack:	
   261                           ; 1 bytes @ 0x0
   262                           
   263  0070                     ___ftpack@arg:	
   264                           ; 3 bytes @ 0x0
   265                           
   266                           
   267                           ; 3 bytes @ 0x0
   268  0070                     	ds	3
   269  0073                     ___ftpack@exp:	
   270                           
   271                           ; 1 bytes @ 0x3
   272  0073                     	ds	1
   273  0074                     ___ftpack@sign:	
   274                           
   275                           ; 1 bytes @ 0x4
   276  0074                     	ds	1
   277  0075                     ??___ftpack:	
   278                           
   279                           ; 0 bytes @ 0x5
   280  0075                     	ds	3
   281  0078                     ?___ftadd:	
   282  0078                     ___ftadd@f1:	
   283                           ; 3 bytes @ 0x8
   284                           
   285                           
   286                           ; 3 bytes @ 0x8
   287  0078                     	ds	3
   288  007B                     ___ftadd@f2:	
   289                           
   290                           ; 3 bytes @ 0xB
   291  007B                     	ds	3
   292                           
   293                           	psect	cstackBANK0
   294  0020                     __pcstackBANK0:	
   295  0020                     ??___ftadd:	
   296                           
   297                           ; 0 bytes @ 0x0
   298  0020                     	ds	3
   299  0023                     ___ftadd@sign:	
   300                           
   301                           ; 1 bytes @ 0x3
   302  0023                     	ds	1
   303  0024                     ___ftadd@exp2:	
   304                           
   305                           ; 1 bytes @ 0x4
   306  0024                     	ds	1
   307  0025                     ___ftadd@exp1:	
   308                           
   309                           ; 1 bytes @ 0x5
   310  0025                     	ds	1
   311  0026                     ??_ngat:	
   312                           
   313                           ; 0 bytes @ 0x6
   314  0026                     	ds	4
   315  002A                     ?_lcd_put_byte:	
   316  002A                     ??_tx:	
   317                           ; 0 bytes @ 0xA
   318                           
   319  002A                     ??_rx:	
   320                           ; 0 bytes @ 0xA
   321                           
   322  002A                     ??_lcd_busy:	
   323                           ; 0 bytes @ 0xA
   324                           
   325  002A                     ??_isprint:	
   326                           ; 0 bytes @ 0xA
   327                           
   328  002A                     ??_isdigit:	
   329                           ; 0 bytes @ 0xA
   330                           
   331  002A                     ??_send_char:	
   332                           ; 0 bytes @ 0xA
   333                           
   334  002A                     ?___wmul:	
   335                           ; 0 bytes @ 0xA
   336                           
   337  002A                     ?___lwdiv:	
   338                           ; 2 bytes @ 0xA
   339                           
   340  002A                     send_char@data:	
   341                           ; 2 bytes @ 0xA
   342                           
   343  002A                     lcd_put_byte@b:	
   344                           ; 1 bytes @ 0xA
   345                           
   346  002A                     _isdigit$3700:	
   347                           ; 1 bytes @ 0xA
   348                           
   349  002A                     _isprint$3703:	
   350                           ; 1 bytes @ 0xA
   351                           
   352  002A                     ___wmul@multiplier:	
   353                           ; 1 bytes @ 0xA
   354                           
   355  002A                     ___lwdiv@divisor:	
   356                           ; 2 bytes @ 0xA
   357                           
   358                           
   359                           ; 2 bytes @ 0xA
   360  002A                     	ds	1
   361  002B                     ??_lcd_put_byte:	
   362  002B                     ??_send_string:	
   363                           ; 0 bytes @ 0xB
   364                           
   365  002B                     send_string@s:	
   366                           ; 0 bytes @ 0xB
   367                           
   368  002B                     lcd_busy@busy:	
   369                           ; 1 bytes @ 0xB
   370                           
   371  002B                     isdigit@c:	
   372                           ; 1 bytes @ 0xB
   373                           
   374  002B                     isprint@c:	
   375                           ; 1 bytes @ 0xB
   376                           
   377                           
   378                           ; 1 bytes @ 0xB
   379  002B                     	ds	1
   380  002C                     ___wmul@multiplicand:	
   381  002C                     ___lwdiv@dividend:	
   382                           ; 2 bytes @ 0xC
   383                           
   384                           
   385                           ; 2 bytes @ 0xC
   386  002C                     	ds	1
   387  002D                     lcd_put_byte@rs:	
   388                           
   389                           ; 1 bytes @ 0xD
   390  002D                     	ds	1
   391  002E                     ??___wmul:	
   392  002E                     ??___lwdiv:	
   393                           ; 0 bytes @ 0xE
   394                           
   395  002E                     lcd_put_byte@temp:	
   396                           ; 0 bytes @ 0xE
   397                           
   398  002E                     ___wmul@product:	
   399                           ; 1 bytes @ 0xE
   400                           
   401  002E                     ___lwdiv@quotient:	
   402                           ; 2 bytes @ 0xE
   403                           
   404                           
   405                           ; 2 bytes @ 0xE
   406  002E                     	ds	1
   407  002F                     ?_lcd_gotoxy:	
   408  002F                     ??_lcd_init:	
   409                           ; 0 bytes @ 0xF
   410                           
   411  002F                     lcd_gotoxy@row:	
   412                           ; 0 bytes @ 0xF
   413                           
   414                           
   415                           ; 1 bytes @ 0xF
   416  002F                     	ds	1
   417  0030                     ??_lcd_gotoxy:	
   418  0030                     lcd_gotoxy@col:	
   419                           ; 0 bytes @ 0x10
   420                           
   421  0030                     ___lwdiv@counter:	
   422                           ; 1 bytes @ 0x10
   423                           
   424                           
   425                           ; 1 bytes @ 0x10
   426  0030                     	ds	1
   427  0031                     ?___lwmod:	
   428  0031                     lcd_gotoxy@address:	
   429                           ; 2 bytes @ 0x11
   430                           
   431  0031                     ___lwmod@divisor:	
   432                           ; 1 bytes @ 0x11
   433                           
   434                           
   435                           ; 2 bytes @ 0x11
   436  0031                     	ds	1
   437  0032                     ??_lcd_putc:	
   438  0032                     lcd_putc@c:	
   439                           ; 0 bytes @ 0x12
   440                           
   441                           
   442                           ; 1 bytes @ 0x12
   443  0032                     	ds	1
   444  0033                     ?_putch:	
   445  0033                     putch@c:	
   446                           ; 0 bytes @ 0x13
   447                           
   448  0033                     ___lwmod@dividend:	
   449                           ; 1 bytes @ 0x13
   450                           
   451                           
   452                           ; 2 bytes @ 0x13
   453  0033                     	ds	1
   454  0034                     ??_putch:	
   455                           
   456                           ; 0 bytes @ 0x14
   457  0034                     	ds	1
   458  0035                     ??___lwmod:	
   459  0035                     ___lwmod@counter:	
   460                           ; 0 bytes @ 0x15
   461                           
   462                           
   463                           ; 1 bytes @ 0x15
   464  0035                     	ds	1
   465  0036                     ?__doprnt:	
   466  0036                     __doprnt@f:	
   467                           ; 2 bytes @ 0x16
   468                           
   469                           
   470                           ; 1 bytes @ 0x16
   471  0036                     	ds	1
   472  0037                     __doprnt@ap:	
   473                           
   474                           ; 1 bytes @ 0x17
   475  0037                     	ds	1
   476  0038                     ??__doprnt:	
   477                           
   478                           ; 0 bytes @ 0x18
   479  0038                     	ds	3
   480  003B                     __doprnt@prec:	
   481                           
   482                           ; 1 bytes @ 0x1B
   483  003B                     	ds	1
   484  003C                     __doprnt@_val:	
   485                           
   486                           ; 4 bytes @ 0x1C
   487  003C                     	ds	4
   488  0040                     __doprnt@flag:	
   489                           
   490                           ; 1 bytes @ 0x20
   491  0040                     	ds	1
   492  0041                     __doprnt@width:	
   493                           
   494                           ; 2 bytes @ 0x21
   495  0041                     	ds	2
   496  0043                     __doprnt@c:	
   497                           
   498                           ; 1 bytes @ 0x23
   499  0043                     	ds	1
   500  0044                     __doprnt@pb:	
   501                           
   502                           ; 1 bytes @ 0x24
   503  0044                     	ds	1
   504  0045                     ?_printf:	
   505  0045                     ?_sprintf:	
   506                           ; 2 bytes @ 0x25
   507                           
   508  0045                     sprintf@f:	
   509                           ; 2 bytes @ 0x25
   510                           
   511                           
   512                           ; 1 bytes @ 0x25
   513  0045                     	ds	2
   514  0047                     ??_printf:	
   515  0047                     printf@f:	
   516                           ; 0 bytes @ 0x27
   517                           
   518                           
   519                           ; 1 bytes @ 0x27
   520  0047                     	ds	1
   521  0048                     ??_sprintf:	
   522  0048                     printf@ap:	
   523                           ; 0 bytes @ 0x28
   524                           
   525  0048                     sprintf@wh:	
   526                           ; 1 bytes @ 0x28
   527                           
   528                           
   529                           ; 1 bytes @ 0x28
   530  0048                     	ds	1
   531  0049                     sprintf@ap:	
   532  0049                     printf@pb:	
   533                           ; 1 bytes @ 0x29
   534                           
   535                           
   536                           ; 2 bytes @ 0x29
   537  0049                     	ds	1
   538  004A                     sprintf@pb:	
   539                           
   540                           ; 2 bytes @ 0x2A
   541  004A                     	ds	1
   542  004B                     ??_lcd_counter:	
   543                           
   544                           ; 0 bytes @ 0x2B
   545  004B                     	ds	1
   546  004C                     ??_main:	
   547                           
   548                           ; 0 bytes @ 0x2C
   549  004C                     	ds	2
   550                           
   551                           	psect	maintext
   552  06B0                     __pmaintext:	
   553 ;;Data sizes: Strings 56, constant 10, data 0, bss 21, persistent 0 stack 0
   554 ;;Auto spaces:   Size  Autos    Used
   555 ;; COMMON          14     14      14
   556 ;; BANK0           80     46      67
   557 ;; BANK1           80      0       0
   558 ;; BANK3           96      0       0
   559 ;; BANK2           96      0       0
   560 ;;
   561 ;; Pointer list with targets:
   562 ;; ?___ftpack	float  size(1) Largest target is 0
   563 ;;
   564 ;; ?___lwdiv	unsigned int  size(1) Largest target is 0
   565 ;;
   566 ;; ?___lwmod	unsigned int  size(1) Largest target is 2
   567 ;;		 -> ?_sprintf(BANK0[2]), ?_printf(BANK0[2]), 
   568 ;;
   569 ;; ?___wmul	unsigned int  size(1) Largest target is 0
   570 ;;
   571 ;; ?___ftadd	float  size(1) Largest target is 0
   572 ;;
   573 ;; sprintf@f	PTR const unsigned char  size(1) Largest target is 10
   574 ;;		 -> STR_6(CODE[10]), STR_5(CODE[9]), 
   575 ;;
   576 ;; ?_sprintf	int  size(1) Largest target is 10
   577 ;;		 -> NULL(NULL[0]), data_rx(BANK0[10]), 
   578 ;;
   579 ;; sprintf@ap	PTR void [1] size(1) Largest target is 2
   580 ;;		 -> ?_sprintf(BANK0[2]), ?_printf(BANK0[2]), 
   581 ;;
   582 ;; sprintf@wh	PTR unsigned char  size(1) Largest target is 10
   583 ;;		 -> data_rx(BANK0[10]), 
   584 ;;
   585 ;; pb.func	PTR FTN(unsigned char ,)void  size(1) Largest target is 0
   586 ;;		 -> Absolute function(), putch(), 
   587 ;;
   588 ;; pb.ptr	PTR unsigned char  size(1) Largest target is 10
   589 ;;		 -> NULL(NULL[0]), data_rx(BANK0[10]), 
   590 ;;
   591 ;; printf@f	PTR const unsigned char  size(1) Largest target is 17
   592 ;;		 -> STR_4(CODE[17]), STR_3(CODE[7]), STR_2(CODE[7]), STR_1(CODE[6]), 
   593 ;;
   594 ;; ?_printf	int  size(1) Largest target is 0
   595 ;;
   596 ;; printf@ap	PTR void [1] size(1) Largest target is 2
   597 ;;		 -> ?_sprintf(BANK0[2]), ?_printf(BANK0[2]), 
   598 ;;
   599 ;; pb.func	PTR FTN(unsigned char ,)void  size(1) Largest target is 0
   600 ;;		 -> Absolute function(), putch(), 
   601 ;;
   602 ;; pb.ptr	PTR unsigned char  size(1) Largest target is 10
   603 ;;		 -> NULL(NULL[0]), data_rx(BANK0[10]), 
   604 ;;
   605 ;; _doprnt@ap	PTR PTR void  size(1) Largest target is 2
   606 ;;		 -> sprintf@ap(BANK0[1]), printf@ap(BANK0[1]), 
   607 ;;
   608 ;; _doprnt@f	PTR const unsigned char  size(1) Largest target is 17
   609 ;;		 -> STR_6(CODE[10]), STR_5(CODE[9]), STR_4(CODE[17]), STR_3(CODE[7]), 
   610 ;;		 -> STR_2(CODE[7]), STR_1(CODE[6]), 
   611 ;;
   612 ;; S3150__prbuf$func	PTR FTN(unsigned char ,)void  size(1) Largest target is 0
   613 ;;		 -> Absolute function(), putch(), 
   614 ;;
   615 ;; _doprnt@pb.func	PTR FTN(unsigned char ,)void  size(1) Largest target is 0
   616 ;;		 -> Absolute function(), putch(), 
   617 ;;
   618 ;; S3150__prbuf$ptr	PTR unsigned char  size(1) Largest target is 10
   619 ;;		 -> NULL(NULL[0]), data_rx(BANK0[10]), 
   620 ;;
   621 ;; _doprnt@pb.ptr	PTR unsigned char  size(1) Largest target is 10
   622 ;;		 -> NULL(NULL[0]), data_rx(BANK0[10]), 
   623 ;;
   624 ;; _doprnt@pb	PTR struct __prbuf size(1) Largest target is 3
   625 ;;		 -> sprintf@pb(BANK0[2]), printf@pb(BANK0[2]), 
   626 ;;
   627 ;; S3175$_cp	PTR const unsigned char  size(1) Largest target is 0
   628 ;;
   629 ;; _val._str._cp	PTR const unsigned char  size(1) Largest target is 0
   630 ;;
   631 ;; send_string@s	PTR const unsigned char  size(1) Largest target is 10
   632 ;;		 -> data_rx(BANK0[10]), 
   633 ;;
   634 ;;
   635 ;; Critical Paths under _main in COMMON
   636 ;;
   637 ;;   None.
   638 ;;
   639 ;; Critical Paths under _ngat in COMMON
   640 ;;
   641 ;;   _ngat->___ftadd
   642 ;;   ___ftadd->___ftpack
   643 ;;
   644 ;; Critical Paths under _main in BANK0
   645 ;;
   646 ;;   _main->_sprintf
   647 ;;   _lcd_counter->_printf
   648 ;;   _sprintf->__doprnt
   649 ;;   _printf->__doprnt
   650 ;;   __doprnt->___lwmod
   651 ;;   _putch->_lcd_putc
   652 ;;   _lcd_putc->_lcd_gotoxy
   653 ;;   _lcd_init->_lcd_put_byte
   654 ;;   _lcd_gotoxy->_lcd_put_byte
   655 ;;   _send_string->_send_char
   656 ;;   ___lwmod->___lwdiv
   657 ;;
   658 ;; Critical Paths under _ngat in BANK0
   659 ;;
   660 ;;   _ngat->___ftadd
   661 ;;
   662 ;; Critical Paths under _main in BANK1
   663 ;;
   664 ;;   None.
   665 ;;
   666 ;; Critical Paths under _ngat in BANK1
   667 ;;
   668 ;;   None.
   669 ;;
   670 ;; Critical Paths under _main in BANK3
   671 ;;
   672 ;;   None.
   673 ;;
   674 ;; Critical Paths under _ngat in BANK3
   675 ;;
   676 ;;   None.
   677 ;;
   678 ;; Critical Paths under _main in BANK2
   679 ;;
   680 ;;   None.
   681 ;;
   682 ;; Critical Paths under _ngat in BANK2
   683 ;;
   684 ;;   None.
   685 ;;
   686 ;;Main: autosize = 0, tempsize = 2, incstack = 0, save=0
   687 ;;
   688 ;;
   689 ;;Call Graph Tables:
   690 ;;
   691 ;; ---------------------------------------------------------------------------------
   692 ;; (Depth) Function   	        Calls       Base Space   Used Autos Params    Refs
   693 ;; ---------------------------------------------------------------------------------
   694 ;; (0) _main                                                12    12      0    9340
   695 ;;                                             44 BANK0      2     2      0
   696 ;;                           _lcd_init
   697 ;;                                 _tx
   698 ;;                                 _rx
   699 ;;                         _lcd_gotoxy
   700 ;;                             _printf
   701 ;;                        _lcd_counter
   702 ;;                            _sprintf
   703 ;;                        _send_string
   704 ;;                       _lcd_put_byte
   705 ;; ---------------------------------------------------------------------------------
   706 ;; (1) _lcd_counter                                          0     0      0    3169
   707 ;;                         _lcd_gotoxy
   708 ;;                             _printf
   709 ;;                       _lcd_put_byte
   710 ;; ---------------------------------------------------------------------------------
   711 ;; (1) _sprintf                                              7     4      3    2691
   712 ;;                                             37 BANK0      7     4      3
   713 ;;                            __doprnt
   714 ;; ---------------------------------------------------------------------------------
   715 ;; (2) _printf                                               6     4      2    2635
   716 ;;                                             37 BANK0      6     4      2
   717 ;;                            __doprnt
   718 ;; ---------------------------------------------------------------------------------
   719 ;; (2) __doprnt                                             15    13      2    2511
   720 ;;                                             22 BANK0     15    13      2
   721 ;;                   Absolute function
   722 ;;                              _putch
   723 ;;                            _isdigit
   724 ;;                             ___wmul
   725 ;;                            ___lwdiv
   726 ;;                            ___lwmod
   727 ;; ---------------------------------------------------------------------------------
   728 ;; (3) _putch                                                1     0      1     713
   729 ;;                                             19 BANK0      1     0      1
   730 ;;                           _lcd_putc
   731 ;; ---------------------------------------------------------------------------------
   732 ;; (4) _lcd_putc                                             1     1      0     691
   733 ;;                                             18 BANK0      1     1      0
   734 ;;                       _lcd_put_byte
   735 ;;                           _lcd_busy
   736 ;;                         _lcd_gotoxy
   737 ;;                            _isprint
   738 ;; ---------------------------------------------------------------------------------
   739 ;; (1) _lcd_init                                             4     4      0     244
   740 ;;                                             15 BANK0      3     3      0
   741 ;;                       _lcd_put_byte
   742 ;;                           _lcd_busy
   743 ;; ---------------------------------------------------------------------------------
   744 ;; (5) _lcd_gotoxy                                           3     2      1     313
   745 ;;                                             15 BANK0      3     2      1
   746 ;;                       _lcd_put_byte
   747 ;;                           _lcd_busy
   748 ;; ---------------------------------------------------------------------------------
   749 ;; (6) _lcd_busy                                             2     2      0      23
   750 ;;                                             10 BANK0      2     2      0
   751 ;; ---------------------------------------------------------------------------------
   752 ;; (1) _send_string                                          1     1      0      67
   753 ;;                                             11 BANK0      1     1      0
   754 ;;                          _send_char
   755 ;; ---------------------------------------------------------------------------------
   756 ;; (1) _lcd_put_byte                                         5     4      1     221
   757 ;;                                             10 BANK0      5     4      1
   758 ;; ---------------------------------------------------------------------------------
   759 ;; (3) ___lwmod                                              5     1      4     159
   760 ;;                                             17 BANK0      5     1      4
   761 ;;                            ___lwdiv (ARG)
   762 ;; ---------------------------------------------------------------------------------
   763 ;; (3) ___lwdiv                                              7     3      4     162
   764 ;;                                             10 BANK0      7     3      4
   765 ;; ---------------------------------------------------------------------------------
   766 ;; (3) ___wmul                                               6     2      4      92
   767 ;;                                             10 BANK0      6     2      4
   768 ;; ---------------------------------------------------------------------------------
   769 ;; (3) _isdigit                                              2     2      0      68
   770 ;;                                             10 BANK0      2     2      0
   771 ;; ---------------------------------------------------------------------------------
   772 ;; (3) Absolute function(Fake)                               1     0      1       0
   773 ;;                                             10 BANK0      1     0      1
   774 ;; ---------------------------------------------------------------------------------
   775 ;; (5) _isprint                                              2     2      0      68
   776 ;;                                             10 BANK0      2     2      0
   777 ;; ---------------------------------------------------------------------------------
   778 ;; (2) _send_char                                            1     1      0      22
   779 ;;                                             10 BANK0      1     1      0
   780 ;; ---------------------------------------------------------------------------------
   781 ;; (1) _rx                                                   0     0      0       0
   782 ;; ---------------------------------------------------------------------------------
   783 ;; (1) _tx                                                   0     0      0       0
   784 ;; ---------------------------------------------------------------------------------
   785 ;; Estimated maximum stack depth 6
   786 ;; ---------------------------------------------------------------------------------
   787 ;; (Depth) Function   	        Calls       Base Space   Used Autos Params    Refs
   788 ;; ---------------------------------------------------------------------------------
   789 ;; (8) _ngat                                                 4     4      0    1049
   790 ;;                                              6 BANK0      4     4      0
   791 ;;                            ___ftadd
   792 ;; ---------------------------------------------------------------------------------
   793 ;; (9) ___ftadd                                             12     6      6    1049
   794 ;;                                              8 COMMON     6     0      6
   795 ;;                                              0 BANK0      6     6      0
   796 ;;                           ___ftpack
   797 ;; ---------------------------------------------------------------------------------
   798 ;; (10) ___ftpack                                            8     3      5     209
   799 ;;                                              0 COMMON     8     3      5
   800 ;; ---------------------------------------------------------------------------------
   801 ;; Estimated maximum stack depth 10
   802 ;; ---------------------------------------------------------------------------------
   803 ;; Call Graph Graphs:
   804 ;; _main (ROOT)
   805 ;;   _lcd_init
   806 ;;     _lcd_put_byte
   807 ;;     _lcd_busy
   808 ;;   _tx
   809 ;;   _rx
   810 ;;   _lcd_gotoxy
   811 ;;     _lcd_put_byte
   812 ;;     _lcd_busy
   813 ;;   _printf
   814 ;;     __doprnt
   815 ;;       Absolute function(Fake)
   816 ;;       _putch
   817 ;;         _lcd_putc
   818 ;;           _lcd_put_byte
   819 ;;           _lcd_busy
   820 ;;           _lcd_gotoxy
   821 ;;             _lcd_put_byte
   822 ;;             _lcd_busy
   823 ;;           _isprint
   824 ;;       _isdigit
   825 ;;       ___wmul
   826 ;;       ___lwdiv
   827 ;;       ___lwmod
   828 ;;         ___lwdiv (ARG)
   829 ;;   _lcd_counter
   830 ;;     _lcd_gotoxy
   831 ;;       _lcd_put_byte
   832 ;;       _lcd_busy
   833 ;;     _printf
   834 ;;       __doprnt
   835 ;;         Absolute function(Fake)
   836 ;;         _putch
   837 ;;           _lcd_putc
   838 ;;             _lcd_put_byte
   839 ;;             _lcd_busy
   840 ;;             _lcd_gotoxy
   841 ;;               _lcd_put_byte
   842 ;;               _lcd_busy
   843 ;;             _isprint
   844 ;;         _isdigit
   845 ;;         ___wmul
   846 ;;         ___lwdiv
   847 ;;         ___lwmod
   848 ;;           ___lwdiv (ARG)
   849 ;;     _lcd_put_byte
   850 ;;   _sprintf
   851 ;;     __doprnt
   852 ;;       Absolute function(Fake)
   853 ;;       _putch
   854 ;;         _lcd_putc
   855 ;;           _lcd_put_byte
   856 ;;           _lcd_busy
   857 ;;           _lcd_gotoxy
   858 ;;             _lcd_put_byte
   859 ;;             _lcd_busy
   860 ;;           _isprint
   861 ;;       _isdigit
   862 ;;       ___wmul
   863 ;;       ___lwdiv
   864 ;;       ___lwmod
   865 ;;         ___lwdiv (ARG)
   866 ;;   _send_string
   867 ;;     _send_char
   868 ;;   _lcd_put_byte
   869 ;;
   870 ;; _ngat (ROOT)
   871 ;;   ___ftadd
   872 ;;     ___ftpack
   873 ;;
   874 ;; Address spaces:
   875 ;;Name               Size   Autos  Total    Cost      Usage
   876 ;;BITCOMMON            E      0       0       0        0.0%
   877 ;;EEDATA             100      0       0       0        0.0%
   878 ;;NULL                 0      0       0       0        0.0%
   879 ;;CODE                 0      0       0       0        0.0%
   880 ;;COMMON               E      E       E       1      100.0%
   881 ;;BITSFR0              0      0       0       1        0.0%
   882 ;;SFR0                 0      0       0       1        0.0%
   883 ;;BITSFR1              0      0       0       2        0.0%
   884 ;;SFR1                 0      0       0       2        0.0%
   885 ;;STACK                0      0       D       2        0.0%
   886 ;;ABS                  0      0      51       3        0.0%
   887 ;;BITBANK0            50      0       0       4        0.0%
   888 ;;BITSFR3              0      0       0       4        0.0%
   889 ;;SFR3                 0      0       0       4        0.0%
   890 ;;BANK0               50     2E      43       5       83.8%
   891 ;;BITSFR2              0      0       0       5        0.0%
   892 ;;SFR2                 0      0       0       5        0.0%
   893 ;;BITBANK1            50      0       0       6        0.0%
   894 ;;BANK1               50      0       0       7        0.0%
   895 ;;BITBANK3            60      0       0       8        0.0%
   896 ;;BANK3               60      0       0       9        0.0%
   897 ;;BITBANK2            60      0       0      10        0.0%
   898 ;;BANK2               60      0       0      11        0.0%
   899 ;;DATA                 0      0      5E      12        0.0%
   900                           
   901                           
   902 ;; *************** function _main *****************
   903 ;; Defined at:
   904 ;;		line 36 in file "D:\TTVXL\Project TTVXL\BT Ôn Thi 05\BT Ôn Thi 05.c"
   905 ;; Parameters:    Size  Location     Type
   906 ;;		None
   907 ;; Auto vars:     Size  Location     Type
   908 ;;  data_tx        10    0        unsigned char [10]
   909 ;; Return value:  Size  Location     Type
   910 ;;		None               void
   911 ;; Registers used:
   912 ;;		wreg, fsr0l, fsr0h, status,2, status,0, btemp+1, pclath, cstack
   913 ;; Tracked objects:
   914 ;;		On entry : 17F/0
   915 ;;		On exit  : 60/0
   916 ;;		Unchanged: 0/0
   917 ;; Data sizes:     COMMON   BANK0   BANK1   BANK3   BANK2
   918 ;;      Params:         0       0       0       0       0
   919 ;;      Locals:         0       0       0       0       0
   920 ;;      Temps:          0       2       0       0       0
   921 ;;      Totals:         0       2       0       0       0
   922 ;;Total ram usage:        2 bytes
   923 ;; Hardware stack levels required when called:   10
   924 ;; This function calls:
   925 ;;		_lcd_init
   926 ;;		_tx
   927 ;;		_rx
   928 ;;		_lcd_gotoxy
   929 ;;		_printf
   930 ;;		_lcd_counter
   931 ;;		_sprintf
   932 ;;		_send_string
   933 ;;		_lcd_put_byte
   934 ;; This function is called by:
   935 ;;		Startup code after reset
   936 ;; This function uses a non-reentrant model
   937 ;;
   938  06B0                     _main:	
   939                           
   940                           ;BT Ôn Thi 05.c: 37: ANSEL = ANSELH = 0;
   941                           
   942 ;; hardware stack exceeded
   943                           ; Regs used in _main: [wreg-fsr0h+status,2+status,0+btemp+1+pclath+cstack]
   944  06B0  1683               	bsf	3,5	;RP0=1, select bank3
   945  06B1  1703               	bsf	3,6	;RP1=1, select bank3
   946  06B2  0189               	clrf	9	;volatile
   947  06B3  0188               	clrf	8	;volatile
   948                           
   949                           ;BT Ôn Thi 05.c: 38: lcd_init();
   950  06B4  120A  118A  23E6   	fcall	_lcd_init
      +       120A  118A         
   951                           
   952                           ;BT Ôn Thi 05.c: 39: TRISA4 = 1;
   953  06B9  1683               	bsf	3,5	;RP0=1, select bank1
   954  06BA  1605               	bsf	5,4
   955                           
   956                           ;BT Ôn Thi 05.c: 40: TRISD = 0x00;
   957  06BB  0188               	clrf	8	;volatile
   958                           
   959                           ;BT Ôn Thi 05.c: 41: TRISE0 = 0;
   960  06BC  1009               	bcf	9,0
   961                           
   962                           ;BT Ôn Thi 05.c: 43: TRISB0 = 1;
   963  06BD  1406               	bsf	6,0
   964                           
   965                           ;BT Ôn Thi 05.c: 44: TRISA0 = 1; ANS0 = 1;
   966  06BE  1405               	bsf	5,0
   967  06BF  1703               	bsf	3,6	;RP1=1, select bank3
   968  06C0  1408               	bsf	8,0
   969                           
   970                           ;BT Ôn Thi 05.c: 45: ADCS1 = 1; ADCS0 = 0;
   971  06C1  1283               	bcf	3,5	;RP0=0, select bank0
   972  06C2  1303               	bcf	3,6	;RP1=0, select bank0
   973  06C3  179F               	bsf	31,7
   974  06C4  131F               	bcf	31,6
   975                           
   976                           ;BT Ôn Thi 05.c: 46: VCFG1 = 0; VCFG0 = 0;
   977  06C5  1683               	bsf	3,5	;RP0=1, select bank1
   978  06C6  129F               	bcf	31,5
   979  06C7  121F               	bcf	31,4
   980                           
   981                           ;BT Ôn Thi 05.c: 47: CHS3 = 0;CHS2 = 0; CHS1 = 0;CHS0 = 0;
   982  06C8  1283               	bcf	3,5	;RP0=0, select bank0
   983  06C9  129F               	bcf	31,5
   984  06CA  121F               	bcf	31,4
   985  06CB  119F               	bcf	31,3
   986  06CC  111F               	bcf	31,2
   987                           
   988                           ;BT Ôn Thi 05.c: 48: ADFM = 1;
   989  06CD  1683               	bsf	3,5	;RP0=1, select bank1
   990  06CE  179F               	bsf	31,7
   991                           
   992                           ;BT Ôn Thi 05.c: 49: ADON = 1;
   993  06CF  1283               	bcf	3,5	;RP0=0, select bank0
   994  06D0  3003               	movlw	3
   995  06D1  141F               	bsf	31,0
   996                           
   997                           ;BT Ôn Thi 05.c: 50: WPUB = 0b00000011;
   998  06D2  1683               	bsf	3,5	;RP0=1, select bank1
   999  06D3  0095               	movwf	21	;volatile
  1000  06D4  3041               	movlw	65
  1001                           
  1002                           ;BT Ôn Thi 05.c: 51: nRBPU =0;
  1003  06D5  1381               	bcf	1,7
  1004                           
  1005                           ;BT Ôn Thi 05.c: 52: GIE = 1;
  1006  06D6  178B               	bsf	11,7
  1007                           
  1008                           ;BT Ôn Thi 05.c: 53: RBIE = 1;
  1009  06D7  158B               	bsf	11,3
  1010                           
  1011                           ;BT Ôn Thi 05.c: 54: RBIF = 0;
  1012  06D8  100B               	bcf	11,0
  1013                           
  1014                           ;BT Ôn Thi 05.c: 55: _delay((unsigned long)((10)*(20000000/4000.0)));
  1015  06D9  1283               	bcf	3,5	;RP0=0, select bank0
  1016  06DA  00CD               	movwf	??_main+1
  1017  06DB  30EE               	movlw	238
  1018  06DC  00CC               	movwf	??_main
  1019  06DD                     u2177:	
  1020  06DD  0BCC               	decfsz	??_main,f
  1021  06DE  2EDD               	goto	u2177
  1022  06DF  0BCD               	decfsz	??_main+1,f
  1023  06E0  2EDD               	goto	u2177
  1024  06E1  0064               	clrwdt
  1025                           
  1026                           ;BT Ôn Thi 05.c: 57: TMR1GE=0;
  1027  06E2  1283               	bcf	3,5	;RP0=0, select bank0
  1028  06E3  1303               	bcf	3,6	;RP1=0, select bank0
  1029  06E4  30F6               	movlw	246
  1030  06E5  1310               	bcf	16,6
  1031                           
  1032                           ;BT Ôn Thi 05.c: 58: TMR1CS=0;
  1033  06E6  1090               	bcf	16,1
  1034                           
  1035                           ;BT Ôn Thi 05.c: 59: T1SYNC=1;
  1036  06E7  1510               	bsf	16,2
  1037                           
  1038                           ;BT Ôn Thi 05.c: 60: T1CKPS1=0;T1CKPS0=0;
  1039  06E8  1290               	bcf	16,5
  1040  06E9  1210               	bcf	16,4
  1041                           
  1042                           ;BT Ôn Thi 05.c: 61: TMR1ON=1;
  1043  06EA  1410               	bsf	16,0
  1044                           
  1045                           ;BT Ôn Thi 05.c: 62: TMR1H=246;
  1046  06EB  008F               	movwf	15	;volatile
  1047                           
  1048                           ;BT Ôn Thi 05.c: 63: TMR1L=60;
  1049  06EC  303C               	movlw	60
  1050  06ED  008E               	movwf	14	;volatile
  1051                           
  1052                           ;BT Ôn Thi 05.c: 65: TMR1IE=1;
  1053  06EE  1683               	bsf	3,5	;RP0=1, select bank1
  1054  06EF  140C               	bsf	12,0
  1055                           
  1056                           ;BT Ôn Thi 05.c: 66: TMR1IF=0;
  1057  06F0  1283               	bcf	3,5	;RP0=0, select bank0
  1058  06F1  100C               	bcf	12,0
  1059                           
  1060                           ;BT Ôn Thi 05.c: 67: PEIE=1;
  1061  06F2  170B               	bsf	11,6
  1062                           
  1063                           ;BT Ôn Thi 05.c: 68: GIE=1;
  1064  06F3  178B               	bsf	11,7
  1065                           
  1066                           ;BT Ôn Thi 05.c: 71: tx();
  1067  06F4  120A  118A  27E5   	fcall	_tx
      +       120A  118A         
  1068                           
  1069                           ;BT Ôn Thi 05.c: 72: rx();
  1070  06F9  120A  118A  27BC   	fcall	_rx
      +       120A  118A         
  1071  06FE  3000               	movlw	0
  1072                           
  1073                           ;BT Ôn Thi 05.c: 73: char data_tx[10];
  1074                           ;BT Ôn Thi 05.c: 75: lcd_gotoxy(0,0);
  1075  06FF  01AF               	clrf	?_lcd_gotoxy
  1076  0700  120A  118A  2391   	fcall	_lcd_gotoxy
      +       120A  118A         
  1077                           
  1078                           ;BT Ôn Thi 05.c: 76: printf("Nguyen Phuc Dung");
  1079  0705  300B               	movlw	(STR_4-__stringbase)& (0+255)
  1080  0706  120A  118A  23A9   	fcall	_printf
      +       120A  118A         
  1081  070B                     l4990:	
  1082                           
  1083                           ;BT Ôn Thi 05.c: 79: {
  1084                           ;BT Ôn Thi 05.c: 80: lcd_counter();
  1085  070B  120A  118A  2363   	fcall	_lcd_counter
      +       120A  118A         
  1086                           
  1087                           ;BT Ôn Thi 05.c: 81: if (ms>=1000){
  1088  0710  0856               	movf	_ms+1,w
  1089  0711  3A80               	xorlw	128
  1090  0712  00FF               	movwf	127
  1091  0713  3083               	movlw	131
  1092  0714  027F               	subwf	127,w
  1093  0715  1D03               	skipz
  1094  0716  2F19               	goto	u2075
  1095  0717  30E8               	movlw	232
  1096  0718  0255               	subwf	_ms,w
  1097  0719                     u2075:	
  1098  0719  1C03               	skipc
  1099  071A  2FB1               	goto	l5040
  1100                           
  1101                           ;BT Ôn Thi 05.c: 82: ms=0;
  1102  071B  1283               	bcf	3,5	;RP0=0, select bank0
  1103  071C  1303               	bcf	3,6	;RP1=0, select bank0
  1104  071D  01D5               	clrf	_ms
  1105  071E  01D6               	clrf	_ms+1
  1106                           
  1107                           ;BT Ôn Thi 05.c: 83: s=s+1;
  1108  071F  0AD7               	incf	_s,f
  1109  0720  1903               	skipnz
  1110  0721  0AD8               	incf	_s+1,f
  1111                           
  1112                           ;BT Ôn Thi 05.c: 84: lcd_counter();
  1113  0722  120A  118A  2363   	fcall	_lcd_counter
      +       120A  118A         
  1114                           
  1115                           ;BT Ôn Thi 05.c: 85: if (s==10||s==20||s==30||s==40||s==50||s==60){
  1116  0727  0857               	movf	_s,w
  1117  0728  3A0A               	xorlw	10
  1118  0729  0458               	iorwf	_s+1,w
  1119  072A  1903               	skipnz
  1120  072B  2F45               	goto	l5012
  1121  072C  0857               	movf	_s,w
  1122  072D  3A14               	xorlw	20
  1123  072E  0458               	iorwf	_s+1,w
  1124  072F  1903               	skipnz
  1125  0730  2F45               	goto	l5012
  1126  0731  0857               	movf	_s,w
  1127  0732  3A1E               	xorlw	30
  1128  0733  0458               	iorwf	_s+1,w
  1129  0734  1903               	skipnz
  1130  0735  2F45               	goto	l5012
  1131  0736  0857               	movf	_s,w
  1132  0737  3A28               	xorlw	40
  1133  0738  0458               	iorwf	_s+1,w
  1134  0739  1903               	skipnz
  1135  073A  2F45               	goto	l5012
  1136  073B  0857               	movf	_s,w
  1137  073C  3A32               	xorlw	50
  1138  073D  0458               	iorwf	_s+1,w
  1139  073E  1903               	skipnz
  1140  073F  2F45               	goto	l5012
  1141  0740  0857               	movf	_s,w
  1142  0741  3A3C               	xorlw	60
  1143  0742  0458               	iorwf	_s+1,w
  1144  0743  1D03               	skipz
  1145  0744  2F69               	goto	l5018
  1146  0745                     l5012:	
  1147                           
  1148                           ;BT Ôn Thi 05.c: 86: sprintf(data_rx,"gio:%02d",h);
  1149  0745  3026               	movlw	(STR_5-__stringbase)& (0+255)
  1150  0746  00C5               	movwf	?_sprintf
  1151  0747  0852               	movf	_h+1,w
  1152  0748  00C7               	movwf	?_sprintf+2
  1153  0749  0851               	movf	_h,w
  1154  074A  00C6               	movwf	?_sprintf+1
  1155  074B  3059               	movlw	_data_rx& (0+255)
  1156  074C  120A  118A  2109   	fcall	_sprintf
      +       120A  118A         
  1157                           
  1158                           ;BT Ôn Thi 05.c: 87: send_string(data_rx);
  1159  0751  3059               	movlw	_data_rx& (0+255)
  1160  0752  120A  118A  27D1   	fcall	_send_string
      +       120A  118A         
  1161                           
  1162                           ;BT Ôn Thi 05.c: 88: sprintf(data_rx,"phut:%02d",m);
  1163  0757  301C               	movlw	(STR_6-__stringbase)& (0+255)
  1164  0758  00C5               	movwf	?_sprintf
  1165  0759  0854               	movf	_m+1,w
  1166  075A  00C7               	movwf	?_sprintf+2
  1167  075B  0853               	movf	_m,w
  1168  075C  00C6               	movwf	?_sprintf+1
  1169  075D  3059               	movlw	_data_rx& (0+255)
  1170  075E  120A  118A  2109   	fcall	_sprintf
      +       120A  118A         
  1171                           
  1172                           ;BT Ôn Thi 05.c: 89: send_string(data_rx);
  1173  0763  3059               	movlw	_data_rx& (0+255)
  1174  0764  120A  118A  27D1   	fcall	_send_string
      +       120A  118A         
  1175  0769                     l5018:	
  1176                           
  1177                           ;BT Ôn Thi 05.c: 90: }
  1178                           ;BT Ôn Thi 05.c: 91: if (s>=60){
  1179  0769  0858               	movf	_s+1,w
  1180  076A  3A80               	xorlw	128
  1181  076B  00FF               	movwf	127
  1182  076C  3080               	movlw	128
  1183  076D  027F               	subwf	127,w
  1184  076E  1D03               	skipz
  1185  076F  2F72               	goto	u2145
  1186  0770  303C               	movlw	60
  1187  0771  0257               	subwf	_s,w
  1188  0772                     u2145:	
  1189  0772  1C03               	skipc
  1190  0773  2FB1               	goto	l5040
  1191                           
  1192                           ;BT Ôn Thi 05.c: 92: s=0;
  1193  0774  1283               	bcf	3,5	;RP0=0, select bank0
  1194  0775  1303               	bcf	3,6	;RP1=0, select bank0
  1195  0776  01D7               	clrf	_s
  1196  0777  01D8               	clrf	_s+1
  1197                           
  1198                           ;BT Ôn Thi 05.c: 93: m=m+1;
  1199  0778  0AD3               	incf	_m,f
  1200  0779  1903               	skipnz
  1201  077A  0AD4               	incf	_m+1,f
  1202                           
  1203                           ;BT Ôn Thi 05.c: 94: lcd_counter();
  1204  077B  120A  118A  2363   	fcall	_lcd_counter
      +       120A  118A         
  1205                           
  1206                           ;BT Ôn Thi 05.c: 95: if (m>=60){
  1207  0780  0854               	movf	_m+1,w
  1208  0781  3A80               	xorlw	128
  1209  0782  00FF               	movwf	127
  1210  0783  3080               	movlw	128
  1211  0784  027F               	subwf	127,w
  1212  0785  1D03               	skipz
  1213  0786  2F89               	goto	u2155
  1214  0787  303C               	movlw	60
  1215  0788  0253               	subwf	_m,w
  1216  0789                     u2155:	
  1217  0789  1C03               	skipc
  1218  078A  2FB1               	goto	l5040
  1219                           
  1220                           ;BT Ôn Thi 05.c: 96: m=0;
  1221  078B  1283               	bcf	3,5	;RP0=0, select bank0
  1222  078C  1303               	bcf	3,6	;RP1=0, select bank0
  1223  078D  01D3               	clrf	_m
  1224  078E  01D4               	clrf	_m+1
  1225                           
  1226                           ;BT Ôn Thi 05.c: 97: h=h+1;
  1227  078F  0AD1               	incf	_h,f
  1228  0790  1903               	skipnz
  1229  0791  0AD2               	incf	_h+1,f
  1230                           
  1231                           ;BT Ôn Thi 05.c: 98: lcd_counter();
  1232  0792  120A  118A  2363   	fcall	_lcd_counter
      +       120A  118A         
  1233                           
  1234                           ;BT Ôn Thi 05.c: 99: if (h>=60){
  1235  0797  0852               	movf	_h+1,w
  1236  0798  3A80               	xorlw	128
  1237  0799  00FF               	movwf	127
  1238  079A  3080               	movlw	128
  1239  079B  027F               	subwf	127,w
  1240  079C  1D03               	skipz
  1241  079D  2FA0               	goto	u2165
  1242  079E  303C               	movlw	60
  1243  079F  0251               	subwf	_h,w
  1244  07A0                     u2165:	
  1245  07A0  1C03               	skipc
  1246  07A1  2FB1               	goto	l5040
  1247                           
  1248                           ;BT Ôn Thi 05.c: 100: ms=0;
  1249  07A2  1283               	bcf	3,5	;RP0=0, select bank0
  1250  07A3  1303               	bcf	3,6	;RP1=0, select bank0
  1251  07A4  01D5               	clrf	_ms
  1252  07A5  01D6               	clrf	_ms+1
  1253                           
  1254                           ;BT Ôn Thi 05.c: 101: s=0;
  1255  07A6  01D7               	clrf	_s
  1256  07A7  01D8               	clrf	_s+1
  1257                           
  1258                           ;BT Ôn Thi 05.c: 102: m=0;
  1259  07A8  01D3               	clrf	_m
  1260  07A9  01D4               	clrf	_m+1
  1261                           
  1262                           ;BT Ôn Thi 05.c: 103: h=0;
  1263  07AA  01D1               	clrf	_h
  1264  07AB  01D2               	clrf	_h+1
  1265                           
  1266                           ;BT Ôn Thi 05.c: 104: lcd_counter();
  1267  07AC  120A  118A  2363   	fcall	_lcd_counter
      +       120A  118A         
  1268  07B1                     l5040:	
  1269                           
  1270                           ;BT Ôn Thi 05.c: 105: }
  1271                           ;BT Ôn Thi 05.c: 106: }
  1272                           ;BT Ôn Thi 05.c: 107: }
  1273                           ;BT Ôn Thi 05.c: 108: }
  1274                           ;BT Ôn Thi 05.c: 109: lcd_put_byte(1,1);
  1275  07B1  1283               	bcf	3,5	;RP0=0, select bank0
  1276  07B2  1303               	bcf	3,6	;RP1=0, select bank0
  1277  07B3  3001               	movlw	1
  1278  07B4  01AA               	clrf	?_lcd_put_byte
  1279  07B5  0AAA               	incf	?_lcd_put_byte,f
  1280  07B6  120A  118A  24A4   	fcall	_lcd_put_byte
      +       120A  118A         
  1281  07BB  2F0B               	goto	l4990
  1282  07BC                     __end_of_main:	
  1283                           
  1284                           	psect	text405
  1285  0109                     __ptext405:	
  1286 ;; =============== function _lcd_counter ends ============
  1287                           
  1288                           
  1289 ;; *************** function _sprintf *****************
  1290 ;; Defined at:
  1291 ;;		line 14 in file "C:\Program Files (x86)\HI-TECH Software\PICC\9.83\sources\sprintf.c"
  1292 ;; Parameters:    Size  Location     Type
  1293 ;;  wh              1    wreg     PTR unsigned char 
  1294 ;;		 -> data_rx(10), 
  1295 ;;  f               1   37[BANK0 ] PTR const unsigned char 
  1296 ;;		 -> STR_6(10), STR_5(9), 
  1297 ;; Auto vars:     Size  Location     Type
  1298 ;;  wh              1   40[BANK0 ] PTR unsigned char 
  1299 ;;		 -> data_rx(10), 
  1300 ;;  pb              2   42[BANK0 ] struct __prbuf
  1301 ;;  ap              1   41[BANK0 ] PTR void [1]
  1302 ;;		 -> ?_sprintf(2), ?_printf(2), 
  1303 ;; Return value:  Size  Location     Type
  1304 ;;                  2   37[BANK0 ] int 
  1305 ;; Registers used:
  1306 ;;		wreg, fsr0l, fsr0h, status,2, status,0, btemp+1, pclath, cstack
  1307 ;; Tracked objects:
  1308 ;;		On entry : 60/0
  1309 ;;		On exit  : 160/0
  1310 ;;		Unchanged: 0/0
  1311 ;; Data sizes:     COMMON   BANK0   BANK1   BANK3   BANK2
  1312 ;;      Params:         0       3       0       0       0
  1313 ;;      Locals:         0       4       0       0       0
  1314 ;;      Temps:          0       0       0       0       0
  1315 ;;      Totals:         0       7       0       0       0
  1316 ;;Total ram usage:        7 bytes
  1317 ;; Hardware stack levels used:    1
  1318 ;; Hardware stack levels required when called:    8
  1319 ;; This function calls:
  1320 ;;		__doprnt
  1321 ;; This function is called by:
  1322 ;;		_main
  1323 ;; This function uses a non-reentrant model
  1324 ;;
  1325  0109                     _sprintf:	
  1326                           
  1327 ;; hardware stack exceeded
  1328                           ; Regs used in _sprintf: [wreg-fsr0h+status,2+status,0+btemp+1+pclath+cstack]
  1329                           ;sprintf@wh stored from wreg
  1330  0109  00C8               	movwf	sprintf@wh
  1331  010A  00CA               	movwf	sprintf@pb
  1332  010B  3046               	movlw	(?_sprintf+1)& (0+255)
  1333  010C  01CB               	clrf	sprintf@pb+1
  1334  010D  00C9               	movwf	sprintf@ap
  1335  010E  0845               	movf	sprintf@f,w
  1336  010F  00B6               	movwf	?__doprnt
  1337  0110  3049               	movlw	sprintf@ap& (0+255)
  1338  0111  00B7               	movwf	?__doprnt+1
  1339  0112  304A               	movlw	sprintf@pb& (0+255)
  1340  0113  2119               	fcall	__doprnt
  1341  0114  084A               	movf	sprintf@pb,w
  1342  0115  0084               	movwf	4
  1343  0116  1383               	bcf	3,7	;select IRP bank0
  1344  0117  0180               	clrf	0
  1345  0118  0008               	return
  1346  0119                     __end_of_sprintf:	
  1347  0119                     __ptext407:	
  1348 ;; =============== function _printf ends ============
  1349                           
  1350                           
  1351 ;; *************** function __doprnt *****************
  1352 ;; Defined at:
  1353 ;;		line 455 in file "C:\Program Files (x86)\HI-TECH Software\PICC\9.83\lib\doprnt.c"
  1354 ;; Parameters:    Size  Location     Type
  1355 ;;  pb              1    wreg     PTR struct __prbuf
  1356 ;;		 -> sprintf@pb(2), printf@pb(2), 
  1357 ;;  f               1   22[BANK0 ] PTR const unsigned char 
  1358 ;;		 -> STR_6(10), STR_5(9), STR_4(17), STR_3(7), 
  1359 ;;		 -> STR_2(7), STR_1(6), 
  1360 ;;  ap              1   23[BANK0 ] PTR PTR void 
  1361 ;;		 -> sprintf@ap(1), printf@ap(1), 
  1362 ;; Auto vars:     Size  Location     Type
  1363 ;;  pb              1   36[BANK0 ] PTR struct __prbuf
  1364 ;;		 -> sprintf@pb(2), printf@pb(2), 
  1365 ;;  _val            4   28[BANK0 ] struct .
  1366 ;;  width           2   33[BANK0 ] int 
  1367 ;;  c               1   35[BANK0 ] char 
  1368 ;;  flag            1   32[BANK0 ] unsigned char 
  1369 ;;  prec            1   27[BANK0 ] char 
  1370 ;; Return value:  Size  Location     Type
  1371 ;;                  2   22[BANK0 ] int 
  1372 ;; Registers used:
  1373 ;;		wreg, fsr0l, fsr0h, status,2, status,0, btemp+1, pclath, cstack
  1374 ;; Tracked objects:
  1375 ;;		On entry : 60/0
  1376 ;;		On exit  : 60/0
  1377 ;;		Unchanged: 0/0
  1378 ;; Data sizes:     COMMON   BANK0   BANK1   BANK3   BANK2
  1379 ;;      Params:         0       2       0       0       0
  1380 ;;      Locals:         0      10       0       0       0
  1381 ;;      Temps:          0       3       0       0       0
  1382 ;;      Totals:         0      15       0       0       0
  1383 ;;Total ram usage:       15 bytes
  1384 ;; Hardware stack levels used:    1
  1385 ;; Hardware stack levels required when called:    7
  1386 ;; This function calls:
  1387 ;;		Absolute function
  1388 ;;		_putch
  1389 ;;		_isdigit
  1390 ;;		___wmul
  1391 ;;		___lwdiv
  1392 ;;		___lwmod
  1393 ;; This function is called by:
  1394 ;;		_printf
  1395 ;;		_sprintf
  1396 ;; This function uses a non-reentrant model
  1397 ;;
  1398  0119                     __doprnt:	
  1399                           
  1400 ;; hardware stack exceeded
  1401                           ; Regs used in __doprnt: [wreg-fsr0h+status,2+status,0+btemp+1+pclath+cstack]
  1402                           ;__doprnt@pb stored from wreg
  1403  0119  00C4               	movwf	__doprnt@pb
  1404  011A                     l4878:	
  1405  011A  1283               	bcf	3,5	;RP0=0, select bank0
  1406  011B  1303               	bcf	3,6	;RP1=0, select bank0
  1407  011C  0836               	movf	__doprnt@f,w
  1408  011D  0AB6               	incf	__doprnt@f,f
  1409  011E  0084               	movwf	4
  1410  011F  120A  118A  2015   	fcall	stringdir
      +       120A  118A         
  1411  0124  00C3               	movwf	__doprnt@c
  1412  0125  08C3               	movf	__doprnt@c,f
  1413  0126  1903               	btfsc	3,2
  1414  0127  2AE9               	goto	l4880
  1415  0128  0843               	movf	__doprnt@c,w
  1416  0129  3A25               	xorlw	37
  1417  012A  1903               	skipnz
  1418  012B  2949               	goto	l4764
  1419  012C  0844               	movf	__doprnt@pb,w
  1420  012D  3E01               	addlw	1
  1421  012E  0084               	movwf	4
  1422  012F  1383               	bcf	3,7	;select IRP bank0
  1423  0130  0880               	movf	0,f
  1424  0131  1903               	skipnz
  1425  0132  293F               	goto	l4760
  1426  0133  0843               	movf	__doprnt@c,w
  1427  0134  00B3               	movwf	?_putch
  1428  0135  0844               	movf	__doprnt@pb,w
  1429  0136  3E01               	addlw	1
  1430  0137  0084               	movwf	4
  1431  0138  0800               	movf	0,w
  1432  0139  120A  118A  2100   	fcall	fptable
      +       120A  118A         
  1433  013E  291A               	goto	l4878
  1434  013F                     l4760:	
  1435  013F  0844               	movf	__doprnt@pb,w
  1436  0140  0084               	movwf	4
  1437  0141  0800               	movf	0,w
  1438  0142  0084               	movwf	4
  1439  0143  0843               	movf	__doprnt@c,w
  1440  0144  0080               	movwf	0
  1441  0145  0844               	movf	__doprnt@pb,w
  1442  0146  0084               	movwf	4
  1443  0147  0A80               	incf	0,f
  1444  0148  291A               	goto	l4878
  1445  0149                     l4764:	
  1446  0149  01C1               	clrf	__doprnt@width
  1447  014A  01C2               	clrf	__doprnt@width+1
  1448  014B  01C0               	clrf	__doprnt@flag
  1449  014C  294F               	goto	l4770
  1450  014D                     l2230:	
  1451  014D  1540               	bsf	__doprnt@flag,2
  1452  014E  0AB6               	incf	__doprnt@f,f
  1453  014F                     l4770:	
  1454  014F  0836               	movf	__doprnt@f,w
  1455  0150  0084               	movwf	4
  1456  0151  120A  118A  2015   	fcall	stringdir
      +       120A  118A         
  1457                           
  1458                           ; Switch size 1, requested type "space"
  1459                           ; Number of cases is 1, Range of values is 48 to 48
  1460                           ; switch strategies available:
  1461                           ; Name         Instructions Cycles
  1462                           ; simple_byte            4     3 (average)
  1463                           ; direct_byte           14    11 (fixed)
  1464                           ; jumptable            263     9 (fixed)
  1465                           ;	Chosen strategy is simple_byte
  1466  0156  3A30               	xorlw	48	; case 48
  1467  0157  1903               	skipnz
  1468  0158  294D               	goto	l2230
  1469  0159  295A               	goto	l4772
  1470  015A                     l4772:	
  1471  015A  0836               	movf	__doprnt@f,w
  1472  015B  0084               	movwf	4
  1473  015C  120A  118A  2015   	fcall	stringdir
      +       120A  118A         
  1474  0161  22EC  120A  118A   	fcall	_isdigit
  1475  0164  1C03               	btfss	3,0
  1476  0165  2993               	goto	l4784
  1477  0166  01C1               	clrf	__doprnt@width
  1478  0167  01C2               	clrf	__doprnt@width+1
  1479  0168                     l4776:	
  1480  0168  0842               	movf	__doprnt@width+1,w
  1481  0169  00AB               	movwf	?___wmul+1
  1482  016A  0841               	movf	__doprnt@width,w
  1483  016B  00AA               	movwf	?___wmul
  1484  016C  300A               	movlw	10
  1485  016D  00AC               	movwf	?___wmul+2
  1486  016E  01AD               	clrf	?___wmul+3
  1487  016F  22FA               	fcall	___wmul
  1488  0170  0836               	movf	__doprnt@f,w
  1489  0171  0084               	movwf	4
  1490  0172  120A  118A  2015   	fcall	stringdir
      +       120A  118A         
  1491  0177  072A               	addwf	?___wmul,w
  1492  0178  00B8               	movwf	??__doprnt
  1493  0179  3000               	movlw	0
  1494  017A  1803               	skipnc
  1495  017B  3001               	movlw	1
  1496  017C  072B               	addwf	?___wmul+1,w
  1497  017D  00B9               	movwf	??__doprnt+1
  1498  017E  0838               	movf	??__doprnt,w
  1499  017F  3ED0               	addlw	208
  1500  0180  00C1               	movwf	__doprnt@width
  1501  0181  0839               	movf	??__doprnt+1,w
  1502  0182  1803               	skipnc
  1503  0183  3E01               	addlw	1
  1504  0184  3EFF               	addlw	255
  1505  0185  00C2               	movwf	__doprnt@width+1
  1506  0186  0AB6               	incf	__doprnt@f,f
  1507  0187  0836               	movf	__doprnt@f,w
  1508  0188  0084               	movwf	4
  1509  0189  120A  118A  2015   	fcall	stringdir
      +       120A  118A         
  1510  018E  22EC  120A  118A   	fcall	_isdigit
  1511  0191  1803               	btfsc	3,0
  1512  0192  2968               	goto	l4776
  1513  0193                     l4784:	
  1514  0193  0836               	movf	__doprnt@f,w
  1515  0194  0AB6               	incf	__doprnt@f,f
  1516  0195  0084               	movwf	4
  1517  0196  120A  118A  2015   	fcall	stringdir
      +       120A  118A         
  1518  019B  00C3               	movwf	__doprnt@c
  1519                           
  1520                           ; Switch size 1, requested type "space"
  1521                           ; Number of cases is 3, Range of values is 0 to 105
  1522                           ; switch strategies available:
  1523                           ; Name         Instructions Cycles
  1524                           ; simple_byte           10     6 (average)
  1525                           ; jumptable            260     6 (fixed)
  1526                           ; rangetable           110     6 (fixed)
  1527                           ; spacedrange          218     9 (fixed)
  1528                           ; locatedrange         106     3 (fixed)
  1529                           ;	Chosen strategy is simple_byte
  1530  019C  3A00               	xorlw	0	; case 0
  1531  019D  1903               	skipnz
  1532  019E  2AE9               	goto	l4880
  1533  019F  3A64               	xorlw	100	; case 100
  1534  01A0  1903               	skipnz
  1535  01A1  29A6               	goto	l4786
  1536  01A2  3A0D               	xorlw	13	; case 105
  1537  01A3  1903               	skipnz
  1538  01A4  29A6               	goto	l4786
  1539  01A5  291A               	goto	l4878
  1540  01A6                     l4786:	
  1541  01A6  0837               	movf	__doprnt@ap,w
  1542  01A7  0084               	movwf	4
  1543  01A8  1383               	bcf	3,7	;select IRP bank0
  1544  01A9  0800               	movf	0,w
  1545  01AA  00B8               	movwf	??__doprnt
  1546  01AB  3002               	movlw	2
  1547  01AC  0780               	addwf	0,f
  1548  01AD  0838               	movf	??__doprnt,w
  1549  01AE  0084               	movwf	4
  1550  01AF  0800               	movf	0,w
  1551  01B0  00BC               	movwf	__doprnt@_val
  1552  01B1  0A84               	incf	4,f
  1553  01B2  0800               	movf	0,w
  1554  01B3  00BD               	movwf	__doprnt@_val+1
  1555  01B4  1FBD               	btfss	__doprnt@_val+1,7
  1556  01B5  29BD               	goto	l4794
  1557  01B6  3003               	movlw	3
  1558  01B7  04C0               	iorwf	__doprnt@flag,f
  1559  01B8  09BC               	comf	__doprnt@_val,f
  1560  01B9  09BD               	comf	__doprnt@_val+1,f
  1561  01BA  0ABC               	incf	__doprnt@_val,f
  1562  01BB  1903               	skipnz
  1563  01BC  0ABD               	incf	__doprnt@_val+1,f
  1564  01BD                     l4794:	
  1565  01BD  01C3               	clrf	__doprnt@c
  1566  01BE  0AC3               	incf	__doprnt@c,f
  1567  01BF                     l4798:	
  1568  01BF  1003               	clrc
  1569  01C0  0D43               	rlf	__doprnt@c,w
  1570  01C1  3E01               	addlw	low (_dpowers-__stringbase)
  1571  01C2  0084               	movwf	4
  1572  01C3  120A  118A  2015   	fcall	stringdir
      +       120A  118A         
  1573  01C8  00B8               	movwf	??__doprnt
  1574  01C9  120A  118A  2015   	fcall	stringdir
      +       120A  118A         
  1575  01CE  00B9               	movwf	??__doprnt+1
  1576  01CF  023D               	subwf	__doprnt@_val+1,w
  1577  01D0  1D03               	skipz
  1578  01D1  29D4               	goto	u1885
  1579  01D2  0838               	movf	??__doprnt,w
  1580  01D3  023C               	subwf	__doprnt@_val,w
  1581  01D4                     u1885:	
  1582  01D4  1C03               	btfss	3,0
  1583  01D5  29DB               	goto	l4806
  1584  01D6  0AC3               	incf	__doprnt@c,f
  1585  01D7  0843               	movf	__doprnt@c,w
  1586  01D8  3A05               	xorlw	5
  1587  01D9  1D03               	skipz
  1588  01DA  29BF               	goto	l4798
  1589  01DB                     l4806:	
  1590  01DB  0842               	movf	__doprnt@width+1,w
  1591  01DC  0441               	iorwf	__doprnt@width,w
  1592  01DD  1903               	skipnz
  1593  01DE  29E7               	goto	l4812
  1594  01DF  0840               	movf	__doprnt@flag,w
  1595  01E0  3903               	andlw	3
  1596  01E1  1903               	btfsc	3,2
  1597  01E2  29E7               	goto	l4812
  1598  01E3  30FF               	movlw	-1
  1599  01E4  07C1               	addwf	__doprnt@width,f
  1600  01E5  1C03               	skipc
  1601  01E6  03C2               	decf	__doprnt@width+1,f
  1602  01E7                     l4812:	
  1603  01E7  0843               	movf	__doprnt@c,w
  1604  01E8  00B8               	movwf	??__doprnt
  1605  01E9  01B9               	clrf	??__doprnt+1
  1606  01EA  1BB8               	btfsc	??__doprnt,7
  1607  01EB  03B9               	decf	??__doprnt+1,f
  1608  01EC  0839               	movf	??__doprnt+1,w
  1609  01ED  3A80               	xorlw	128
  1610  01EE  00BA               	movwf	??__doprnt+2
  1611  01EF  0842               	movf	__doprnt@width+1,w
  1612  01F0  3A80               	xorlw	128
  1613  01F1  023A               	subwf	??__doprnt+2,w
  1614  01F2  1D03               	skipz
  1615  01F3  29F6               	goto	u1925
  1616  01F4  0841               	movf	__doprnt@width,w
  1617  01F5  0238               	subwf	??__doprnt,w
  1618  01F6                     u1925:	
  1619  01F6  1803               	skipnc
  1620  01F7  2A05               	goto	l4816
  1621  01F8  1283               	bcf	3,5	;RP0=0, select bank0
  1622  01F9  1303               	bcf	3,6	;RP1=0, select bank0
  1623  01FA  0843               	movf	__doprnt@c,w
  1624  01FB  00B8               	movwf	??__doprnt
  1625  01FC  01B9               	clrf	??__doprnt+1
  1626  01FD  1BB8               	btfsc	??__doprnt,7
  1627  01FE  03B9               	decf	??__doprnt+1,f
  1628  01FF  02C1               	subwf	__doprnt@width,f
  1629  0200  0839               	movf	??__doprnt+1,w
  1630  0201  1C03               	skipc
  1631  0202  03C2               	decf	__doprnt@width+1,f
  1632  0203  02C2               	subwf	__doprnt@width+1,f
  1633  0204  2A09               	goto	l4818
  1634  0205                     l4816:	
  1635  0205  1283               	bcf	3,5	;RP0=0, select bank0
  1636  0206  1303               	bcf	3,6	;RP1=0, select bank0
  1637  0207  01C1               	clrf	__doprnt@width
  1638  0208  01C2               	clrf	__doprnt@width+1
  1639  0209                     l4818:	
  1640  0209  1D40               	btfss	__doprnt@flag,2
  1641  020A  2A54               	goto	l4842
  1642  020B  0840               	movf	__doprnt@flag,w
  1643  020C  3903               	andlw	3
  1644  020D  1903               	btfsc	3,2
  1645  020E  2A2B               	goto	l4830
  1646  020F  0844               	movf	__doprnt@pb,w
  1647  0210  3E01               	addlw	1
  1648  0211  0084               	movwf	4
  1649  0212  1383               	bcf	3,7	;select IRP bank0
  1650  0213  0880               	movf	0,f
  1651  0214  1903               	skipnz
  1652  0215  2A22               	goto	l4826
  1653  0216  302D               	movlw	45
  1654  0217  00B3               	movwf	?_putch
  1655  0218  0844               	movf	__doprnt@pb,w
  1656  0219  3E01               	addlw	1
  1657  021A  0084               	movwf	4
  1658  021B  0800               	movf	0,w
  1659  021C  120A  118A  2100   	fcall	fptable
      +       120A  118A         
  1660  0221  2A2B               	goto	l4830
  1661  0222                     l4826:	
  1662  0222  0844               	movf	__doprnt@pb,w
  1663  0223  0084               	movwf	4
  1664  0224  0800               	movf	0,w
  1665  0225  0084               	movwf	4
  1666  0226  302D               	movlw	45
  1667  0227  0080               	movwf	0
  1668  0228  0844               	movf	__doprnt@pb,w
  1669  0229  0084               	movwf	4
  1670  022A  0A80               	incf	0,f
  1671  022B                     l4830:	
  1672  022B  1283               	bcf	3,5	;RP0=0, select bank0
  1673  022C  1303               	bcf	3,6	;RP1=0, select bank0
  1674  022D                     L1:	
  1675  022D  0842               	movf	__doprnt@width+1,w
  1676  022E  0441               	iorwf	__doprnt@width,w
  1677  022F  1903               	skipnz
  1678  0230  2A9E               	goto	l4864
  1679  0231  0844               	movf	__doprnt@pb,w
  1680  0232  3E01               	addlw	1
  1681  0233  0084               	movwf	4
  1682  0234  1383               	bcf	3,7	;select IRP bank0
  1683  0235  0880               	movf	0,f
  1684  0236  1903               	skipnz
  1685  0237  2A44               	goto	l4836
  1686  0238  3030               	movlw	48
  1687  0239  00B3               	movwf	?_putch
  1688  023A  0844               	movf	__doprnt@pb,w
  1689  023B  3E01               	addlw	1
  1690  023C  0084               	movwf	4
  1691  023D  0800               	movf	0,w
  1692  023E  120A  118A  2100   	fcall	fptable
      +       120A  118A         
  1693  0243  2A4D               	goto	l4840
  1694  0244                     l4836:	
  1695  0244  0844               	movf	__doprnt@pb,w
  1696  0245  0084               	movwf	4
  1697  0246  0800               	movf	0,w
  1698  0247  0084               	movwf	4
  1699  0248  3030               	movlw	48
  1700  0249  0080               	movwf	0
  1701  024A  0844               	movf	__doprnt@pb,w
  1702  024B  0084               	movwf	4
  1703  024C  0A80               	incf	0,f
  1704  024D                     l4840:	
  1705  024D  30FF               	movlw	-1
  1706  024E  1283               	bcf	3,5	;RP0=0, select bank0
  1707  024F  1303               	bcf	3,6	;RP1=0, select bank0
  1708  0250  07C1               	addwf	__doprnt@width,f
  1709  0251  1C03               	skipc
  1710  0252  03C2               	decf	__doprnt@width+1,f
  1711  0253  2A2D               	goto	L1
  1712  0254                     l4842:	
  1713  0254  0842               	movf	__doprnt@width+1,w
  1714  0255  0441               	iorwf	__doprnt@width,w
  1715  0256  1903               	skipnz
  1716  0257  2A7E               	goto	l4854
  1717  0258                     l4844:	
  1718  0258  0844               	movf	__doprnt@pb,w
  1719  0259  3E01               	addlw	1
  1720  025A  0084               	movwf	4
  1721  025B  1383               	bcf	3,7	;select IRP bank0
  1722  025C  0880               	movf	0,f
  1723  025D  1903               	skipnz
  1724  025E  2A6B               	goto	l4848
  1725  025F  3020               	movlw	32
  1726  0260  00B3               	movwf	?_putch
  1727  0261  0844               	movf	__doprnt@pb,w
  1728  0262  3E01               	addlw	1
  1729  0263  0084               	movwf	4
  1730  0264  0800               	movf	0,w
  1731  0265  120A  118A  2100   	fcall	fptable
      +       120A  118A         
  1732  026A  2A74               	goto	l4852
  1733  026B                     l4848:	
  1734  026B  0844               	movf	__doprnt@pb,w
  1735  026C  0084               	movwf	4
  1736  026D  0800               	movf	0,w
  1737  026E  0084               	movwf	4
  1738  026F  3020               	movlw	32
  1739  0270  0080               	movwf	0
  1740  0271  0844               	movf	__doprnt@pb,w
  1741  0272  0084               	movwf	4
  1742  0273  0A80               	incf	0,f
  1743  0274                     l4852:	
  1744  0274  30FF               	movlw	-1
  1745  0275  1283               	bcf	3,5	;RP0=0, select bank0
  1746  0276  1303               	bcf	3,6	;RP1=0, select bank0
  1747  0277  07C1               	addwf	__doprnt@width,f
  1748  0278  1C03               	skipc
  1749  0279  03C2               	decf	__doprnt@width+1,f
  1750  027A  0842               	movf	__doprnt@width+1,w
  1751  027B  0441               	iorwf	__doprnt@width,w
  1752  027C  1D03               	skipz
  1753  027D  2A58               	goto	l4844
  1754  027E                     l4854:	
  1755  027E  0840               	movf	__doprnt@flag,w
  1756  027F  3903               	andlw	3
  1757  0280  1903               	btfsc	3,2
  1758  0281  2A9E               	goto	l4864
  1759  0282  0844               	movf	__doprnt@pb,w
  1760  0283  3E01               	addlw	1
  1761  0284  0084               	movwf	4
  1762  0285  1383               	bcf	3,7	;select IRP bank0
  1763  0286  0880               	movf	0,f
  1764  0287  1903               	skipnz
  1765  0288  2A95               	goto	l4860
  1766  0289  302D               	movlw	45
  1767  028A  00B3               	movwf	?_putch
  1768  028B  0844               	movf	__doprnt@pb,w
  1769  028C  3E01               	addlw	1
  1770  028D  0084               	movwf	4
  1771  028E  0800               	movf	0,w
  1772  028F  120A  118A  2100   	fcall	fptable
      +       120A  118A         
  1773  0294  2A9E               	goto	l4864
  1774  0295                     l4860:	
  1775  0295  0844               	movf	__doprnt@pb,w
  1776  0296  0084               	movwf	4
  1777  0297  0800               	movf	0,w
  1778  0298  0084               	movwf	4
  1779  0299  302D               	movlw	45
  1780  029A  0080               	movwf	0
  1781  029B  0844               	movf	__doprnt@pb,w
  1782  029C  0084               	movwf	4
  1783  029D  0A80               	incf	0,f
  1784  029E                     l4864:	
  1785  029E  1283               	bcf	3,5	;RP0=0, select bank0
  1786  029F  1303               	bcf	3,6	;RP1=0, select bank0
  1787  02A0  0843               	movf	__doprnt@c,w
  1788  02A1  00BB               	movwf	__doprnt@prec
  1789  02A2  2AE3               	goto	l4876
  1790  02A3                     l4866:	
  1791  02A3  300A               	movlw	10
  1792  02A4  00B1               	movwf	?___lwmod
  1793  02A5  01B2               	clrf	?___lwmod+1
  1794  02A6  1003               	clrc
  1795  02A7  0D3B               	rlf	__doprnt@prec,w
  1796  02A8  3E01               	addlw	low (_dpowers-__stringbase)
  1797  02A9  0084               	movwf	4
  1798  02AA  120A  118A  2015   	fcall	stringdir
      +       120A  118A         
  1799  02AF  00AA               	movwf	?___lwdiv
  1800  02B0  120A  118A  2015   	fcall	stringdir
      +       120A  118A         
  1801  02B5  00AB               	movwf	?___lwdiv+1
  1802  02B6  083D               	movf	__doprnt@_val+1,w
  1803  02B7  00AD               	movwf	?___lwdiv+3
  1804  02B8  083C               	movf	__doprnt@_val,w
  1805  02B9  00AC               	movwf	?___lwdiv+2
  1806  02BA  2313  120A  118A   	fcall	___lwdiv
  1807  02BD  082B               	movf	?___lwdiv+1,w
  1808  02BE  00B4               	movwf	?___lwmod+3
  1809  02BF  082A               	movf	?___lwdiv,w
  1810  02C0  00B3               	movwf	?___lwmod+2
  1811  02C1  233D  120A  118A   	fcall	___lwmod
  1812  02C4  0831               	movf	?___lwmod,w
  1813  02C5  3E30               	addlw	48
  1814  02C6  00C3               	movwf	__doprnt@c
  1815  02C7  0844               	movf	__doprnt@pb,w
  1816  02C8  3E01               	addlw	1
  1817  02C9  0084               	movwf	4
  1818  02CA  1383               	bcf	3,7	;select IRP bank0
  1819  02CB  0880               	movf	0,f
  1820  02CC  1903               	skipnz
  1821  02CD  2ADA               	goto	l4872
  1822  02CE  0843               	movf	__doprnt@c,w
  1823  02CF  00B3               	movwf	?_putch
  1824  02D0  0844               	movf	__doprnt@pb,w
  1825  02D1  3E01               	addlw	1
  1826  02D2  0084               	movwf	4
  1827  02D3  0800               	movf	0,w
  1828  02D4  120A  118A  2100   	fcall	fptable
      +       120A  118A         
  1829  02D9  2AE3               	goto	l4876
  1830  02DA                     l4872:	
  1831  02DA  0844               	movf	__doprnt@pb,w
  1832  02DB  0084               	movwf	4
  1833  02DC  0800               	movf	0,w
  1834  02DD  0084               	movwf	4
  1835  02DE  0843               	movf	__doprnt@c,w
  1836  02DF  0080               	movwf	0
  1837  02E0  0844               	movf	__doprnt@pb,w
  1838  02E1  0084               	movwf	4
  1839  02E2  0A80               	incf	0,f
  1840  02E3                     l4876:	
  1841  02E3  1283               	bcf	3,5	;RP0=0, select bank0
  1842  02E4  1303               	bcf	3,6	;RP1=0, select bank0
  1843  02E5  03BB               	decf	__doprnt@prec,f
  1844  02E6  0F3B               	incfsz	__doprnt@prec,w
  1845  02E7  2AA3               	goto	l4866
  1846  02E8  291A               	goto	l4878
  1847  02E9                     l4880:	
  1848  02E9  01B6               	clrf	?__doprnt
  1849  02EA  01B7               	clrf	?__doprnt+1
  1850  02EB  0008               	return
  1851  02EC                     __end_of__doprnt:	
  1852  02EC                     __ptext418:	
  1853 ;; =============== function ___wmul ends ============
  1854                           
  1855                           
  1856 ;; *************** function _isdigit *****************
  1857 ;; Defined at:
  1858 ;;		line 13 in file "C:\Program Files (x86)\HI-TECH Software\PICC\9.83\sources\isdigit.c"
  1859 ;; Parameters:    Size  Location     Type
  1860 ;;  c               1    wreg     unsigned char 
  1861 ;; Auto vars:     Size  Location     Type
  1862 ;;  c               1   11[BANK0 ] unsigned char 
  1863 ;; Return value:  Size  Location     Type
  1864 ;;		None               void
  1865 ;; Registers used:
  1866 ;;		wreg, status,2, status,0
  1867 ;; Tracked objects:
  1868 ;;		On entry : 60/0
  1869 ;;		On exit  : 60/0
  1870 ;;		Unchanged: FFF9F/0
  1871 ;; Data sizes:     COMMON   BANK0   BANK1   BANK3   BANK2
  1872 ;;      Params:         0       0       0       0       0
  1873 ;;      Locals:         0       2       0       0       0
  1874 ;;      Temps:          0       0       0       0       0
  1875 ;;      Totals:         0       2       0       0       0
  1876 ;;Total ram usage:        2 bytes
  1877 ;; Hardware stack levels used:    1
  1878 ;; Hardware stack levels required when called:    3
  1879 ;; This function calls:
  1880 ;;		Nothing
  1881 ;; This function is called by:
  1882 ;;		__doprnt
  1883 ;; This function uses a non-reentrant model
  1884 ;;
  1885  02EC                     _isdigit:	
  1886                           
  1887                           ; Regs used in _isdigit: [wreg+status,2+status,0]
  1888                           ;isdigit@c stored from wreg
  1889  02EC  00AB               	movwf	isdigit@c
  1890  02ED  303A               	movlw	58
  1891  02EE  01AA               	clrf	_isdigit$3700
  1892  02EF  022B               	subwf	isdigit@c,w
  1893  02F0  1803               	skipnc
  1894  02F1  2AF8               	goto	l4452
  1895  02F2  3030               	movlw	48
  1896  02F3  022B               	subwf	isdigit@c,w
  1897  02F4  1C03               	skipc
  1898  02F5  2AF8               	goto	l4452
  1899  02F6  01AA               	clrf	_isdigit$3700
  1900  02F7  0AAA               	incf	_isdigit$3700,f
  1901  02F8                     l4452:	
  1902  02F8  0C2A               	rrf	_isdigit$3700,w
  1903  02F9  0008               	return
  1904  02FA                     __end_of_isdigit:	
  1905  02FA                     __ptext417:	
  1906 ;; =============== function ___lwdiv ends ============
  1907                           
  1908                           
  1909 ;; *************** function ___wmul *****************
  1910 ;; Defined at:
  1911 ;;		line 3 in file "C:\Program Files (x86)\HI-TECH Software\PICC\9.83\sources\wmul.c"
  1912 ;; Parameters:    Size  Location     Type
  1913 ;;  multiplier      2   10[BANK0 ] unsigned int 
  1914 ;;  multiplicand    2   12[BANK0 ] unsigned int 
  1915 ;; Auto vars:     Size  Location     Type
  1916 ;;  product         2   14[BANK0 ] unsigned int 
  1917 ;; Return value:  Size  Location     Type
  1918 ;;                  2   10[BANK0 ] unsigned int 
  1919 ;; Registers used:
  1920 ;;		wreg, status,2, status,0
  1921 ;; Tracked objects:
  1922 ;;		On entry : 60/0
  1923 ;;		On exit  : 60/0
  1924 ;;		Unchanged: FFF9F/0
  1925 ;; Data sizes:     COMMON   BANK0   BANK1   BANK3   BANK2
  1926 ;;      Params:         0       4       0       0       0
  1927 ;;      Locals:         0       2       0       0       0
  1928 ;;      Temps:          0       0       0       0       0
  1929 ;;      Totals:         0       6       0       0       0
  1930 ;;Total ram usage:        6 bytes
  1931 ;; Hardware stack levels used:    1
  1932 ;; Hardware stack levels required when called:    3
  1933 ;; This function calls:
  1934 ;;		Nothing
  1935 ;; This function is called by:
  1936 ;;		__doprnt
  1937 ;; This function uses a non-reentrant model
  1938 ;;
  1939  02FA                     ___wmul:	
  1940                           
  1941                           ; Regs used in ___wmul: [wreg+status,2+status,0]
  1942  02FA  01AE               	clrf	___wmul@product
  1943  02FB  01AF               	clrf	___wmul@product+1
  1944  02FC                     l4458:	
  1945  02FC  1C2A               	btfss	___wmul@multiplier,0
  1946  02FD  2B04               	goto	l4462
  1947  02FE  082C               	movf	___wmul@multiplicand,w
  1948  02FF  07AE               	addwf	___wmul@product,f
  1949  0300  1803               	skipnc
  1950  0301  0AAF               	incf	___wmul@product+1,f
  1951  0302  082D               	movf	___wmul@multiplicand+1,w
  1952  0303  07AF               	addwf	___wmul@product+1,f
  1953  0304                     l4462:	
  1954  0304  1003               	clrc
  1955  0305  0DAC               	rlf	___wmul@multiplicand,f
  1956  0306  0DAD               	rlf	___wmul@multiplicand+1,f
  1957  0307  1003               	clrc
  1958  0308  0CAB               	rrf	___wmul@multiplier+1,f
  1959  0309  0CAA               	rrf	___wmul@multiplier,f
  1960  030A  082B               	movf	___wmul@multiplier+1,w
  1961  030B  042A               	iorwf	___wmul@multiplier,w
  1962  030C  1D03               	skipz
  1963  030D  2AFC               	goto	l4458
  1964  030E  082F               	movf	___wmul@product+1,w
  1965  030F  00AB               	movwf	?___wmul+1
  1966  0310  082E               	movf	___wmul@product,w
  1967  0311  00AA               	movwf	?___wmul
  1968  0312  0008               	return
  1969  0313                     __end_of___wmul:	
  1970  0313                     __ptext416:	
  1971 ;; =============== function ___lwmod ends ============
  1972                           
  1973                           
  1974 ;; *************** function ___lwdiv *****************
  1975 ;; Defined at:
  1976 ;;		line 5 in file "C:\Program Files (x86)\HI-TECH Software\PICC\9.83\sources\lwdiv.c"
  1977 ;; Parameters:    Size  Location     Type
  1978 ;;  divisor         2   10[BANK0 ] unsigned int 
  1979 ;;  dividend        2   12[BANK0 ] unsigned int 
  1980 ;; Auto vars:     Size  Location     Type
  1981 ;;  quotient        2   14[BANK0 ] unsigned int 
  1982 ;;  counter         1   16[BANK0 ] unsigned char 
  1983 ;; Return value:  Size  Location     Type
  1984 ;;                  2   10[BANK0 ] unsigned int 
  1985 ;; Registers used:
  1986 ;;		wreg, status,2, status,0
  1987 ;; Tracked objects:
  1988 ;;		On entry : 60/0
  1989 ;;		On exit  : 60/0
  1990 ;;		Unchanged: FFF9F/0
  1991 ;; Data sizes:     COMMON   BANK0   BANK1   BANK3   BANK2
  1992 ;;      Params:         0       4       0       0       0
  1993 ;;      Locals:         0       3       0       0       0
  1994 ;;      Temps:          0       0       0       0       0
  1995 ;;      Totals:         0       7       0       0       0
  1996 ;;Total ram usage:        7 bytes
  1997 ;; Hardware stack levels used:    1
  1998 ;; Hardware stack levels required when called:    3
  1999 ;; This function calls:
  2000 ;;		Nothing
  2001 ;; This function is called by:
  2002 ;;		__doprnt
  2003 ;; This function uses a non-reentrant model
  2004 ;;
  2005  0313                     ___lwdiv:	
  2006                           
  2007                           ; Regs used in ___lwdiv: [wreg+status,2+status,0]
  2008  0313  01AE               	clrf	___lwdiv@quotient
  2009  0314  01AF               	clrf	___lwdiv@quotient+1
  2010  0315  082B               	movf	___lwdiv@divisor+1,w
  2011  0316  042A               	iorwf	___lwdiv@divisor,w
  2012  0317  1903               	skipnz
  2013  0318  2B38               	goto	l4494
  2014  0319  01B0               	clrf	___lwdiv@counter
  2015  031A                     L4:	
  2016  031A  0AB0               	incf	___lwdiv@counter,f
  2017  031B  1BAB               	btfsc	___lwdiv@divisor+1,7
  2018  031C  2B21               	goto	l4482
  2019  031D  1003               	clrc
  2020  031E  0DAA               	rlf	___lwdiv@divisor,f
  2021  031F  0DAB               	rlf	___lwdiv@divisor+1,f
  2022  0320  2B1A               	goto	L4
  2023  0321                     l4482:	
  2024  0321  1003               	clrc
  2025  0322  0DAE               	rlf	___lwdiv@quotient,f
  2026  0323  0DAF               	rlf	___lwdiv@quotient+1,f
  2027  0324  082B               	movf	___lwdiv@divisor+1,w
  2028  0325  022D               	subwf	___lwdiv@dividend+1,w
  2029  0326  1D03               	skipz
  2030  0327  2B2A               	goto	u1205
  2031  0328  082A               	movf	___lwdiv@divisor,w
  2032  0329  022C               	subwf	___lwdiv@dividend,w
  2033  032A                     u1205:	
  2034  032A  1C03               	skipc
  2035  032B  2B34               	goto	L5
  2036  032C  082A               	movf	___lwdiv@divisor,w
  2037  032D  02AC               	subwf	___lwdiv@dividend,f
  2038  032E  082B               	movf	___lwdiv@divisor+1,w
  2039  032F  1C03               	skipc
  2040  0330  03AD               	decf	___lwdiv@dividend+1,f
  2041  0331  02AD               	subwf	___lwdiv@dividend+1,f
  2042  0332  142E               	bsf	___lwdiv@quotient,0
  2043  0333  1003               	clrc
  2044  0334                     L5:	
  2045  0334  0CAB               	rrf	___lwdiv@divisor+1,f
  2046  0335  0CAA               	rrf	___lwdiv@divisor,f
  2047  0336  0BB0               	decfsz	___lwdiv@counter,f
  2048  0337  2B21               	goto	l4482
  2049  0338                     l4494:	
  2050  0338  082F               	movf	___lwdiv@quotient+1,w
  2051  0339  00AB               	movwf	?___lwdiv+1
  2052  033A  082E               	movf	___lwdiv@quotient,w
  2053  033B  00AA               	movwf	?___lwdiv
  2054  033C  0008               	return
  2055  033D                     __end_of___lwdiv:	
  2056  033D                     __ptext415:	
  2057 ;; =============== function _lcd_put_byte ends ============
  2058                           
  2059                           
  2060 ;; *************** function ___lwmod *****************
  2061 ;; Defined at:
  2062 ;;		line 5 in file "C:\Program Files (x86)\HI-TECH Software\PICC\9.83\sources\lwmod.c"
  2063 ;; Parameters:    Size  Location     Type
  2064 ;;  divisor         2   17[BANK0 ] unsigned int 
  2065 ;;  dividend        2   19[BANK0 ] unsigned int 
  2066 ;; Auto vars:     Size  Location     Type
  2067 ;;  counter         1   21[BANK0 ] unsigned char 
  2068 ;; Return value:  Size  Location     Type
  2069 ;;                  2   17[BANK0 ] unsigned int 
  2070 ;; Registers used:
  2071 ;;		wreg, status,2, status,0
  2072 ;; Tracked objects:
  2073 ;;		On entry : 60/0
  2074 ;;		On exit  : 60/0
  2075 ;;		Unchanged: FFF9F/0
  2076 ;; Data sizes:     COMMON   BANK0   BANK1   BANK3   BANK2
  2077 ;;      Params:         0       4       0       0       0
  2078 ;;      Locals:         0       1       0       0       0
  2079 ;;      Temps:          0       0       0       0       0
  2080 ;;      Totals:         0       5       0       0       0
  2081 ;;Total ram usage:        5 bytes
  2082 ;; Hardware stack levels used:    1
  2083 ;; Hardware stack levels required when called:    3
  2084 ;; This function calls:
  2085 ;;		Nothing
  2086 ;; This function is called by:
  2087 ;;		__doprnt
  2088 ;; This function uses a non-reentrant model
  2089 ;;
  2090  033D                     ___lwmod:	
  2091                           
  2092                           ; Regs used in ___lwmod: [wreg+status,2+status,0]
  2093  033D  0832               	movf	___lwmod@divisor+1,w
  2094  033E  0431               	iorwf	___lwmod@divisor,w
  2095  033F  1903               	skipnz
  2096  0340  2B5C               	goto	l4514
  2097  0341  01B5               	clrf	___lwmod@counter
  2098  0342                     L2:	
  2099  0342  0AB5               	incf	___lwmod@counter,f
  2100  0343  1BB2               	btfsc	___lwmod@divisor+1,7
  2101  0344  2B49               	goto	l4506
  2102  0345  1003               	clrc
  2103  0346  0DB1               	rlf	___lwmod@divisor,f
  2104  0347  0DB2               	rlf	___lwmod@divisor+1,f
  2105  0348  2B42               	goto	L2
  2106  0349                     l4506:	
  2107  0349  0832               	movf	___lwmod@divisor+1,w
  2108  034A  0234               	subwf	___lwmod@dividend+1,w
  2109  034B  1D03               	skipz
  2110  034C  2B4F               	goto	u1245
  2111  034D  0831               	movf	___lwmod@divisor,w
  2112  034E  0233               	subwf	___lwmod@dividend,w
  2113  034F                     u1245:	
  2114  034F  1C03               	skipc
  2115  0350  2B58               	goto	L3
  2116  0351  0831               	movf	___lwmod@divisor,w
  2117  0352  02B3               	subwf	___lwmod@dividend,f
  2118  0353  0832               	movf	___lwmod@divisor+1,w
  2119  0354  1C03               	skipc
  2120  0355  03B4               	decf	___lwmod@dividend+1,f
  2121  0356  02B4               	subwf	___lwmod@dividend+1,f
  2122  0357  1003               	clrc
  2123  0358                     L3:	
  2124  0358  0CB2               	rrf	___lwmod@divisor+1,f
  2125  0359  0CB1               	rrf	___lwmod@divisor,f
  2126  035A  0BB5               	decfsz	___lwmod@counter,f
  2127  035B  2B49               	goto	l4506
  2128  035C                     l4514:	
  2129  035C  0834               	movf	___lwmod@dividend+1,w
  2130  035D  00B2               	movwf	?___lwmod+1
  2131  035E  0833               	movf	___lwmod@dividend,w
  2132  035F  00B1               	movwf	?___lwmod
  2133  0360  0008               	return
  2134  0361                     __end_of___lwmod:	
  2135                           
  2136                           	psect	text408
  2137  0361                     __ptext408:	
  2138 ;; =============== function __doprnt ends ============
  2139                           
  2140                           
  2141 ;; *************** function _putch *****************
  2142 ;; Defined at:
  2143 ;;		line 114 in file "D:\TTVXL\Project TTVXL\BT Ôn Thi 05\BT Ôn Thi 05.c"
  2144 ;; Parameters:    Size  Location     Type
  2145 ;;  c               1   19[BANK0 ] unsigned char 
  2146 ;; Auto vars:     Size  Location     Type
  2147 ;;		None
  2148 ;; Return value:  Size  Location     Type
  2149 ;;		None               void
  2150 ;; Registers used:
  2151 ;;		wreg, fsr0l, fsr0h, status,2, status,0, pclath, cstack
  2152 ;; Tracked objects:
  2153 ;;		On entry : 160/0
  2154 ;;		On exit  : 60/0
  2155 ;;		Unchanged: 0/0
  2156 ;; Data sizes:     COMMON   BANK0   BANK1   BANK3   BANK2
  2157 ;;      Params:         0       1       0       0       0
  2158 ;;      Locals:         0       0       0       0       0
  2159 ;;      Temps:          0       0       0       0       0
  2160 ;;      Totals:         0       1       0       0       0
  2161 ;;Total ram usage:        1 bytes
  2162 ;; Hardware stack levels used:    1
  2163 ;; Hardware stack levels required when called:    6
  2164 ;; This function calls:
  2165 ;;		_lcd_putc
  2166 ;; This function is called by:
  2167 ;;		_printf
  2168 ;;		__doprnt
  2169 ;; This function uses a non-reentrant model
  2170 ;;
  2171  0361                     _putch:	
  2172                           
  2173                           ;BT Ôn Thi 05.c: 115: lcd_putc(c);
  2174                           
  2175 ;; hardware stack exceeded
  2176                           ; Regs used in _putch: [wreg-fsr0h+status,2+status,0+pclath+cstack]
  2177  0361  0833               	movf	putch@c,w
  2178  0362  2BB7               	ljmp	_lcd_putc
  2179  0363                     __end_of_putch:	
  2180  0363                     __ptext404:	
  2181 ;; =============== function _main ends ============
  2182                           
  2183                           
  2184 ;; *************** function _lcd_counter *****************
  2185 ;; Defined at:
  2186 ;;		line 25 in file "D:\TTVXL\Project TTVXL\BT Ôn Thi 05\BT Ôn Thi 05.c"
  2187 ;; Parameters:    Size  Location     Type
  2188 ;;		None
  2189 ;; Auto vars:     Size  Location     Type
  2190 ;;		None
  2191 ;; Return value:  Size  Location     Type
  2192 ;;		None               void
  2193 ;; Registers used:
  2194 ;;		wreg, fsr0l, fsr0h, status,2, status,0, btemp+1, pclath, cstack
  2195 ;; Tracked objects:
  2196 ;;		On entry : 60/0
  2197 ;;		On exit  : 60/0
  2198 ;;		Unchanged: 0/0
  2199 ;; Data sizes:     COMMON   BANK0   BANK1   BANK3   BANK2
  2200 ;;      Params:         0       0       0       0       0
  2201 ;;      Locals:         0       0       0       0       0
  2202 ;;      Temps:          0       0       0       0       0
  2203 ;;      Totals:         0       0       0       0       0
  2204 ;;Total ram usage:        0 bytes
  2205 ;; Hardware stack levels used:    1
  2206 ;; Hardware stack levels required when called:    9
  2207 ;; This function calls:
  2208 ;;		_lcd_gotoxy
  2209 ;;		_printf
  2210 ;;		_lcd_put_byte
  2211 ;; This function is called by:
  2212 ;;		_main
  2213 ;; This function uses a non-reentrant model
  2214 ;;
  2215  0363                     _lcd_counter:	
  2216                           
  2217 ;; hardware stack exceeded
  2218                           ; Regs used in _lcd_counter: [wreg-fsr0h+status,2+status,0+btemp+1+pclath+cstack]
  2219  0363  3003               	movlw	3
  2220                           
  2221                           ;BT Ôn Thi 05.c: 26: lcd_gotoxy(3,1);
  2222  0364  01AF               	clrf	?_lcd_gotoxy
  2223  0365  0AAF               	incf	?_lcd_gotoxy,f
  2224  0366  2391  120A  118A   	fcall	_lcd_gotoxy
  2225                           
  2226                           ;BT Ôn Thi 05.c: 27: printf("%02dh",h);
  2227  0369  0852               	movf	_h+1,w
  2228  036A  00C6               	movwf	?_printf+1
  2229  036B  0851               	movf	_h,w
  2230  036C  00C5               	movwf	?_printf
  2231  036D  303D               	movlw	(STR_1-__stringbase)& (0+255)
  2232  036E  23A9  120A  118A   	fcall	_printf
  2233  0371  3006               	movlw	6
  2234                           
  2235                           ;BT Ôn Thi 05.c: 28: lcd_gotoxy(6,1);
  2236  0372  01AF               	clrf	?_lcd_gotoxy
  2237  0373  0AAF               	incf	?_lcd_gotoxy,f
  2238  0374  2391  120A  118A   	fcall	_lcd_gotoxy
  2239                           
  2240                           ;BT Ôn Thi 05.c: 29: printf(":%02dm",m);
  2241  0377  0854               	movf	_m+1,w
  2242  0378  00C6               	movwf	?_printf+1
  2243  0379  0853               	movf	_m,w
  2244  037A  00C5               	movwf	?_printf
  2245  037B  302F               	movlw	(STR_2-__stringbase)& (0+255)
  2246  037C  23A9  120A  118A   	fcall	_printf
  2247  037F  300A               	movlw	10
  2248                           
  2249                           ;BT Ôn Thi 05.c: 30: lcd_gotoxy(10,1);
  2250  0380  01AF               	clrf	?_lcd_gotoxy
  2251  0381  0AAF               	incf	?_lcd_gotoxy,f
  2252  0382  2391  120A  118A   	fcall	_lcd_gotoxy
  2253                           
  2254                           ;BT Ôn Thi 05.c: 31: printf(":%02ds",s);
  2255  0385  0858               	movf	_s+1,w
  2256  0386  00C6               	movwf	?_printf+1
  2257  0387  0857               	movf	_s,w
  2258  0388  00C5               	movwf	?_printf
  2259  0389  3036               	movlw	(STR_3-__stringbase)& (0+255)
  2260  038A  23A9  120A  118A   	fcall	_printf
  2261  038D  3001               	movlw	1
  2262                           
  2263                           ;BT Ôn Thi 05.c: 32: lcd_put_byte(1,1);
  2264  038E  01AA               	clrf	?_lcd_put_byte
  2265  038F  0AAA               	incf	?_lcd_put_byte,f
  2266  0390  2CA4               	ljmp	_lcd_put_byte
  2267  0391                     __end_of_lcd_counter:	
  2268  0391                     __ptext411:	
  2269 ;; =============== function _lcd_init ends ============
  2270                           
  2271                           
  2272 ;; *************** function _lcd_gotoxy *****************
  2273 ;; Defined at:
  2274 ;;		line 162 in file "D:\TTVXL\Library\lcd(16).c"
  2275 ;; Parameters:    Size  Location     Type
  2276 ;;  col             1    wreg     unsigned char 
  2277 ;;  row             1   15[BANK0 ] unsigned char 
  2278 ;; Auto vars:     Size  Location     Type
  2279 ;;  col             1   16[BANK0 ] unsigned char 
  2280 ;;  address         1   17[BANK0 ] unsigned char 
  2281 ;; Return value:  Size  Location     Type
  2282 ;;		None               void
  2283 ;; Registers used:
  2284 ;;		wreg, status,2, status,0, pclath, cstack
  2285 ;; Tracked objects:
  2286 ;;		On entry : 60/0
  2287 ;;		On exit  : 60/0
  2288 ;;		Unchanged: 0/0
  2289 ;; Data sizes:     COMMON   BANK0   BANK1   BANK3   BANK2
  2290 ;;      Params:         0       1       0       0       0
  2291 ;;      Locals:         0       2       0       0       0
  2292 ;;      Temps:          0       0       0       0       0
  2293 ;;      Totals:         0       3       0       0       0
  2294 ;;Total ram usage:        3 bytes
  2295 ;; Hardware stack levels used:    1
  2296 ;; Hardware stack levels required when called:    4
  2297 ;; This function calls:
  2298 ;;		_lcd_put_byte
  2299 ;;		_lcd_busy
  2300 ;; This function is called by:
  2301 ;;		_lcd_counter
  2302 ;;		_main
  2303 ;;		_lcd_putc
  2304 ;; This function uses a non-reentrant model
  2305 ;;
  2306  0391                     _lcd_gotoxy:	
  2307                           
  2308 ;; hardware stack exceeded
  2309                           ; Regs used in _lcd_gotoxy: [wreg+status,2+status,0+pclath+cstack]
  2310                           ;lcd_gotoxy@col stored from wreg
  2311  0391  00B0               	movwf	lcd_gotoxy@col
  2312                           
  2313                           ;lcd(16).c: 163: unsigned char address;
  2314                           ;lcd(16).c: 165: if(row!=0)
  2315  0392  082F               	movf	lcd_gotoxy@row,w
  2316  0393  1903               	btfsc	3,2
  2317  0394  2B98               	goto	l4686
  2318                           
  2319                           ;lcd(16).c: 166: address=0x40;
  2320  0395  3040               	movlw	64
  2321  0396  00B1               	movwf	lcd_gotoxy@address
  2322  0397  2B99               	goto	l4688
  2323  0398                     l4686:	
  2324                           
  2325                           ;lcd(16).c: 167: else
  2326                           ;lcd(16).c: 168: address=0;
  2327  0398  01B1               	clrf	lcd_gotoxy@address
  2328  0399                     l4688:	
  2329                           
  2330                           ;lcd(16).c: 170: address += col;
  2331  0399  0830               	movf	lcd_gotoxy@col,w
  2332  039A  07B1               	addwf	lcd_gotoxy@address,f
  2333                           
  2334                           ;lcd(16).c: 171: lcd_put_byte(0,0x80|address);
  2335  039B  0831               	movf	lcd_gotoxy@address,w
  2336  039C  3880               	iorlw	128
  2337  039D  00AA               	movwf	?_lcd_put_byte
  2338  039E  3000               	movlw	0
  2339  039F  24A4  120A  118A   	fcall	_lcd_put_byte
  2340  03A2                     l4692:	
  2341                           ;lcd(16).c: 172: while(lcd_busy());
  2342                           
  2343  03A2  2533  120A  118A   	fcall	_lcd_busy
  2344  03A5  3800               	iorlw	0
  2345  03A6  1903               	btfsc	3,2
  2346  03A7  0008               	return
  2347  03A8  2BA2               	goto	l4692
  2348  03A9                     __end_of_lcd_gotoxy:	
  2349  03A9                     __ptext406:	
  2350 ;; =============== function _sprintf ends ============
  2351                           
  2352                           
  2353 ;; *************** function _printf *****************
  2354 ;; Defined at:
  2355 ;;		line 14 in file "C:\Program Files (x86)\HI-TECH Software\PICC\9.83\sources\printf.c"
  2356 ;; Parameters:    Size  Location     Type
  2357 ;;  f               1    wreg     PTR const unsigned char 
  2358 ;;		 -> STR_4(17), STR_3(7), STR_2(7), STR_1(6), 
  2359 ;; Auto vars:     Size  Location     Type
  2360 ;;  f               1   39[BANK0 ] PTR const unsigned char 
  2361 ;;		 -> STR_4(17), STR_3(7), STR_2(7), STR_1(6), 
  2362 ;;  pb              2   41[BANK0 ] struct __prbuf
  2363 ;;  ap              1   40[BANK0 ] PTR void [1]
  2364 ;;		 -> ?_sprintf(2), ?_printf(2), 
  2365 ;; Return value:  Size  Location     Type
  2366 ;;                  2   37[BANK0 ] int 
  2367 ;; Registers used:
  2368 ;;		wreg, fsr0l, fsr0h, status,2, status,0, btemp+1, pclath, cstack
  2369 ;; Tracked objects:
  2370 ;;		On entry : 60/0
  2371 ;;		On exit  : 60/0
  2372 ;;		Unchanged: 0/0
  2373 ;; Data sizes:     COMMON   BANK0   BANK1   BANK3   BANK2
  2374 ;;      Params:         0       2       0       0       0
  2375 ;;      Locals:         0       4       0       0       0
  2376 ;;      Temps:          0       0       0       0       0
  2377 ;;      Totals:         0       6       0       0       0
  2378 ;;Total ram usage:        6 bytes
  2379 ;; Hardware stack levels used:    1
  2380 ;; Hardware stack levels required when called:    8
  2381 ;; This function calls:
  2382 ;;		__doprnt
  2383 ;; This function is called by:
  2384 ;;		_lcd_counter
  2385 ;;		_main
  2386 ;; This function uses a non-reentrant model
  2387 ;;
  2388  03A9                     _printf:	
  2389                           
  2390 ;; hardware stack exceeded
  2391                           ; Regs used in _printf: [wreg-fsr0h+status,2+status,0+btemp+1+pclath+cstack]
  2392                           ;printf@f stored from wreg
  2393  03A9  00C7               	movwf	printf@f
  2394  03AA  3001               	movlw	(fp__putch-fpbase)& (0+255)
  2395  03AB  01C9               	clrf	printf@pb
  2396  03AC  00CA               	movwf	printf@pb+1
  2397  03AD  3045               	movlw	?_printf& (0+255)
  2398  03AE  00C8               	movwf	printf@ap
  2399                           
  2400                           ;	Return value of _printf is never used
  2401  03AF  0847               	movf	printf@f,w
  2402  03B0  00B6               	movwf	?__doprnt
  2403  03B1  3048               	movlw	printf@ap& (0+255)
  2404  03B2  00B7               	movwf	?__doprnt+1
  2405  03B3  3049               	movlw	printf@pb& (0+255)
  2406  03B4  120A  118A  2919   	ljmp	__doprnt
  2407  03B7                     __end_of_printf:	
  2408  03B7                     __ptext409:	
  2409 ;; =============== function _putch ends ============
  2410                           
  2411                           
  2412 ;; *************** function _lcd_putc *****************
  2413 ;; Defined at:
  2414 ;;		line 143 in file "D:\TTVXL\Library\lcd(16).c"
  2415 ;; Parameters:    Size  Location     Type
  2416 ;;  c               1    wreg     unsigned char 
  2417 ;; Auto vars:     Size  Location     Type
  2418 ;;  c               1   18[BANK0 ] unsigned char 
  2419 ;; Return value:  Size  Location     Type
  2420 ;;		None               void
  2421 ;; Registers used:
  2422 ;;		wreg, fsr0l, fsr0h, status,2, status,0, pclath, cstack
  2423 ;; Tracked objects:
  2424 ;;		On entry : 160/0
  2425 ;;		On exit  : 60/0
  2426 ;;		Unchanged: 0/0
  2427 ;; Data sizes:     COMMON   BANK0   BANK1   BANK3   BANK2
  2428 ;;      Params:         0       0       0       0       0
  2429 ;;      Locals:         0       1       0       0       0
  2430 ;;      Temps:          0       0       0       0       0
  2431 ;;      Totals:         0       1       0       0       0
  2432 ;;Total ram usage:        1 bytes
  2433 ;; Hardware stack levels used:    1
  2434 ;; Hardware stack levels required when called:    5
  2435 ;; This function calls:
  2436 ;;		_lcd_put_byte
  2437 ;;		_lcd_busy
  2438 ;;		_lcd_gotoxy
  2439 ;;		_isprint
  2440 ;; This function is called by:
  2441 ;;		_putch
  2442 ;; This function uses a non-reentrant model
  2443 ;;
  2444  03B7                     _lcd_putc:	
  2445                           
  2446 ;; hardware stack exceeded
  2447                           ; Regs used in _lcd_putc: [wreg-fsr0h+status,2+status,0+pclath+cstack]
  2448                           ;lcd_putc@c stored from wreg
  2449  03B7  00B2               	movwf	lcd_putc@c
  2450                           
  2451                           ;lcd(16).c: 144: switch(c){
  2452  03B8  2BDD               	goto	l4748
  2453  03B9                     l4734:	
  2454  03B9  3000               	movlw	0
  2455                           
  2456                           ;lcd(16).c: 146: lcd_put_byte(0, 1);
  2457  03BA  01AA               	clrf	?_lcd_put_byte
  2458  03BB  0AAA               	incf	?_lcd_put_byte,f
  2459  03BC  24A4  120A  118A   	fcall	_lcd_put_byte
  2460  03BF                     l4736:	
  2461                           ;lcd(16).c: 147: while(lcd_busy());
  2462                           
  2463  03BF  2533  120A  118A   	fcall	_lcd_busy
  2464  03C2  3800               	iorlw	0
  2465  03C3  1903               	btfsc	3,2
  2466  03C4  0008               	return
  2467  03C5  2BBF               	goto	l4736
  2468  03C6                     l4738:	
  2469  03C6  3000               	movlw	0
  2470                           
  2471                           ;lcd(16).c: 150: lcd_gotoxy(0, 1);
  2472  03C7  01AF               	clrf	?_lcd_gotoxy
  2473  03C8  0AAF               	incf	?_lcd_gotoxy,f
  2474  03C9  2B91               	ljmp	_lcd_gotoxy
  2475  03CA                     l4740:	
  2476                           ;lcd(16).c: 151: break;
  2477                           
  2478                           
  2479                           ;lcd(16).c: 153: if(isprint(c)){
  2480  03CA  0832               	movf	lcd_putc@c,w
  2481  03CB  255E  120A  118A   	fcall	_isprint
  2482  03CE  1C03               	btfss	3,0
  2483  03CF  0008               	return
  2484                           
  2485                           ;lcd(16).c: 154: lcd_put_byte(1, c);
  2486  03D0  0832               	movf	lcd_putc@c,w
  2487  03D1  00AA               	movwf	?_lcd_put_byte
  2488  03D2  3001               	movlw	1
  2489  03D3  24A4  120A  118A   	fcall	_lcd_put_byte
  2490  03D6                     l4744:	
  2491                           ;lcd(16).c: 155: while(lcd_busy());
  2492                           
  2493  03D6  2533  120A  118A   	fcall	_lcd_busy
  2494  03D9  3800               	iorlw	0
  2495  03DA  1903               	btfsc	3,2
  2496  03DB  0008               	return
  2497  03DC  2BD6               	goto	l4744
  2498  03DD                     l4748:	
  2499  03DD  0832               	movf	lcd_putc@c,w
  2500                           
  2501                           ; Switch size 1, requested type "space"
  2502                           ; Number of cases is 2, Range of values is 10 to 12
  2503                           ; switch strategies available:
  2504                           ; Name         Instructions Cycles
  2505                           ; simple_byte            7     4 (average)
  2506                           ; direct_byte           20    11 (fixed)
  2507                           ; jumptable            263     9 (fixed)
  2508                           ;	Chosen strategy is simple_byte
  2509  03DE  3A0A               	xorlw	10	; case 10
  2510  03DF  1903               	skipnz
  2511  03E0  2BC6               	goto	l4738
  2512  03E1  3A06               	xorlw	6	; case 12
  2513  03E2  1903               	skipnz
  2514  03E3  2BB9               	goto	l4734
  2515  03E4  2BCA               	goto	l4740
  2516  03E5  0008               	return
  2517  03E6                     __end_of_lcd_putc:	
  2518  03E6                     __ptext410:	
  2519 ;; =============== function _lcd_putc ends ============
  2520                           
  2521                           
  2522 ;; *************** function _lcd_init *****************
  2523 ;; Defined at:
  2524 ;;		line 5 in file "D:\TTVXL\Library\lcd(16).c"
  2525 ;; Parameters:    Size  Location     Type
  2526 ;;		None
  2527 ;; Auto vars:     Size  Location     Type
  2528 ;;  i               1    0        unsigned char 
  2529 ;; Return value:  Size  Location     Type
  2530 ;;		None               void
  2531 ;; Registers used:
  2532 ;;		wreg, status,2, status,0, pclath, cstack
  2533 ;; Tracked objects:
  2534 ;;		On entry : 17F/60
  2535 ;;		On exit  : 60/0
  2536 ;;		Unchanged: 0/0
  2537 ;; Data sizes:     COMMON   BANK0   BANK1   BANK3   BANK2
  2538 ;;      Params:         0       0       0       0       0
  2539 ;;      Locals:         0       0       0       0       0
  2540 ;;      Temps:          0       3       0       0       0
  2541 ;;      Totals:         0       3       0       0       0
  2542 ;;Total ram usage:        3 bytes
  2543 ;; Hardware stack levels used:    1
  2544 ;; Hardware stack levels required when called:    4
  2545 ;; This function calls:
  2546 ;;		_lcd_put_byte
  2547 ;;		_lcd_busy
  2548 ;; This function is called by:
  2549 ;;		_main
  2550 ;; This function uses a non-reentrant model
  2551 ;;
  2552  03E6                     _lcd_init:	
  2553                           
  2554                           ;lcd(16).c: 6: unsigned char i;
  2555                           ;lcd(16).c: 7: TRISD3 = 0;
  2556                           
  2557                           ; Regs used in _lcd_init: [wreg+status,2+status,0+pclath+cstack]
  2558  03E6  1303               	bcf	3,6	;RP1=0, select bank1
  2559  03E7  1188               	bcf	8,3
  2560                           
  2561                           ;lcd(16).c: 8: TRISD1 = 0;
  2562  03E8  1088               	bcf	8,1
  2563                           
  2564                           ;lcd(16).c: 9: TRISD2 = 0;
  2565  03E9  1108               	bcf	8,2
  2566                           
  2567                           ;lcd(16).c: 10: TRISD4 = 0;
  2568  03EA  1208               	bcf	8,4
  2569                           
  2570                           ;lcd(16).c: 11: TRISD5 = 0;
  2571  03EB  1288               	bcf	8,5
  2572                           
  2573                           ;lcd(16).c: 12: TRISD6 = 0;
  2574  03EC  1308               	bcf	8,6
  2575                           
  2576                           ;lcd(16).c: 13: TRISD7 = 0;
  2577  03ED  1388               	bcf	8,7
  2578                           
  2579                           ;lcd(16).c: 14: RD3 = 0;
  2580  03EE  1283               	bcf	3,5	;RP0=0, select bank0
  2581  03EF  3003               	movlw	3
  2582  03F0  1188               	bcf	8,3
  2583                           
  2584                           ;lcd(16).c: 15: RD1 = 0;
  2585  03F1  1088               	bcf	8,1
  2586                           
  2587                           ;lcd(16).c: 16: RD2 = 0;
  2588  03F2  1108               	bcf	8,2
  2589                           
  2590                           ;lcd(16).c: 18: _delay((unsigned long)((100)*(20000000/4000.0)));
  2591  03F3  00B1               	movwf	??_lcd_init+2
  2592  03F4  308A               	movlw	138
  2593  03F5  00B0               	movwf	??_lcd_init+1
  2594  03F6  3056               	movlw	86
  2595  03F7  00AF               	movwf	??_lcd_init
  2596  03F8                     u2187:	
  2597  03F8  0BAF               	decfsz	??_lcd_init,f
  2598  03F9  2BF8               	goto	u2187
  2599  03FA  0BB0               	decfsz	??_lcd_init+1,f
  2600  03FB  2BF8               	goto	u2187
  2601  03FC  0BB1               	decfsz	??_lcd_init+2,f
  2602  03FD  2BF8               	goto	u2187
  2603  03FE  2BFF               	nop2
  2604                           
  2605                           ;lcd(16).c: 21: lcd_put_byte(0,0x30);
  2606  03FF  2573  120A  118A   	fcall	PL3	;call to abstracted procedure
  2607  0402  24A4  120A  118A   	fcall	_lcd_put_byte
  2608                           
  2609                           ;lcd(16).c: 22: _delay((unsigned long)((50)*(20000000/4000.0)));
  2610  0405  3002               	movlw	2
  2611  0406  00B1               	movwf	??_lcd_init+2
  2612  0407  3045               	movlw	69
  2613  0408  00B0               	movwf	??_lcd_init+1
  2614  0409  30A9               	movlw	169
  2615  040A  00AF               	movwf	??_lcd_init
  2616  040B                     u2197:	
  2617  040B  0BAF               	decfsz	??_lcd_init,f
  2618  040C  2C0B               	goto	u2197
  2619  040D  0BB0               	decfsz	??_lcd_init+1,f
  2620  040E  2C0B               	goto	u2197
  2621  040F  0BB1               	decfsz	??_lcd_init+2,f
  2622  0410  2C0B               	goto	u2197
  2623  0411  2C12               	nop2
  2624                           
  2625                           ;lcd(16).c: 23: lcd_put_byte(0,0x30);
  2626  0412  2573  120A  118A   	fcall	PL3	;call to abstracted procedure
  2627  0415  24A4  120A  118A   	fcall	_lcd_put_byte
  2628                           
  2629                           ;lcd(16).c: 24: _delay((unsigned long)((50)*(20000000/4000.0)));
  2630  0418  3002               	movlw	2
  2631  0419  00B1               	movwf	??_lcd_init+2
  2632  041A  3045               	movlw	69
  2633  041B  00B0               	movwf	??_lcd_init+1
  2634  041C  30A9               	movlw	169
  2635  041D  00AF               	movwf	??_lcd_init
  2636  041E                     u2207:	
  2637  041E  0BAF               	decfsz	??_lcd_init,f
  2638  041F  2C1E               	goto	u2207
  2639  0420  0BB0               	decfsz	??_lcd_init+1,f
  2640  0421  2C1E               	goto	u2207
  2641  0422  0BB1               	decfsz	??_lcd_init+2,f
  2642  0423  2C1E               	goto	u2207
  2643  0424  2C25               	nop2
  2644                           
  2645                           ;lcd(16).c: 25: lcd_put_byte(0,0x32);
  2646  0425  3032               	movlw	50
  2647  0426  2578               	call	PL4	;select bank 0
  2648  0427  00AA               	movwf	?_lcd_put_byte
  2649  0428  3000               	movlw	0
  2650  0429  24A4  120A  118A   	fcall	_lcd_put_byte
  2651                           
  2652                           ;lcd(16).c: 26: _delay((unsigned long)((100)*(20000000/4000.0)));
  2653  042C  3003               	movlw	3
  2654  042D  00B1               	movwf	??_lcd_init+2
  2655  042E  308A               	movlw	138
  2656  042F  00B0               	movwf	??_lcd_init+1
  2657  0430  3056               	movlw	86
  2658  0431  00AF               	movwf	??_lcd_init
  2659  0432                     u2217:	
  2660  0432  0BAF               	decfsz	??_lcd_init,f
  2661  0433  2C32               	goto	u2217
  2662  0434  0BB0               	decfsz	??_lcd_init+1,f
  2663  0435  2C32               	goto	u2217
  2664  0436  0BB1               	decfsz	??_lcd_init+2,f
  2665  0437  2C32               	goto	u2217
  2666  0438  2C39               	nop2
  2667                           
  2668                           ;lcd(16).c: 27: _delay((unsigned long)((100)*(20000000/4000.0)));
  2669  0439  3003               	movlw	3
  2670  043A  2578               	call	PL4	;select bank 0
  2671  043B  00B1               	movwf	??_lcd_init+2
  2672  043C  308A               	movlw	138
  2673  043D  00B0               	movwf	??_lcd_init+1
  2674  043E  3056               	movlw	86
  2675  043F  00AF               	movwf	??_lcd_init
  2676  0440                     u2227:	
  2677  0440  0BAF               	decfsz	??_lcd_init,f
  2678  0441  2C40               	goto	u2227
  2679  0442  0BB0               	decfsz	??_lcd_init+1,f
  2680  0443  2C40               	goto	u2227
  2681  0444  0BB1               	decfsz	??_lcd_init+2,f
  2682  0445  2C40               	goto	u2227
  2683  0446  2C47               	nop2
  2684                           
  2685                           ;lcd(16).c: 28: _delay((unsigned long)((100)*(20000000/4000.0)));
  2686  0447  3003               	movlw	3
  2687  0448  2578               	call	PL4	;select bank 0
  2688  0449  00B1               	movwf	??_lcd_init+2
  2689  044A  308A               	movlw	138
  2690  044B  00B0               	movwf	??_lcd_init+1
  2691  044C  3056               	movlw	86
  2692  044D  00AF               	movwf	??_lcd_init
  2693  044E                     u2237:	
  2694  044E  0BAF               	decfsz	??_lcd_init,f
  2695  044F  2C4E               	goto	u2237
  2696  0450  0BB0               	decfsz	??_lcd_init+1,f
  2697  0451  2C4E               	goto	u2237
  2698  0452  0BB1               	decfsz	??_lcd_init+2,f
  2699  0453  2C4E               	goto	u2237
  2700  0454  2C55               	nop2
  2701  0455                     l4706:	
  2702                           ;lcd(16).c: 30: while(lcd_busy());
  2703                           
  2704  0455  2533  120A  118A   	fcall	_lcd_busy
  2705  0458  3800               	iorlw	0
  2706  0459  1D03               	skipz
  2707  045A  2C55               	goto	l4706
  2708                           
  2709                           ;lcd(16).c: 31: lcd_put_byte(0,0b00101100 & 0b00111000);
  2710  045B  3028               	movlw	40
  2711  045C  00AA               	movwf	?_lcd_put_byte
  2712  045D  3000               	movlw	0
  2713  045E  24A4  120A  118A   	fcall	_lcd_put_byte
  2714  0461                     l4710:	
  2715                           ;lcd(16).c: 32: while(lcd_busy());
  2716                           
  2717  0461  2533  120A  118A   	fcall	_lcd_busy
  2718  0464  3800               	iorlw	0
  2719  0465  1D03               	skipz
  2720  0466  2C61               	goto	l4710
  2721                           
  2722                           ;lcd(16).c: 34: lcd_put_byte(0,0b00001011&0b00001101&0b00001110);
  2723  0467  3008               	movlw	8
  2724  0468  00AA               	movwf	?_lcd_put_byte
  2725  0469  3000               	movlw	0
  2726  046A  24A4  120A  118A   	fcall	_lcd_put_byte
  2727  046D                     l4714:	
  2728                           ;lcd(16).c: 35: while(lcd_busy());
  2729                           
  2730  046D  2533  120A  118A   	fcall	_lcd_busy
  2731  0470  3800               	iorlw	0
  2732  0471  1D03               	skipz
  2733  0472  2C6D               	goto	l4714
  2734                           
  2735                           ;lcd(16).c: 36: lcd_put_byte(0,0b00001111&0b00001101&0b00001110);
  2736  0473  300C               	movlw	12
  2737  0474  00AA               	movwf	?_lcd_put_byte
  2738  0475  3000               	movlw	0
  2739  0476  24A4  120A  118A   	fcall	_lcd_put_byte
  2740  0479                     l4718:	
  2741                           ;lcd(16).c: 37: while(lcd_busy());
  2742                           
  2743  0479  2533  120A  118A   	fcall	_lcd_busy
  2744  047C  3800               	iorlw	0
  2745  047D  1D03               	skipz
  2746  047E  2C79               	goto	l4718
  2747  047F  3000               	movlw	0
  2748                           
  2749                           ;lcd(16).c: 39: lcd_put_byte(0,0x01);
  2750  0480  01AA               	clrf	?_lcd_put_byte
  2751  0481  0AAA               	incf	?_lcd_put_byte,f
  2752  0482  24A4  120A  118A   	fcall	_lcd_put_byte
  2753  0485                     l4722:	
  2754                           ;lcd(16).c: 40: while(lcd_busy());
  2755                           
  2756  0485  2533  120A  118A   	fcall	_lcd_busy
  2757  0488  3800               	iorlw	0
  2758  0489  1D03               	skipz
  2759  048A  2C85               	goto	l4722
  2760                           
  2761                           ;lcd(16).c: 41: lcd_put_byte(0,0b00000100);
  2762  048B  3004               	movlw	4
  2763  048C  00AA               	movwf	?_lcd_put_byte
  2764  048D  3000               	movlw	0
  2765  048E  24A4  120A  118A   	fcall	_lcd_put_byte
  2766  0491                     l4726:	
  2767                           ;lcd(16).c: 42: while(lcd_busy());
  2768                           
  2769  0491  2533  120A  118A   	fcall	_lcd_busy
  2770  0494  3800               	iorlw	0
  2771  0495  1D03               	skipz
  2772  0496  2C91               	goto	l4726
  2773  0497  3000               	movlw	0
  2774                           
  2775                           ;lcd(16).c: 43: lcd_put_byte(0,0x01);
  2776  0498  01AA               	clrf	?_lcd_put_byte
  2777  0499  0AAA               	incf	?_lcd_put_byte,f
  2778  049A  24A4  120A  118A   	fcall	_lcd_put_byte
  2779  049D                     l4730:	
  2780                           ;lcd(16).c: 44: while(lcd_busy());
  2781                           
  2782  049D  2533  120A  118A   	fcall	_lcd_busy
  2783  04A0  3800               	iorlw	0
  2784  04A1  1903               	btfsc	3,2
  2785  04A2  0008               	return
  2786  04A3  2C9D               	goto	l4730
  2787  04A4                     __end_of_lcd_init:	
  2788  04A4                     __ptext414:	
  2789 ;; =============== function _send_string ends ============
  2790                           
  2791                           
  2792 ;; *************** function _lcd_put_byte *****************
  2793 ;; Defined at:
  2794 ;;		line 106 in file "D:\TTVXL\Library\lcd(16).c"
  2795 ;; Parameters:    Size  Location     Type
  2796 ;;  rs              1    wreg     unsigned char 
  2797 ;;  b               1   10[BANK0 ] unsigned char 
  2798 ;; Auto vars:     Size  Location     Type
  2799 ;;  rs              1   13[BANK0 ] unsigned char 
  2800 ;;  temp            1   14[BANK0 ] struct _BYTE_VAL
  2801 ;; Return value:  Size  Location     Type
  2802 ;;		None               void
  2803 ;; Registers used:
  2804 ;;		wreg, status,2, status,0
  2805 ;; Tracked objects:
  2806 ;;		On entry : 60/0
  2807 ;;		On exit  : 60/0
  2808 ;;		Unchanged: 0/0
  2809 ;; Data sizes:     COMMON   BANK0   BANK1   BANK3   BANK2
  2810 ;;      Params:         0       1       0       0       0
  2811 ;;      Locals:         0       2       0       0       0
  2812 ;;      Temps:          0       2       0       0       0
  2813 ;;      Totals:         0       5       0       0       0
  2814 ;;Total ram usage:        5 bytes
  2815 ;; Hardware stack levels used:    1
  2816 ;; Hardware stack levels required when called:    3
  2817 ;; This function calls:
  2818 ;;		Nothing
  2819 ;; This function is called by:
  2820 ;;		_lcd_counter
  2821 ;;		_main
  2822 ;;		_lcd_init
  2823 ;;		_lcd_putc
  2824 ;;		_lcd_gotoxy
  2825 ;; This function uses a non-reentrant model
  2826 ;;
  2827  04A4                     _lcd_put_byte:	
  2828                           
  2829                           ; Regs used in _lcd_put_byte: [wreg+status,2+status,0]
  2830                           ;lcd_put_byte@rs stored from wreg
  2831  04A4  00AD               	movwf	lcd_put_byte@rs
  2832                           
  2833                           ;lcd(16).c: 107: BYTE_VAL temp;
  2834                           ;lcd(16).c: 109: TRISD4 = 0;
  2835  04A5  1683               	bsf	3,5	;RP0=1, select bank1
  2836  04A6  1208               	bcf	8,4
  2837                           
  2838                           ;lcd(16).c: 110: TRISD5 = 0;
  2839  04A7  1288               	bcf	8,5
  2840                           
  2841                           ;lcd(16).c: 111: TRISD6 = 0;
  2842  04A8  1308               	bcf	8,6
  2843                           
  2844                           ;lcd(16).c: 112: TRISD7 = 0;
  2845  04A9  1388               	bcf	8,7
  2846                           
  2847                           ;lcd(16).c: 114: RD1 = 0;
  2848  04AA  1283               	bcf	3,5	;RP0=0, select bank0
  2849  04AB  1088               	bcf	8,1
  2850                           
  2851                           ;lcd(16).c: 115: if(rs) RD1 = 1;
  2852  04AC  082D               	movf	lcd_put_byte@rs,w
  2853  04AD  1D03               	skipz
  2854  04AE  1488               	bsf	8,1
  2855                           
  2856                           ;lcd(16).c: 117: _delay((unsigned long)((20)*(20000000/4000000.0)));
  2857  04AF  3021               	movlw	33
  2858  04B0  00AB               	movwf	??_lcd_put_byte
  2859  04B1                     u2287:	
  2860  04B1  0BAB               	decfsz	??_lcd_put_byte,f
  2861  04B2  2CB1               	goto	u2287
  2862  04B3  2578               	call	PL4	;select bank 0
  2863                           
  2864                           ;lcd(16).c: 118: RD2 = 0;
  2865  04B4  3021               	movlw	33
  2866  04B5  1108               	bcf	8,2
  2867                           
  2868                           ;lcd(16).c: 119: _delay((unsigned long)((20)*(20000000/4000000.0)));
  2869  04B6  00AB               	movwf	??_lcd_put_byte
  2870  04B7                     u2297:	
  2871  04B7  0BAB               	decfsz	??_lcd_put_byte,f
  2872  04B8  2CB7               	goto	u2297
  2873  04B9  2578               	call	PL4	;select bank 0
  2874                           
  2875                           ;lcd(16).c: 120: RD3 = 0;
  2876  04BA  1188               	bcf	8,3
  2877                           
  2878                           ;lcd(16).c: 122: temp.Val = b;
  2879  04BB  082A               	movf	lcd_put_byte@b,w
  2880  04BC  00AE               	movwf	lcd_put_byte@temp
  2881                           
  2882                           ;lcd(16).c: 125: RD4 = temp.bits.b4;
  2883  04BD  0E2E               	swapf	lcd_put_byte@temp,w
  2884  04BE  3901               	andlw	1
  2885  04BF  00AB               	movwf	??_lcd_put_byte
  2886  04C0  0C2B               	rrf	??_lcd_put_byte,w
  2887  04C1  1C03               	btfss	3,0
  2888  04C2  2CC6               	goto	u1540
  2889  04C3  2578               	call	PL4	;select bank 0
  2890  04C4  1608               	bsf	8,4
  2891  04C5  2CC8               	goto	l4638
  2892  04C6                     u1540:	
  2893  04C6  2578               	call	PL4	;select bank 0
  2894  04C7  1208               	bcf	8,4
  2895  04C8                     l4638:	
  2896                           
  2897                           ;lcd(16).c: 126: RD5 = temp.bits.b5;
  2898  04C8  0E2E               	swapf	lcd_put_byte@temp,w
  2899  04C9  00AB               	movwf	??_lcd_put_byte
  2900  04CA  0C2B               	rrf	??_lcd_put_byte,w
  2901  04CB  3901               	andlw	1
  2902  04CC  00AC               	movwf	??_lcd_put_byte+1
  2903  04CD  0C2C               	rrf	??_lcd_put_byte+1,w
  2904  04CE  1C03               	btfss	3,0
  2905  04CF  2CD3               	goto	u1560
  2906  04D0  2578               	call	PL4	;select bank 0
  2907  04D1  1688               	bsf	8,5
  2908  04D2  2CD5               	goto	l4640
  2909  04D3                     u1560:	
  2910  04D3  2578               	call	PL4	;select bank 0
  2911  04D4  1288               	bcf	8,5
  2912  04D5                     l4640:	
  2913                           
  2914                           ;lcd(16).c: 127: RD6 = temp.bits.b6;
  2915  04D5  0E2E               	swapf	lcd_put_byte@temp,w
  2916  04D6  256C  120A  118A   	fcall	PL2	;call to abstracted procedure
  2917  04D9  1C03               	btfss	3,0
  2918  04DA  2CDE               	goto	u1580
  2919  04DB  2578               	call	PL4	;select bank 0
  2920  04DC  1708               	bsf	8,6
  2921  04DD  2CE0               	goto	l4642
  2922  04DE                     u1580:	
  2923  04DE  2578               	call	PL4	;select bank 0
  2924  04DF  1308               	bcf	8,6
  2925  04E0                     l4642:	
  2926                           
  2927                           ;lcd(16).c: 128: RD7 = temp.bits.b7;
  2928  04E0  0D2E               	rlf	lcd_put_byte@temp,w
  2929  04E1  0D2E               	rlf	lcd_put_byte@temp,w
  2930  04E2  3901               	andlw	1
  2931  04E3  00AB               	movwf	??_lcd_put_byte
  2932  04E4  0C2B               	rrf	??_lcd_put_byte,w
  2933  04E5  1C03               	btfss	3,0
  2934  04E6  2CEA               	goto	u1600
  2935  04E7  2578               	call	PL4	;select bank 0
  2936  04E8  1788               	bsf	8,7
  2937  04E9  2CEC               	goto	u1614
  2938  04EA                     u1600:	
  2939  04EA  2578               	call	PL4	;select bank 0
  2940  04EB  1388               	bcf	8,7
  2941  04EC                     u1614:	
  2942                           
  2943                           ;lcd(16).c: 129: _delay((unsigned long)((20)*(20000000/4000000.0)));
  2944  04EC  3021               	movlw	33
  2945  04ED  00AB               	movwf	??_lcd_put_byte
  2946  04EE                     u2307:	
  2947  04EE  0BAB               	decfsz	??_lcd_put_byte,f
  2948  04EF  2CEE               	goto	u2307
  2949  04F0  2578               	call	PL4	;select bank 0
  2950                           
  2951                           ;lcd(16).c: 130: RD3 = 1;
  2952  04F1  3021               	movlw	33
  2953  04F2  1588               	bsf	8,3
  2954                           
  2955                           ;lcd(16).c: 131: _delay((unsigned long)((20)*(20000000/4000000.0)));
  2956  04F3  00AB               	movwf	??_lcd_put_byte
  2957  04F4                     u2317:	
  2958  04F4  0BAB               	decfsz	??_lcd_put_byte,f
  2959  04F5  2CF4               	goto	u2317
  2960  04F6  2578               	call	PL4	;select bank 0
  2961                           
  2962                           ;lcd(16).c: 132: RD3 = 0;
  2963  04F7  1188               	bcf	8,3
  2964                           
  2965                           ;lcd(16).c: 134: RD4 = temp.bits.b0;
  2966  04F8  082E               	movf	lcd_put_byte@temp,w
  2967  04F9  3901               	andlw	1
  2968  04FA  00AB               	movwf	??_lcd_put_byte
  2969  04FB  0C2B               	rrf	??_lcd_put_byte,w
  2970  04FC  1C03               	btfss	3,0
  2971  04FD  2D01               	goto	u1620
  2972  04FE  2578               	call	PL4	;select bank 0
  2973  04FF  1608               	bsf	8,4
  2974  0500  2D03               	goto	l4650
  2975  0501                     u1620:	
  2976  0501  2578               	call	PL4	;select bank 0
  2977  0502  1208               	bcf	8,4
  2978  0503                     l4650:	
  2979                           
  2980                           ;lcd(16).c: 135: RD5 = temp.bits.b1;
  2981  0503  0C2E               	rrf	lcd_put_byte@temp,w
  2982  0504  3901               	andlw	1
  2983  0505  00AB               	movwf	??_lcd_put_byte
  2984  0506  0C2B               	rrf	??_lcd_put_byte,w
  2985  0507  1C03               	btfss	3,0
  2986  0508  2D0C               	goto	u1640
  2987  0509  2578               	call	PL4	;select bank 0
  2988  050A  1688               	bsf	8,5
  2989  050B  2D0E               	goto	l4652
  2990  050C                     u1640:	
  2991  050C  2578               	call	PL4	;select bank 0
  2992  050D  1288               	bcf	8,5
  2993  050E                     l4652:	
  2994                           
  2995                           ;lcd(16).c: 136: RD6 = temp.bits.b2;
  2996  050E  0C2E               	rrf	lcd_put_byte@temp,w
  2997  050F  00AB               	movwf	??_lcd_put_byte
  2998  0510  0C2B               	rrf	??_lcd_put_byte,w
  2999  0511  3901               	andlw	1
  3000  0512  00AC               	movwf	??_lcd_put_byte+1
  3001  0513  0C2C               	rrf	??_lcd_put_byte+1,w
  3002  0514  1C03               	btfss	3,0
  3003  0515  2D19               	goto	u1660
  3004  0516  2578               	call	PL4	;select bank 0
  3005  0517  1708               	bsf	8,6
  3006  0518  2D1B               	goto	l4654
  3007  0519                     u1660:	
  3008  0519  2578               	call	PL4	;select bank 0
  3009  051A  1308               	bcf	8,6
  3010  051B                     l4654:	
  3011                           
  3012                           ;lcd(16).c: 137: RD7 = temp.bits.b3;
  3013  051B  0C2E               	rrf	lcd_put_byte@temp,w
  3014  051C  256C  120A  118A   	fcall	PL2	;call to abstracted procedure
  3015  051F  1C03               	btfss	3,0
  3016  0520  2D24               	goto	u1680
  3017  0521  2578               	call	PL4	;select bank 0
  3018  0522  1788               	bsf	8,7
  3019  0523  2D26               	goto	u1694
  3020  0524                     u1680:	
  3021  0524  2578               	call	PL4	;select bank 0
  3022  0525  1388               	bcf	8,7
  3023  0526                     u1694:	
  3024                           
  3025                           ;lcd(16).c: 138: _delay((unsigned long)((20)*(20000000/4000000.0)));
  3026  0526  3021               	movlw	33
  3027  0527  00AB               	movwf	??_lcd_put_byte
  3028  0528                     u2327:	
  3029  0528  0BAB               	decfsz	??_lcd_put_byte,f
  3030  0529  2D28               	goto	u2327
  3031  052A  2578               	call	PL4	;select bank 0
  3032                           
  3033                           ;lcd(16).c: 139: RD3 = 1;
  3034  052B  3021               	movlw	33
  3035  052C  1588               	bsf	8,3
  3036                           
  3037                           ;lcd(16).c: 140: _delay((unsigned long)((20)*(20000000/4000000.0)));
  3038  052D  00AB               	movwf	??_lcd_put_byte
  3039  052E                     u2337:	
  3040  052E  0BAB               	decfsz	??_lcd_put_byte,f
  3041  052F  2D2E               	goto	u2337
  3042  0530  2578               	call	PL4	;select bank 0
  3043                           
  3044                           ;lcd(16).c: 141: RD3 = 0;
  3045  0531  1188               	bcf	8,3
  3046  0532  0008               	return
  3047  0533                     __end_of_lcd_put_byte:	
  3048  0533                     __ptext412:	
  3049 ;; =============== function _lcd_gotoxy ends ============
  3050                           
  3051                           
  3052 ;; *************** function _lcd_busy *****************
  3053 ;; Defined at:
  3054 ;;		line 47 in file "D:\TTVXL\Library\lcd(16).c"
  3055 ;; Parameters:    Size  Location     Type
  3056 ;;		None
  3057 ;; Auto vars:     Size  Location     Type
  3058 ;;  busy            1   11[BANK0 ] unsigned char 
  3059 ;; Return value:  Size  Location     Type
  3060 ;;                  1    wreg      unsigned char 
  3061 ;; Registers used:
  3062 ;;		wreg
  3063 ;; Tracked objects:
  3064 ;;		On entry : 0/0
  3065 ;;		On exit  : 60/0
  3066 ;;		Unchanged: 0/0
  3067 ;; Data sizes:     COMMON   BANK0   BANK1   BANK3   BANK2
  3068 ;;      Params:         0       0       0       0       0
  3069 ;;      Locals:         0       1       0       0       0
  3070 ;;      Temps:          0       1       0       0       0
  3071 ;;      Totals:         0       2       0       0       0
  3072 ;;Total ram usage:        2 bytes
  3073 ;; Hardware stack levels used:    1
  3074 ;; Hardware stack levels required when called:    3
  3075 ;; This function calls:
  3076 ;;		Nothing
  3077 ;; This function is called by:
  3078 ;;		_lcd_init
  3079 ;;		_lcd_putc
  3080 ;;		_lcd_gotoxy
  3081 ;; This function uses a non-reentrant model
  3082 ;;
  3083  0533                     _lcd_busy:	
  3084                           
  3085                           ;lcd(16).c: 48: unsigned char busy;
  3086                           ;lcd(16).c: 50: TRISD4 = 1;
  3087                           
  3088 ;; hardware stack exceeded
  3089                           ; Regs used in _lcd_busy: [wreg]
  3090  0533  1683               	bsf	3,5	;RP0=1, select bank1
  3091  0534  1303               	bcf	3,6	;RP1=0, select bank1
  3092  0535  1608               	bsf	8,4
  3093                           
  3094                           ;lcd(16).c: 51: TRISD5 = 1;
  3095  0536  1688               	bsf	8,5
  3096                           
  3097                           ;lcd(16).c: 52: TRISD6 = 1;
  3098  0537  1708               	bsf	8,6
  3099                           
  3100                           ;lcd(16).c: 53: TRISD7 = 1;
  3101  0538  1788               	bsf	8,7
  3102                           
  3103                           ;lcd(16).c: 55: RD2 = 1;
  3104  0539  1283               	bcf	3,5	;RP0=0, select bank0
  3105  053A  3021               	movlw	33
  3106  053B  1508               	bsf	8,2
  3107                           
  3108                           ;lcd(16).c: 56: RD1 = 0;
  3109  053C  1088               	bcf	8,1
  3110                           
  3111                           ;lcd(16).c: 57: _delay((unsigned long)((20)*(20000000/4000000.0)));
  3112  053D  00AA               	movwf	??_lcd_busy
  3113  053E                     u2247:	
  3114  053E  0BAA               	decfsz	??_lcd_busy,f
  3115  053F  2D3E               	goto	u2247
  3116                           
  3117                           ;lcd(16).c: 58: RD3 = 1;
  3118  0540  1283               	bcf	3,5	;RP0=0, select bank0
  3119  0541  1303               	bcf	3,6	;RP1=0, select bank0
  3120  0542  3021               	movlw	33
  3121  0543  1588               	bsf	8,3
  3122                           
  3123                           ;lcd(16).c: 59: _delay((unsigned long)((20)*(20000000/4000000.0)));
  3124  0544  00AA               	movwf	??_lcd_busy
  3125  0545                     u2257:	
  3126  0545  0BAA               	decfsz	??_lcd_busy,f
  3127  0546  2D45               	goto	u2257
  3128                           
  3129                           ;lcd(16).c: 61: busy = RD7;
  3130  0547  3000               	movlw	0
  3131  0548  1283               	bcf	3,5	;RP0=0, select bank0
  3132  0549  1303               	bcf	3,6	;RP1=0, select bank0
  3133  054A  1B88               	btfsc	8,7
  3134  054B  3001               	movlw	1
  3135  054C  00AB               	movwf	lcd_busy@busy
  3136  054D  3021               	movlw	33
  3137                           
  3138                           ;lcd(16).c: 63: RD3 = 0;
  3139  054E  1188               	bcf	8,3
  3140                           
  3141                           ;lcd(16).c: 64: _delay((unsigned long)((20)*(20000000/4000000.0)));
  3142  054F  00AA               	movwf	??_lcd_busy
  3143  0550                     u2267:	
  3144  0550  0BAA               	decfsz	??_lcd_busy,f
  3145  0551  2D50               	goto	u2267
  3146                           
  3147                           ;lcd(16).c: 65: RD3 = 1;
  3148  0552  1283               	bcf	3,5	;RP0=0, select bank0
  3149  0553  1303               	bcf	3,6	;RP1=0, select bank0
  3150  0554  3021               	movlw	33
  3151  0555  1588               	bsf	8,3
  3152                           
  3153                           ;lcd(16).c: 66: _delay((unsigned long)((20)*(20000000/4000000.0)));
  3154  0556  00AA               	movwf	??_lcd_busy
  3155  0557                     u2277:	
  3156  0557  0BAA               	decfsz	??_lcd_busy,f
  3157  0558  2D57               	goto	u2277
  3158                           
  3159                           ;lcd(16).c: 67: RD3 = 0;
  3160  0559  1283               	bcf	3,5	;RP0=0, select bank0
  3161  055A  1303               	bcf	3,6	;RP1=0, select bank0
  3162  055B  1188               	bcf	8,3
  3163                           
  3164                           ;lcd(16).c: 70: return busy;
  3165  055C  082B               	movf	lcd_busy@busy,w
  3166  055D  0008               	return
  3167  055E                     __end_of_lcd_busy:	
  3168  055E                     __ptext419:	
  3169 ;; =============== function _isdigit ends ============
  3170                           
  3171                           
  3172 ;; *************** function _isprint *****************
  3173 ;; Defined at:
  3174 ;;		line 13 in file "C:\Program Files (x86)\HI-TECH Software\PICC\9.83\sources\isprint.c"
  3175 ;; Parameters:    Size  Location     Type
  3176 ;;  c               1    wreg     unsigned char 
  3177 ;; Auto vars:     Size  Location     Type
  3178 ;;  c               1   11[BANK0 ] unsigned char 
  3179 ;; Return value:  Size  Location     Type
  3180 ;;		None               void
  3181 ;; Registers used:
  3182 ;;		wreg, status,2, status,0
  3183 ;; Tracked objects:
  3184 ;;		On entry : 160/0
  3185 ;;		On exit  : 160/0
  3186 ;;		Unchanged: FFE9F/0
  3187 ;; Data sizes:     COMMON   BANK0   BANK1   BANK3   BANK2
  3188 ;;      Params:         0       0       0       0       0
  3189 ;;      Locals:         0       2       0       0       0
  3190 ;;      Temps:          0       0       0       0       0
  3191 ;;      Totals:         0       2       0       0       0
  3192 ;;Total ram usage:        2 bytes
  3193 ;; Hardware stack levels used:    1
  3194 ;; Hardware stack levels required when called:    3
  3195 ;; This function calls:
  3196 ;;		Nothing
  3197 ;; This function is called by:
  3198 ;;		_lcd_putc
  3199 ;; This function uses a non-reentrant model
  3200 ;;
  3201  055E                     _isprint:	
  3202                           
  3203                           ; Regs used in _isprint: [wreg+status,2+status,0]
  3204                           ;isprint@c stored from wreg
  3205  055E  00AB               	movwf	isprint@c
  3206  055F  307F               	movlw	127
  3207  0560  01AA               	clrf	_isprint$3703
  3208  0561  022B               	subwf	isprint@c,w
  3209  0562  1803               	skipnc
  3210  0563  2D6A               	goto	l4440
  3211  0564  3020               	movlw	32
  3212  0565  022B               	subwf	isprint@c,w
  3213  0566  1C03               	skipc
  3214  0567  2D6A               	goto	l4440
  3215  0568  01AA               	clrf	_isprint$3703
  3216  0569  0AAA               	incf	_isprint$3703,f
  3217  056A                     l4440:	
  3218  056A  0C2A               	rrf	_isprint$3703,w
  3219  056B  0008               	return
  3220  056C                     __end_of_isprint:	
  3221  056C                     PL2:	
  3222  056C  00AB               	movwf	??_lcd_put_byte
  3223  056D  0CAB               	rrf	??_lcd_put_byte,f
  3224  056E  0C2B               	rrf	??_lcd_put_byte,w
  3225  056F  3901               	andlw	1
  3226  0570  00AC               	movwf	??_lcd_put_byte+1
  3227  0571  0C2C               	rrf	??_lcd_put_byte+1,w
  3228  0572  0008               	return
  3229  0573                     PL3:	
  3230  0573  3030               	movlw	48
  3231  0574  1283               	bcf	3,5	;RP0=0, select bank0
  3232  0575  1303               	bcf	3,6	;RP1=0, select bank0
  3233  0576  00AA               	movwf	?_lcd_put_byte
  3234  0577  3400               	retlw	0
  3235  0578                     PL4:	
  3236  0578  1283               	bcf	3,5	;RP0=0, select bank0
  3237  0579  1303               	bcf	3,6	;RP1=0, select bank0
  3238  057A  0008               	return
  3239                           
  3240                           	psect	text413
  3241  07D1                     __ptext413:	
  3242 ;; =============== function _lcd_busy ends ============
  3243                           
  3244                           
  3245 ;; *************** function _send_string *****************
  3246 ;; Defined at:
  3247 ;;		line 141 in file "D:\TTVXL\Project TTVXL\BT Ôn Thi 05\BT Ôn Thi 05.c"
  3248 ;; Parameters:    Size  Location     Type
  3249 ;;  s               1    wreg     PTR const unsigned char 
  3250 ;;		 -> data_rx(10), 
  3251 ;; Auto vars:     Size  Location     Type
  3252 ;;  s               1   11[BANK0 ] PTR const unsigned char 
  3253 ;;		 -> data_rx(10), 
  3254 ;; Return value:  Size  Location     Type
  3255 ;;		None               void
  3256 ;; Registers used:
  3257 ;;		wreg, fsr0l, fsr0h, status,2, status,0, pclath, cstack
  3258 ;; Tracked objects:
  3259 ;;		On entry : 160/0
  3260 ;;		On exit  : 160/0
  3261 ;;		Unchanged: FFE9F/0
  3262 ;; Data sizes:     COMMON   BANK0   BANK1   BANK3   BANK2
  3263 ;;      Params:         0       0       0       0       0
  3264 ;;      Locals:         0       1       0       0       0
  3265 ;;      Temps:          0       0       0       0       0
  3266 ;;      Totals:         0       1       0       0       0
  3267 ;;Total ram usage:        1 bytes
  3268 ;; Hardware stack levels used:    1
  3269 ;; Hardware stack levels required when called:    4
  3270 ;; This function calls:
  3271 ;;		_send_char
  3272 ;; This function is called by:
  3273 ;;		_main
  3274 ;; This function uses a non-reentrant model
  3275 ;;
  3276  07D1                     _send_string:	
  3277                           
  3278                           ; Regs used in _send_string: [wreg-fsr0h+status,2+status,0+pclath+cstack]
  3279                           ;send_string@s stored from wreg
  3280  07D1  00AB               	movwf	send_string@s
  3281  07D2                     l4666:	
  3282                           ;BT Ôn Thi 05.c: 142: while(*s) {send_char(*s++);}
  3283                           
  3284  07D2  082B               	movf	send_string@s,w
  3285  07D3  0084               	movwf	4
  3286  07D4  0880               	movf	0,f
  3287  07D5  1903               	btfsc	3,2
  3288  07D6  0008               	return
  3289  07D7  082B               	movf	send_string@s,w
  3290  07D8  0084               	movwf	4
  3291  07D9  0800               	movf	0,w
  3292  07DA  27DF  120A  118A   	fcall	_send_char
  3293  07DD  0AAB               	incf	send_string@s,f
  3294  07DE  2FD2               	goto	l4666
  3295  07DF                     __end_of_send_string:	
  3296  07DF                     __ptext420:	
  3297 ;; =============== function _isprint ends ============
  3298                           
  3299                           
  3300 ;; *************** function _send_char *****************
  3301 ;; Defined at:
  3302 ;;		line 137 in file "D:\TTVXL\Project TTVXL\BT Ôn Thi 05\BT Ôn Thi 05.c"
  3303 ;; Parameters:    Size  Location     Type
  3304 ;;  data            1    wreg     unsigned char 
  3305 ;; Auto vars:     Size  Location     Type
  3306 ;;  data            1   10[BANK0 ] unsigned char 
  3307 ;; Return value:  Size  Location     Type
  3308 ;;		None               void
  3309 ;; Registers used:
  3310 ;;		wreg
  3311 ;; Tracked objects:
  3312 ;;		On entry : 160/0
  3313 ;;		On exit  : 160/0
  3314 ;;		Unchanged: FFE9F/0
  3315 ;; Data sizes:     COMMON   BANK0   BANK1   BANK3   BANK2
  3316 ;;      Params:         0       0       0       0       0
  3317 ;;      Locals:         0       1       0       0       0
  3318 ;;      Temps:          0       0       0       0       0
  3319 ;;      Totals:         0       1       0       0       0
  3320 ;;Total ram usage:        1 bytes
  3321 ;; Hardware stack levels used:    1
  3322 ;; Hardware stack levels required when called:    3
  3323 ;; This function calls:
  3324 ;;		Nothing
  3325 ;; This function is called by:
  3326 ;;		_send_string
  3327 ;; This function uses a non-reentrant model
  3328 ;;
  3329  07DF                     _send_char:	
  3330                           
  3331                           ; Regs used in _send_char: [wreg]
  3332                           ;send_char@data stored from wreg
  3333  07DF  00AA               	movwf	send_char@data
  3334  07E0                     l1103:	
  3335                           ;BT Ôn Thi 05.c: 138: while (TXIF==0){}
  3336                           
  3337  07E0  1E0C               	btfss	12,4
  3338  07E1  2FE0               	goto	l1103
  3339                           
  3340                           ;BT Ôn Thi 05.c: 139: TXREG = data;
  3341  07E2  082A               	movf	send_char@data,w
  3342  07E3  0099               	movwf	25	;volatile
  3343  07E4  0008               	return
  3344  07E5                     __end_of_send_char:	
  3345                           
  3346                           	psect	text421
  3347  07BC                     __ptext421:	
  3348 ;; =============== function _send_char ends ============
  3349                           
  3350                           
  3351 ;; *************** function _rx *****************
  3352 ;; Defined at:
  3353 ;;		line 153 in file "D:\TTVXL\Project TTVXL\BT Ôn Thi 05\BT Ôn Thi 05.c"
  3354 ;; Parameters:    Size  Location     Type
  3355 ;;		None
  3356 ;; Auto vars:     Size  Location     Type
  3357 ;;		None
  3358 ;; Return value:  Size  Location     Type
  3359 ;;		None               void
  3360 ;; Registers used:
  3361 ;;		wreg
  3362 ;; Tracked objects:
  3363 ;;		On entry : 60/0
  3364 ;;		On exit  : 60/0
  3365 ;;		Unchanged: FFF9F/0
  3366 ;; Data sizes:     COMMON   BANK0   BANK1   BANK3   BANK2
  3367 ;;      Params:         0       0       0       0       0
  3368 ;;      Locals:         0       0       0       0       0
  3369 ;;      Temps:          0       0       0       0       0
  3370 ;;      Totals:         0       0       0       0       0
  3371 ;;Total ram usage:        0 bytes
  3372 ;; Hardware stack levels used:    1
  3373 ;; Hardware stack levels required when called:    3
  3374 ;; This function calls:
  3375 ;;		Nothing
  3376 ;; This function is called by:
  3377 ;;		_main
  3378 ;; This function uses a non-reentrant model
  3379 ;;
  3380  07BC                     _rx:	
  3381                           
  3382                           ;BT Ôn Thi 05.c: 154: SYNC = 0; BRGH = 1; BRG16 = 1;
  3383                           
  3384                           ; Regs used in _rx: [wreg]
  3385  07BC  1683               	bsf	3,5	;RP0=1, select bank1
  3386  07BD  1218               	bcf	24,4
  3387  07BE  1518               	bsf	24,2
  3388  07BF  1703               	bsf	3,6	;RP1=1, select bank3
  3389  07C0  3002               	movlw	2
  3390  07C1  1587               	bsf	7,3
  3391                           
  3392                           ;BT Ôn Thi 05.c: 155: SPBRGH = 0x02;
  3393  07C2  1303               	bcf	3,6	;RP1=0, select bank1
  3394  07C3  009A               	movwf	26	;volatile
  3395                           
  3396                           ;BT Ôn Thi 05.c: 156: SPBRG = 0x08;
  3397  07C4  3008               	movlw	8
  3398  07C5  0099               	movwf	25	;volatile
  3399                           
  3400                           ;BT Ôn Thi 05.c: 157: CREN = 1; RX9 = 0; SPEN = 1;
  3401  07C6  1283               	bcf	3,5	;RP0=0, select bank0
  3402  07C7  1618               	bsf	24,4
  3403  07C8  1318               	bcf	24,6
  3404  07C9  1798               	bsf	24,7
  3405                           
  3406                           ;BT Ôn Thi 05.c: 158: RCIE=1; RCIF=0; PEIE=1; GIE=1;
  3407  07CA  1683               	bsf	3,5	;RP0=1, select bank1
  3408  07CB  168C               	bsf	12,5
  3409  07CC  1283               	bcf	3,5	;RP0=0, select bank0
  3410  07CD  128C               	bcf	12,5
  3411  07CE  170B               	bsf	11,6
  3412  07CF  178B               	bsf	11,7
  3413  07D0  0008               	return
  3414  07D1                     __end_of_rx:	
  3415                           
  3416                           	psect	text422
  3417  07E5                     __ptext422:	
  3418 ;; =============== function _rx ends ============
  3419                           
  3420                           
  3421 ;; *************** function _tx *****************
  3422 ;; Defined at:
  3423 ;;		line 145 in file "D:\TTVXL\Project TTVXL\BT Ôn Thi 05\BT Ôn Thi 05.c"
  3424 ;; Parameters:    Size  Location     Type
  3425 ;;		None
  3426 ;; Auto vars:     Size  Location     Type
  3427 ;;		None
  3428 ;; Return value:  Size  Location     Type
  3429 ;;		None               void
  3430 ;; Registers used:
  3431 ;;		wreg
  3432 ;; Tracked objects:
  3433 ;;		On entry : 60/0
  3434 ;;		On exit  : 60/0
  3435 ;;		Unchanged: FFF9F/0
  3436 ;; Data sizes:     COMMON   BANK0   BANK1   BANK3   BANK2
  3437 ;;      Params:         0       0       0       0       0
  3438 ;;      Locals:         0       0       0       0       0
  3439 ;;      Temps:          0       0       0       0       0
  3440 ;;      Totals:         0       0       0       0       0
  3441 ;;Total ram usage:        0 bytes
  3442 ;; Hardware stack levels used:    1
  3443 ;; Hardware stack levels required when called:    3
  3444 ;; This function calls:
  3445 ;;		Nothing
  3446 ;; This function is called by:
  3447 ;;		_main
  3448 ;; This function uses a non-reentrant model
  3449 ;;
  3450  07E5                     _tx:	
  3451                           
  3452                           ;BT Ôn Thi 05.c: 146: SYNC = 0; BRGH = 1; BRG16 = 1;
  3453                           
  3454                           ; Regs used in _tx: [wreg]
  3455  07E5  1683               	bsf	3,5	;RP0=1, select bank1
  3456  07E6  1218               	bcf	24,4
  3457  07E7  1518               	bsf	24,2
  3458  07E8  1703               	bsf	3,6	;RP1=1, select bank3
  3459  07E9  3002               	movlw	2
  3460  07EA  1587               	bsf	7,3
  3461                           
  3462                           ;BT Ôn Thi 05.c: 147: SPBRGH = 0x02;
  3463  07EB  1303               	bcf	3,6	;RP1=0, select bank1
  3464  07EC  009A               	movwf	26	;volatile
  3465                           
  3466                           ;BT Ôn Thi 05.c: 148: SPBRG = 0x08;
  3467  07ED  3008               	movlw	8
  3468  07EE  0099               	movwf	25	;volatile
  3469                           
  3470                           ;BT Ôn Thi 05.c: 149: TXEN = 1; TX9 = 0; SPEN = 1;
  3471  07EF  1698               	bsf	24,5
  3472  07F0  1318               	bcf	24,6
  3473  07F1  1283               	bcf	3,5	;RP0=0, select bank0
  3474  07F2  1798               	bsf	24,7
  3475  07F3  0008               	return
  3476  07F4                     __end_of_tx:	
  3477                           
  3478                           	psect	text423
  3479  057B                     __ptext423:	
  3480 ;; =============== function _tx ends ============
  3481                           
  3482                           
  3483 ;; *************** function _ngat *****************
  3484 ;; Defined at:
  3485 ;;		line 118 in file "D:\TTVXL\Project TTVXL\BT Ôn Thi 05\BT Ôn Thi 05.c"
  3486 ;; Parameters:    Size  Location     Type
  3487 ;;		None
  3488 ;; Auto vars:     Size  Location     Type
  3489 ;;		None
  3490 ;; Return value:  Size  Location     Type
  3491 ;;		None               void
  3492 ;; Registers used:
  3493 ;;		wreg, fsr0l, fsr0h, fsr1l, fsr1h, status,2, status,0, btemp+1, pclath, cstack
  3494 ;; Tracked objects:
  3495 ;;		On entry : 0/0
  3496 ;;		On exit  : 60/0
  3497 ;;		Unchanged: FFF9F/0
  3498 ;; Data sizes:     COMMON   BANK0   BANK1   BANK3   BANK2
  3499 ;;      Params:         0       0       0       0       0
  3500 ;;      Locals:         0       0       0       0       0
  3501 ;;      Temps:          0       4       0       0       0
  3502 ;;      Totals:         0       4       0       0       0
  3503 ;;Total ram usage:        4 bytes
  3504 ;; Hardware stack levels used:    1
  3505 ;; Hardware stack levels required when called:    2
  3506 ;; This function calls:
  3507 ;;		___ftadd
  3508 ;; This function is called by:
  3509 ;;		Interrupt level 1
  3510 ;; This function uses a non-reentrant model
  3511 ;;
  3512  057B                     _ngat:	
  3513                           
  3514                           ;BT Ôn Thi 05.c: 119: TMR1H=246; TMR1L=60;
  3515  057B  30F6               	movlw	246
  3516  057C  008F               	movwf	15	;volatile
  3517  057D  303C               	movlw	60
  3518  057E  008E               	movwf	14	;volatile
  3519                           
  3520                           ;BT Ôn Thi 05.c: 120: if(TMR1IF)
  3521  057F  1C0C               	btfss	12,0
  3522  0580  2DA7               	goto	L6
  3523                           
  3524                           ;BT Ôn Thi 05.c: 121: {
  3525                           ;BT Ôn Thi 05.c: 122: dem++;
  3526  0581  3080               	movlw	128
  3527  0582  01F8               	clrf	?___ftadd
  3528  0583  00F9               	movwf	?___ftadd+1
  3529  0584  303F               	movlw	63
  3530  0585  00FA               	movwf	?___ftadd+2
  3531  0586  084E               	movf	_dem,w
  3532  0587  00FB               	movwf	?___ftadd+3
  3533  0588  084F               	movf	_dem+1,w
  3534  0589  00FC               	movwf	?___ftadd+4
  3535  058A  0850               	movf	_dem+2,w
  3536  058B  00FD               	movwf	?___ftadd+5
  3537  058C  25B2  120A  118A   	fcall	___ftadd
  3538  058F  0878               	movf	?___ftadd,w
  3539  0590  00CE               	movwf	_dem
  3540  0591  0879               	movf	?___ftadd+1,w
  3541  0592  00CF               	movwf	_dem+1
  3542  0593  087A               	movf	?___ftadd+2,w
  3543  0594  00D0               	movwf	_dem+2
  3544                           
  3545                           ;BT Ôn Thi 05.c: 123: if(dem == 2){dem= 0; ms=ms+1;}
  3546  0595  3A40               	xorlw	64
  3547  0596  1D03               	skipz
  3548  0597  2D9E               	goto	u110_25
  3549  0598  3000               	movlw	0
  3550  0599  064F               	xorwf	_dem+1,w
  3551  059A  1D03               	skipz
  3552  059B  2D9E               	goto	u110_25
  3553  059C  3000               	movlw	0
  3554  059D  064E               	xorwf	_dem,w
  3555  059E                     u110_25:	
  3556  059E  1D03               	skipz
  3557  059F  2DA6               	goto	i1l4426
  3558  05A0  01CE               	clrf	_dem
  3559  05A1  01CF               	clrf	_dem+1
  3560  05A2  01D0               	clrf	_dem+2
  3561  05A3  0AD5               	incf	_ms,f
  3562  05A4  1903               	skipnz
  3563  05A5  0AD6               	incf	_ms+1,f
  3564  05A6                     i1l4426:	
  3565                           
  3566                           ;BT Ôn Thi 05.c: 124: }
  3567                           ;BT Ôn Thi 05.c: 125: TMR1IF = 0;
  3568  05A6  100C               	bcf	12,0
  3569  05A7                     L6:	
  3570  05A7  0829               	movf	??_ngat+3,w
  3571  05A8  00FF               	movwf	127
  3572  05A9  0828               	movf	??_ngat+2,w
  3573  05AA  008A               	movwf	10
  3574  05AB  0827               	movf	??_ngat+1,w
  3575  05AC  0084               	movwf	4
  3576  05AD  0E26               	swapf	??_ngat^0,w
  3577  05AE  0083               	movwf	3
  3578  05AF  0EFE               	swapf	126,f
  3579  05B0  0E7E               	swapf	126,w
  3580  05B1  0009               	retfie
  3581  05B2                     __end_of_ngat:	
  3582  05B2                     __ptext424:	
  3583 ;; =============== function _ngat ends ============
  3584                           
  3585                           
  3586 ;; *************** function ___ftadd *****************
  3587 ;; Defined at:
  3588 ;;		line 87 in file "C:\Program Files (x86)\HI-TECH Software\PICC\9.83\sources\ftadd.c"
  3589 ;; Parameters:    Size  Location     Type
  3590 ;;  f1              3    8[COMMON] float 
  3591 ;;  f2              3   11[COMMON] float 
  3592 ;; Auto vars:     Size  Location     Type
  3593 ;;  exp1            1    5[BANK0 ] unsigned char 
  3594 ;;  exp2            1    4[BANK0 ] unsigned char 
  3595 ;;  sign            1    3[BANK0 ] unsigned char 
  3596 ;; Return value:  Size  Location     Type
  3597 ;;                  3    8[COMMON] float 
  3598 ;; Registers used:
  3599 ;;		wreg, status,2, status,0, pclath, cstack
  3600 ;; Tracked objects:
  3601 ;;		On entry : 60/0
  3602 ;;		On exit  : 60/0
  3603 ;;		Unchanged: FFF9F/0
  3604 ;; Data sizes:     COMMON   BANK0   BANK1   BANK3   BANK2
  3605 ;;      Params:         6       0       0       0       0
  3606 ;;      Locals:         0       3       0       0       0
  3607 ;;      Temps:          0       3       0       0       0
  3608 ;;      Totals:         6       6       0       0       0
  3609 ;;Total ram usage:       12 bytes
  3610 ;; Hardware stack levels used:    1
  3611 ;; Hardware stack levels required when called:    1
  3612 ;; This function calls:
  3613 ;;		___ftpack
  3614 ;; This function is called by:
  3615 ;;		_ngat
  3616 ;; This function uses a non-reentrant model
  3617 ;;
  3618  05B2                     ___ftadd:	
  3619                           
  3620 ;; hardware stack exceeded
  3621                           ; Regs used in ___ftadd: [wreg+status,2+status,0+pclath+cstack]
  3622  05B2  0878               	movf	___ftadd@f1,w
  3623  05B3  00A0               	movwf	??___ftadd
  3624  05B4  0879               	movf	___ftadd@f1+1,w
  3625  05B5  00A1               	movwf	??___ftadd+1
  3626  05B6  087A               	movf	___ftadd@f1+2,w
  3627  05B7  00A2               	movwf	??___ftadd+2
  3628  05B8  1003               	clrc
  3629  05B9  0D21               	rlf	??___ftadd+1,w
  3630  05BA  0D22               	rlf	??___ftadd+2,w
  3631  05BB  00A5               	movwf	___ftadd@exp1
  3632  05BC  087B               	movf	___ftadd@f2,w
  3633  05BD  00A0               	movwf	??___ftadd
  3634  05BE  087C               	movf	___ftadd@f2+1,w
  3635  05BF  00A1               	movwf	??___ftadd+1
  3636  05C0  087D               	movf	___ftadd@f2+2,w
  3637  05C1  00A2               	movwf	??___ftadd+2
  3638  05C2  1003               	clrc
  3639  05C3  0D21               	rlf	??___ftadd+1,w
  3640  05C4  0D22               	rlf	??___ftadd+2,w
  3641  05C5  00A4               	movwf	___ftadd@exp2
  3642  05C6  0825               	movf	___ftadd@exp1,w
  3643  05C7  1903               	btfsc	3,2
  3644  05C8  2DD5               	goto	i1l4526
  3645  05C9  0824               	movf	___ftadd@exp2,w
  3646  05CA  0225               	subwf	___ftadd@exp1,w
  3647  05CB  0824               	movf	___ftadd@exp2,w
  3648  05CC  1803               	skipnc
  3649  05CD  2DDD               	goto	L7
  3650  05CE  00A0               	movwf	??___ftadd
  3651  05CF  0825               	movf	___ftadd@exp1,w
  3652  05D0  02A0               	subwf	??___ftadd,f
  3653  05D1  3019               	movlw	25
  3654  05D2  0220               	subwf	??___ftadd,w
  3655  05D3  1C03               	skipc
  3656  05D4  2DDC               	goto	i1l4530
  3657  05D5                     i1l4526:	
  3658  05D5  087B               	movf	___ftadd@f2,w
  3659  05D6  00F8               	movwf	?___ftadd
  3660  05D7  087C               	movf	___ftadd@f2+1,w
  3661  05D8  00F9               	movwf	?___ftadd+1
  3662  05D9  087D               	movf	___ftadd@f2+2,w
  3663  05DA  00FA               	movwf	?___ftadd+2
  3664  05DB  0008               	return
  3665  05DC                     i1l4530:	
  3666  05DC  0824               	movf	___ftadd@exp2,w
  3667  05DD                     L7:	
  3668  05DD  1903               	btfsc	3,2
  3669  05DE  0008               	return
  3670  05DF  0825               	movf	___ftadd@exp1,w
  3671  05E0  0224               	subwf	___ftadd@exp2,w
  3672  05E1  1803               	skipnc
  3673  05E2  2DEB               	goto	i1l4536
  3674  05E3  0825               	movf	___ftadd@exp1,w
  3675  05E4  00A0               	movwf	??___ftadd
  3676  05E5  0824               	movf	___ftadd@exp2,w
  3677  05E6  02A0               	subwf	??___ftadd,f
  3678  05E7  3019               	movlw	25
  3679  05E8  0220               	subwf	??___ftadd,w
  3680  05E9  1803               	btfsc	3,0
  3681  05EA  0008               	return
  3682  05EB                     i1l4536:	
  3683  05EB  3006               	movlw	6
  3684  05EC  00A3               	movwf	___ftadd@sign
  3685  05ED  1BFA               	btfsc	___ftadd@f1+2,7
  3686  05EE  17A3               	bsf	___ftadd@sign,7
  3687  05EF  1BFD               	btfsc	___ftadd@f2+2,7
  3688  05F0  1723               	bsf	___ftadd@sign,6
  3689  05F1  17F9               	bsf	___ftadd@f1+1,7
  3690  05F2  01FA               	clrf	___ftadd@f1+2
  3691  05F3  17FC               	bsf	___ftadd@f2+1,7
  3692  05F4  01FD               	clrf	___ftadd@f2+2
  3693  05F5  0824               	movf	___ftadd@exp2,w
  3694  05F6  0225               	subwf	___ftadd@exp1,w
  3695  05F7  1803               	skipnc
  3696  05F8  2E12               	goto	i1l4558
  3697  05F9                     i1l4548:	
  3698  05F9  1003               	clrc
  3699  05FA  0DFB               	rlf	___ftadd@f2,f
  3700  05FB  0DFC               	rlf	___ftadd@f2+1,f
  3701  05FC  0DFD               	rlf	___ftadd@f2+2,f
  3702  05FD  03A4               	decf	___ftadd@exp2,f
  3703  05FE  0824               	movf	___ftadd@exp2,w
  3704  05FF  0625               	xorwf	___ftadd@exp1,w
  3705  0600  1903               	skipnz
  3706  0601  2E0D               	goto	i1l4556
  3707  0602  03A3               	decf	___ftadd@sign,f
  3708  0603  0823               	movf	___ftadd@sign,w
  3709  0604  3907               	andlw	7
  3710  0605  1903               	btfsc	3,2
  3711  0606  2E0D               	goto	i1l4556
  3712  0607  2DF9               	goto	i1l4548
  3713  0608                     i1l4554:	
  3714  0608  1003               	clrc
  3715  0609  0CFA               	rrf	___ftadd@f1+2,f
  3716  060A  0CF9               	rrf	___ftadd@f1+1,f
  3717  060B  0CF8               	rrf	___ftadd@f1,f
  3718  060C  0AA5               	incf	___ftadd@exp1,f
  3719  060D                     i1l4556:	
  3720  060D  0825               	movf	___ftadd@exp1,w
  3721  060E  0624               	xorwf	___ftadd@exp2,w
  3722  060F  1903               	btfsc	3,2
  3723  0610  2E2E               	goto	i1l3351
  3724  0611  2E08               	goto	i1l4554
  3725  0612                     i1l4558:	
  3726  0612  0825               	movf	___ftadd@exp1,w
  3727  0613  0224               	subwf	___ftadd@exp2,w
  3728  0614  1803               	skipnc
  3729  0615  2E2E               	goto	i1l3351
  3730  0616                     i1l4560:	
  3731  0616  1003               	clrc
  3732  0617  0DF8               	rlf	___ftadd@f1,f
  3733  0618  0DF9               	rlf	___ftadd@f1+1,f
  3734  0619  0DFA               	rlf	___ftadd@f1+2,f
  3735  061A  03A5               	decf	___ftadd@exp1,f
  3736  061B  0824               	movf	___ftadd@exp2,w
  3737  061C  0625               	xorwf	___ftadd@exp1,w
  3738  061D  1903               	skipnz
  3739  061E  2E2A               	goto	i1l4568
  3740  061F  03A3               	decf	___ftadd@sign,f
  3741  0620  0823               	movf	___ftadd@sign,w
  3742  0621  3907               	andlw	7
  3743  0622  1903               	btfsc	3,2
  3744  0623  2E2A               	goto	i1l4568
  3745  0624  2E16               	goto	i1l4560
  3746  0625                     i1l4566:	
  3747  0625  1003               	clrc
  3748  0626  0CFD               	rrf	___ftadd@f2+2,f
  3749  0627  0CFC               	rrf	___ftadd@f2+1,f
  3750  0628  0CFB               	rrf	___ftadd@f2,f
  3751  0629  0AA4               	incf	___ftadd@exp2,f
  3752  062A                     i1l4568:	
  3753  062A  0825               	movf	___ftadd@exp1,w
  3754  062B  0624               	xorwf	___ftadd@exp2,w
  3755  062C  1D03               	skipz
  3756  062D  2E25               	goto	i1l4566
  3757  062E                     i1l3351:	
  3758  062E  1FA3               	btfss	___ftadd@sign,7
  3759  062F  2E39               	goto	i1l4574
  3760  0630  30FF               	movlw	255
  3761  0631  06F8               	xorwf	___ftadd@f1,f
  3762  0632  06F9               	xorwf	___ftadd@f1+1,f
  3763  0633  06FA               	xorwf	___ftadd@f1+2,f
  3764  0634  0AF8               	incf	___ftadd@f1,f
  3765  0635  1903               	skipnz
  3766  0636  0AF9               	incf	___ftadd@f1+1,f
  3767  0637  1903               	skipnz
  3768  0638  0AFA               	incf	___ftadd@f1+2,f
  3769  0639                     i1l4574:	
  3770  0639  1F23               	btfss	___ftadd@sign,6
  3771  063A  2E44               	goto	i1l4580
  3772  063B  30FF               	movlw	255
  3773  063C  06FB               	xorwf	___ftadd@f2,f
  3774  063D  06FC               	xorwf	___ftadd@f2+1,f
  3775  063E  06FD               	xorwf	___ftadd@f2+2,f
  3776  063F  0AFB               	incf	___ftadd@f2,f
  3777  0640  1903               	skipnz
  3778  0641  0AFC               	incf	___ftadd@f2+1,f
  3779  0642  1903               	skipnz
  3780  0643  0AFD               	incf	___ftadd@f2+2,f
  3781  0644                     i1l4580:	
  3782  0644  01A3               	clrf	___ftadd@sign
  3783  0645  0878               	movf	___ftadd@f1,w
  3784  0646  07FB               	addwf	___ftadd@f2,f
  3785  0647  0879               	movf	___ftadd@f1+1,w
  3786  0648  1103               	clrz
  3787  0649  1803               	skipnc
  3788  064A  0A79               	incf	___ftadd@f1+1,w
  3789  064B  1D03               	btfss	3,2
  3790  064C  07FC               	addwf	___ftadd@f2+1,f
  3791  064D  087A               	movf	___ftadd@f1+2,w
  3792  064E  1103               	clrz
  3793  064F  1803               	skipnc
  3794  0650  0A7A               	incf	___ftadd@f1+2,w
  3795  0651  1D03               	btfss	3,2
  3796  0652  07FD               	addwf	___ftadd@f2+2,f
  3797  0653  1FFD               	btfss	___ftadd@f2+2,7
  3798  0654  2E60               	goto	i1l4592
  3799  0655  30FF               	movlw	255
  3800  0656  06FB               	xorwf	___ftadd@f2,f
  3801  0657  06FC               	xorwf	___ftadd@f2+1,f
  3802  0658  06FD               	xorwf	___ftadd@f2+2,f
  3803  0659  0AFB               	incf	___ftadd@f2,f
  3804  065A  1903               	skipnz
  3805  065B  0AFC               	incf	___ftadd@f2+1,f
  3806  065C  1903               	skipnz
  3807  065D  0AFD               	incf	___ftadd@f2+2,f
  3808  065E  01A3               	clrf	___ftadd@sign
  3809  065F  0AA3               	incf	___ftadd@sign,f
  3810  0660                     i1l4592:	
  3811  0660  087B               	movf	___ftadd@f2,w
  3812  0661  00F0               	movwf	?___ftpack
  3813  0662  087C               	movf	___ftadd@f2+1,w
  3814  0663  00F1               	movwf	?___ftpack+1
  3815  0664  087D               	movf	___ftadd@f2+2,w
  3816  0665  00F2               	movwf	?___ftpack+2
  3817  0666  0825               	movf	___ftadd@exp1,w
  3818  0667  00F3               	movwf	?___ftpack+3
  3819  0668  0823               	movf	___ftadd@sign,w
  3820  0669  00F4               	movwf	?___ftpack+4
  3821  066A  2672               	fcall	___ftpack
  3822  066B  0870               	movf	?___ftpack,w
  3823  066C  00F8               	movwf	?___ftadd
  3824  066D  0871               	movf	?___ftpack+1,w
  3825  066E  00F9               	movwf	?___ftadd+1
  3826  066F  0872               	movf	?___ftpack+2,w
  3827  0670  00FA               	movwf	?___ftadd+2
  3828  0671  0008               	return
  3829  0672                     __end_of___ftadd:	
  3830  0672                     __ptext425:	
  3831 ;; =============== function ___ftadd ends ============
  3832                           
  3833                           
  3834 ;; *************** function ___ftpack *****************
  3835 ;; Defined at:
  3836 ;;		line 63 in file "C:\Program Files (x86)\HI-TECH Software\PICC\9.83\sources\float.c"
  3837 ;; Parameters:    Size  Location     Type
  3838 ;;  arg             3    0[COMMON] unsigned um
  3839 ;;  exp             1    3[COMMON] unsigned char 
  3840 ;;  sign            1    4[COMMON] unsigned char 
  3841 ;; Auto vars:     Size  Location     Type
  3842 ;;		None
  3843 ;; Return value:  Size  Location     Type
  3844 ;;                  3    0[COMMON] float 
  3845 ;; Registers used:
  3846 ;;		wreg, status,2, status,0
  3847 ;; Tracked objects:
  3848 ;;		On entry : 60/0
  3849 ;;		On exit  : 60/0
  3850 ;;		Unchanged: FFF9F/0
  3851 ;; Data sizes:     COMMON   BANK0   BANK1   BANK3   BANK2
  3852 ;;      Params:         5       0       0       0       0
  3853 ;;      Locals:         0       0       0       0       0
  3854 ;;      Temps:          3       0       0       0       0
  3855 ;;      Totals:         8       0       0       0       0
  3856 ;;Total ram usage:        8 bytes
  3857 ;; Hardware stack levels used:    1
  3858 ;; This function calls:
  3859 ;;		Nothing
  3860 ;; This function is called by:
  3861 ;;		___ftadd
  3862 ;; This function uses a non-reentrant model
  3863 ;;
  3864  0672                     ___ftpack:	
  3865                           
  3866 ;; hardware stack exceeded
  3867                           ; Regs used in ___ftpack: [wreg+status,2+status,0]
  3868  0672  0873               	movf	___ftpack@exp,w
  3869  0673  1903               	btfsc	3,2
  3870  0674  2E7A               	goto	i1l4600
  3871  0675  0872               	movf	___ftpack@arg+2,w
  3872  0676  0471               	iorwf	___ftpack@arg+1,w
  3873  0677  0470               	iorwf	___ftpack@arg,w
  3874  0678  1D03               	skipz
  3875  0679  2E83               	goto	i1l4606
  3876  067A                     i1l4600:	
  3877  067A  01F0               	clrf	?___ftpack
  3878  067B  01F1               	clrf	?___ftpack+1
  3879  067C  01F2               	clrf	?___ftpack+2
  3880  067D  0008               	return
  3881  067E                     i1l4604:	
  3882  067E  0AF3               	incf	___ftpack@exp,f
  3883  067F  1003               	clrc
  3884  0680  0CF2               	rrf	___ftpack@arg+2,f
  3885  0681  0CF1               	rrf	___ftpack@arg+1,f
  3886  0682  0CF0               	rrf	___ftpack@arg,f
  3887  0683                     i1l4606:	
  3888  0683  30FE               	movlw	254
  3889  0684  0572               	andwf	___ftpack@arg+2,w
  3890  0685  1903               	btfsc	3,2
  3891  0686  2E92               	goto	i1l4610
  3892  0687  2E7E               	goto	i1l4604
  3893  0688                     i1l4608:	
  3894  0688  0AF3               	incf	___ftpack@exp,f
  3895  0689  0AF0               	incf	___ftpack@arg,f
  3896  068A  1903               	skipnz
  3897  068B  0AF1               	incf	___ftpack@arg+1,f
  3898  068C  1903               	skipnz
  3899  068D  0AF2               	incf	___ftpack@arg+2,f
  3900  068E  1003               	clrc
  3901  068F  0CF2               	rrf	___ftpack@arg+2,f
  3902  0690  0CF1               	rrf	___ftpack@arg+1,f
  3903  0691  0CF0               	rrf	___ftpack@arg,f
  3904  0692                     i1l4610:	
  3905  0692  30FF               	movlw	255
  3906  0693  0572               	andwf	___ftpack@arg+2,w
  3907  0694  1903               	btfsc	3,2
  3908  0695  2E9C               	goto	i1l4614
  3909  0696  2E88               	goto	i1l4608
  3910  0697                     i1l4612:	
  3911  0697  03F3               	decf	___ftpack@exp,f
  3912  0698  1003               	clrc
  3913  0699  0DF0               	rlf	___ftpack@arg,f
  3914  069A  0DF1               	rlf	___ftpack@arg+1,f
  3915  069B  0DF2               	rlf	___ftpack@arg+2,f
  3916  069C                     i1l4614:	
  3917  069C  1FF1               	btfss	___ftpack@arg+1,7
  3918  069D  2E97               	goto	i1l4612
  3919  069E  1C73               	btfss	___ftpack@exp,0
  3920  069F  13F1               	bcf	___ftpack@arg+1,7
  3921  06A0  1003               	clrc
  3922  06A1  0CF3               	rrf	___ftpack@exp,f
  3923  06A2  0873               	movf	___ftpack@exp,w
  3924  06A3  00F7               	movwf	??___ftpack+2
  3925  06A4  01F6               	clrf	??___ftpack+1
  3926  06A5  01F5               	clrf	??___ftpack
  3927  06A6  0875               	movf	??___ftpack,w
  3928  06A7  04F0               	iorwf	___ftpack@arg,f
  3929  06A8  0876               	movf	??___ftpack+1,w
  3930  06A9  04F1               	iorwf	___ftpack@arg+1,f
  3931  06AA  0877               	movf	??___ftpack+2,w
  3932  06AB  04F2               	iorwf	___ftpack@arg+2,f
  3933  06AC  0874               	movf	___ftpack@sign,w
  3934  06AD  1D03               	skipz
  3935  06AE  17F2               	bsf	___ftpack@arg+2,7
  3936  06AF  0008               	return
  3937  06B0                     __end_of___ftpack:	
  3938                           
  3939 ;; =============== function ___ftpack ends ============
  3940  0002                     
  3941                           	psect	intentry
  3942  0004                     __pintentry:	
  3943 ;; hardware stack exceeded
  3944                           ; Regs used in _ngat: [allreg]
  3945                           
  3946  0004                     interrupt_function:	
  3947  007E                     saved_w	set	btemp
  3948  0004  00FE               	movwf	btemp
  3949  0005  0E03               	swapf	3,w
  3950  0006  1283               	bcf	3,5	;RP0=0, select bank0
  3951  0007  1303               	bcf	3,6	;RP1=0, select bank0
  3952  0008  00A6               	movwf	??_ngat
  3953  0009  0804               	movf	4,w
  3954  000A  00A7               	movwf	??_ngat+1
  3955  000B  080A               	movf	10,w
  3956  000C  00A8               	movwf	??_ngat+2
  3957  000D  087F               	movf	btemp+1,w
  3958  000E  00A9               	movwf	??_ngat+3
  3959  000F  120A  118A  2D7B   	ljmp	_ngat
  3960                           
  3961                           	psect	functab
  3962  0100                     __pfunctab:	
  3963  0100                     fptable:	
  3964  0100  00FF               	movwf	(btemp+1)& (0+127)
  3965  0101  3001               	movlw	high fptable
  3966  0102  008A               	movwf	10
  3967  0103  087F               	movf	(btemp+1)& (0+127),w
  3968  0104  0782               	addwf	2,f
  3969  0105                     fpbase:	
  3970  0105  2905               	goto	fpbase	; Call via a null pointer and you will get stuck here.
  3971  0106                     fp__putch:	
  3972  0106  120A  118A  2B61   	ljmp	_putch
  3973  007E                     btemp	set	126	;btemp
  3974  007E                     wtemp0	set	126


HI-TECH Software PICC Macro Assembler V9.83 build 10920 
Symbol Table                                                                                   Sat Dec 24 14:07:23 2022

                    _h 0051                      _m 0053                      _s 0057                      pc 0002  
                   _ms 0055                     _rx 07BC                     _tx 07E5                     fsr 0004  
  ___wmul@multiplicand 002C           ___ftadd@exp1 0025           ___ftadd@exp2 0024          ?_lcd_put_byte 002A  
         ___ftadd@sign 0023                    ?_rx 0070                    ?_tx 0070                    _GIE 005F  
                  _RD1 0041                    _RD2 0042                    _RD3 0043                    _RD4 0044  
                  _RD5 0045                    _RD6 0046                    _RD7 0047                    _RX9 00C6  
                  _TX9 04C6                    _dem 004E                    fsr0 0004                    indf 0000  
                 ??_rx 002A                   ??_tx 002A                   l1103 07E0                   l1112 0000  
                 l1106 0000                   l1115 0000                   l1118 0000                   l2230 014D  
                 l1095 0000                   l1079 0000                   l2208 0000                   l2174 0000  
                 l3303 0000                   l5000 0000                   l3313 0000                   l2185 0000  
                 l2177 0000                   l2275 0000                   l3260 0000                   l5012 0745  
                 l5030 0000                   l5022 0000                   l5014 0000                   l4400 0000  
                 l5032 0000                   l5024 0000                   l5016 0000                   l5040 07B1  
                 l3265 0000                   l3281 0000                   l4410 0000                   l4402 0000  
                 l3274 0000                   l5034 0000                   l5026 0000                   l5018 0769  
                 l4412 0000                   l4404 0000                   l3293 0000                   l4406 0000  
                 l5038 0000                   l4408 0000                   l4440 056A                   l4432 0000  
                 l4512 0000                   l4434 0000                   l4506 0349                   l4514 035C  
                 l4428 0000                   l4452 02F8                   l4444 0000                   l4700 0000  
                 l4390 0000                   l4446 0000                   l4462 0304                   l4710 0461  
                 l4702 0000                   l4392 0000                   l4464 0000                   l4456 0000  
                 l4472 0000                   l4640 04D5                   l4632 0000                   l4624 0000  
                 l4704 0000                   l4394 0000                   l4386 0000                   l4466 0000  
                 l4458 02FC                   l4482 0321                   l4474 0000                   l4650 0503  
                 l4642 04E0                   l4634 0000                   l4626 0000                   l4730 049D  
                 l4722 0485                   l4714 046D                   l4706 0455                   l4388 0000  
                 l4396 0000                   l4492 0000                   l4484 0000                   l4652 050E  
                 l4644 0000                   l4636 0000                   l4628 0000                   l4660 0000  
                 l4740 03CA                   l4732 0000                   l4812 01E7                   l4804 0000  
                 l4900 0000                   l4398 0000                   l4494 0338                   l4654 051B  
                 l4646 0000                   l4638 04C8                   l4670 0000                   l4726 0491  
                 l4718 0479                   l4734 03B9                   l4750 0000                   l4830 022B  
                 l4806 01DB                   l4902 0000                   l4910 0000                   l4488 0000  
                 l4656 0000                   l4648 0000                   l4664 0000                   l4672 0000  
                 l4744 03D6                   l4736 03BF                   l4840 024D                   l4816 0205  
                 l4760 013F                   l4752 0000                   l4912 0000                   l4920 0000  
                 l4498 0000                   l4658 0000                   l4666 07D2                   l4674 0000  
                 l4690 0000                   l4682 0000                   l4738 03C6                   l4850 0000  
                 l4826 0222                   l4842 0254                   l4818 0209                   l4770 014F  
                 l4762 0000                   l4914 0000                   l4906 0000                   l4930 0000  
                 l4922 0000                   l4676 0000                   l4668 0000                   l4692 03A2  
                 l4684 0000                   l4748 03DD                   l4860 0295                   l4852 0274  
                 l4844 0258                   l4836 0244                   l4828 0000                   l4780 0000  
                 l4772 015A                   l4764 0149                   l4908 0000                   l4940 0000  
                 l4932 0000                   l4924 0000                   l4916 0000                   l4678 0000  
                 l4686 0398                   l4694 0000                   l4862 0000                   l4854 027E  
                 l4838 0000                   l4766 0000                   l4950 0000                   l4942 0000  
                 l4934 0000                   l4926 0000                   l4918 0000                   l4688 0399  
                 l4696 0000                   l4872 02DA                   l4848 026B                   l4864 029E  
                 l4792 0000                   l4880 02E9                   l4776 0168                   l4784 0193  
                 l4960 0000                   l4952 0000                   l4944 0000                   l4936 0000  
                 l4928 0000                   _ADFM 04FF                   l4698 0000                   l4874 0000  
                 l4866 02A3                   l4794 01BD                   l4786 01A6                   l4778 0000  
                 l4890 0000                   l4970 0000                   l4962 0000                   l4954 0000  
                 l4946 0000                   l4938 0000                   l4868 0000                   l4876 02E3  
                 l4788 0000                   l4884 0000                   l4980 0000                   l4972 0000  
                 l4964 0000                   l4956 0000                   l4948 0000                   l4798 01BF  
                 l4878 011A                   l4886 0000                   l4894 0000                   l4990 070B  
                 l4982 0000                   l4974 0000                   l4966 0000                   l4958 0000  
                 l4888 0000                   l4896 0000                   l4992 0000                   l4984 0000  
                 l4976 0000                   l4968 0000                   l4898 0000                   l4986 0000  
                 l4978 0000                   l4996 0000                   l4988 0000                   l4998 0000  
                 _ADON 00F8                   _CHS0 00FA                   _CHS1 00FB                   _CHS2 00FC  
                 _CHS3 00FD                   _ANS0 0C40                   STR_1 0057                   STR_2 0049  
                 STR_3 0050                   STR_4 0025                   STR_5 0040                   STR_6 0036  
                 _BRGH 04C2                   _CREN 00C4                   u1205 032A                   u1245 034F  
                 u2207 041E                   u1600 04EA                   u2217 0432                   u2145 0772  
                 u2307 04EE                   u2227 0440                   u2155 0789                   u2075 0719  
                 u1620 0501                   u1540 04C6                   u2317 04F4                   u2237 044E  
                 u2165 07A0                   u1614 04EC                   u2327 0528                   u2247 053E  
                 u1640 050C                   u1560 04D3                   u2337 052E                   u2257 0545  
                 u2177 06DD                   u2267 0550                   u2187 03F8                   u1660 0519  
                 u1580 04DE                   u2277 0557                   u2197 040B                   u2287 04B1  
                 u1680 0524                   u2297 04B7                   u1925 01F6                   u1694 0526  
                 _PEIE 005E                   u1885 01D4                   _RBIE 005B                   _RBIF 0058  
                 _RCIE 0465                   _RCIF 0065                   _SPEN 00C7                   _TXEN 04C5  
                 _TXIF 0064                   _SYNC 04C4                   _WPUB 0095                   _main 06B0  
                 _ngat 057B           ___ftpack@arg 0070           ___ftpack@exp 0073           lcd_busy@busy 002B  
                 btemp 007E                   start 0012         ??_lcd_put_byte 002B                  _ADCS0 00FE  
                _ADCS1 00FF                  ?_main 0070                  ?_ngat 0070        __end_of___ftadd 0672  
                _BRG16 0C3B                  _ANSEL 0188        __end_of___lwdiv 033D        __end_of___lwmod 0361  
                _VCFG0 04FC                  _VCFG1 04FD                  _TMR1H 000F                  _TMR1L 000E  
                _SPBRG 0099        __end_of__doprnt 02EC                  _TRISD 0088                  _TXREG 0019  
                _nRBPU 040F        __end_of_isdigit 02FA          ___ftpack@sign 0074                  _putch 0361  
                fpbase 0105        __end_of_isprint 056C                  pclath 000A                  status 0003  
                wtemp0 007E        __end_of_sprintf 0119           __end_of_main 07BC           __end_of_ngat 05B2  
        lcd_gotoxy@col 0030          lcd_gotoxy@row 002F                 ??_main 004C                 ??_ngat 0026  
               ?_putch 0033       __end_of___ftpack 06B0                 _ANSELH 0189                 i1l1100 0000  
               u110_25 059E                 i1l3351 062E                 i1l4420 0000                 i1l4414 0000  
               i1l4600 067A                 i1l4520 0000                 i1l4424 0000                 i1l4416 0000  
               i1l4610 0692                 i1l4530 05DC                 i1l4522 0000                 i1l4426 05A6  
               _T1SYNC 0082                 i1l4620 0000                 i1l4612 0697                 i1l4604 067E  
               i1l4532 0000                 i1l4622 0000                 i1l4614 069C                 i1l4606 0683  
               i1l4550 0000                 i1l4526 05D5                 i1l4518 0000                 i1l4608 0688  
               i1l4560 0616                 i1l4544 0000                 i1l4536 05EB                 i1l4618 0000  
               i1l4562 0000                 i1l4554 0608                 i1l4546 0000                 i1l4538 0000  
               i1l4580 0644                 i1l4572 0000                 i1l4556 060D                 i1l4548 05F9  
               i1l4590 0000                 i1l4582 0000                 i1l4574 0639                 i1l4566 0625  
               i1l4558 0612                 i1l4592 0660                 i1l4584 0000                 i1l4568 062A  
               i1l4578 0000                 i1l4596 0000                 i1l4588 0000                 i1l4598 0000  
         ?_send_string 0070                 _TMR1GE 0086                 _TMR1IE 0460                 _TMR1IF 0060  
               _TMR1CS 0081                 _SPBRGH 009A                 _TMR1ON 0080                 _TRISA0 0428  
               _TRISB0 0430                 _TRISA4 042C                 _TRISD1 0441                 _TRISE0 0448  
               _TRISD2 0442                 _TRISD3 0443                 _TRISD4 0444                 _TRISD5 0445  
               _TRISD6 0446                 _TRISD7 0447       __end_of_lcd_busy 055E       __end_of_lcd_init 04A4  
     __end_of_lcd_putc 03E6   __size_of_lcd_counter 002E                 ___wmul 02FA              ??___ftadd 0020  
            ??___lwdiv 002E              ??___lwmod 0035              ??__doprnt 0038           __doprnt@_val 003C  
         __doprnt@flag 0040                 _printf 03A9           __doprnt@prec 003B                 clrloop 005E  
        lcd_put_byte@b 002A                 fptable 0100                 fptotal 0002              ??_isdigit 002A  
               saved_w 007E              ??_isprint 002A                 putch@c 0033              ??_sprintf 0048  
 __end_of_lcd_put_byte 0533             ___ftadd@f1 0078             ___ftadd@f2 007B         __pcstackCOMMON 0070  
        __end_of_putch 0363             __end_of_rx 07D1             __end_of_tx 07F4      lcd_gotoxy@address 0031  
           __doprnt@ap 0037             __doprnt@pb 0044                ??_putch 0034             __pbssBANK0 004E  
           __pmaintext 06B0                ?___wmul 002A             __pintentry 0004     __size_of_send_char 0006  
            ?___ftpack 0070                ?_printf 0045                _T1CKPS0 0084                _T1CKPS1 0085  
           _lcd_gotoxy 0391              ?_lcd_busy 0070              ?_lcd_init 0070              ?_lcd_putc 0070  
 __size_of_send_string 000E                ___ftadd 05B2        __size_of___wmul 0019                ___lwdiv 0313  
              ___lwmod 033D                __doprnt 0119                _data_rx 0059             ??___ftpack 0075  
      __size_of_printf 000E                _dpowers 001B                _isdigit 02EC                _isprint 055E  
__size_of_lcd_put_byte 008F                _sprintf 0109          __doprnt@width 0041             ??_lcd_busy 002A  
           ??_lcd_init 002F             ??_lcd_putc 0032   end_of_initialization 07FB         lcd_put_byte@rs 002D  
    __end_of_send_char 07E5                printf@f 0047          send_char@data 002A           _lcd_put_byte 04A4  
          ?_lcd_gotoxy 002F          ??_lcd_counter 004B         __end_of___wmul 0313         __end_of_printf 03B7  
  start_initialization 07F4    __size_of_lcd_gotoxy 0018               ??___wmul 002E    __end_of_lcd_counter 0391  
             ??_printf 0047      __size_of___ftpack 003E          __pcstackBANK0 0020           _isdigit$3700 002A  
    __size_of_lcd_busy 002B      __size_of_lcd_init 00BE              __doprnt@c 0043              __doprnt@f 0036  
    __size_of_lcd_putc 002F       ___lwdiv@dividend 002C              __pfunctab 0100               ?___ftadd 0078  
            __ptext410 03E6              __ptext411 0391              __ptext420 07DF              __ptext412 0533  
            __ptext404 0363              __ptext421 07BC              __ptext413 07D1              __ptext405 0109  
            __ptext422 07E5              __ptext414 04A4              __ptext406 03A9              __ptext423 057B  
            __ptext415 033D              __ptext407 0119              __ptext424 05B2              __ptext416 0313  
            __ptext408 0361              __ptext425 0672              __ptext417 02FA              __ptext409 03B7  
            __ptext418 02EC              __ptext419 055E               ?___lwdiv 002A               ?___lwmod 0031  
             ?__doprnt 0036              __pstrings 0015               ?_isdigit 0070               ?_isprint 0070  
     ___lwdiv@quotient 002E               ?_sprintf 0045         __size_of_putch 0002          ??_send_string 002B  
          __size_of_rx 0015            __size_of_tx 000F      interrupt_function 0004         ___wmul@product 002E  
            _send_char 07DF            _lcd_counter 0363            __stringbase 001A      ___wmul@multiplier 002A  
            lcd_putc@c 0032           ??_lcd_gotoxy 0030       lcd_put_byte@temp 002E           _isprint$3703 002A  
           ?_send_char 0070           send_string@s 002B    __end_of_send_string 07DF     __end_of_lcd_gotoxy 03A9  
     __size_of___ftadd 00C0       __size_of___lwdiv 002A       __size_of___lwmod 0024               ___ftpack 0672  
     __size_of__doprnt 01D3       __size_of_isdigit 000E        ___lwdiv@divisor 002A        ___lwdiv@counter 0030  
     __size_of_isprint 000E               _lcd_busy 0533               _lcd_init 03E6               _lcd_putc 03B7  
     __size_of_sprintf 0010          __size_of_main 010C          __size_of_ngat 0037               clear_ram 005D  
             fp__putch 0106               isdigit@c 002B               intlevel1 0100              sprintf@ap 0049  
            sprintf@pb 004A              sprintf@wh 0048            _send_string 07D1       ___lwmod@dividend 0033  
             isprint@c 002B            ??_send_char 002A              stringcode 0015               printf@ap 0048  
             printf@pb 0049               sprintf@f 0045        ___lwmod@divisor 0031        ___lwmod@counter 0035  
             stringdir 0015               stringtab 0015           ?_lcd_counter 0070  
