

HI-TECH Software PIC PRO Macro Assembler V9.83 build 10920 
                                                                                               Sun Dec 25 10:26:28 2022

HI-TECH Software Omniscient Code Generator (PRO mode) build 10920
     1                           	processor	16F887
     2                           	opt	pw 120
     3                           	opt	pm
     4                           	psect	config,global,class=CONFIG,delta=2
     5                           	psect	strings,global,class=STRING,delta=2
     6                           	psect	cinit,global,class=CODE,delta=2
     7                           	psect	bssBANK0,global,class=BANK0,space=1,delta=1
     8                           	psect	cstackCOMMON,global,class=COMMON,space=1,delta=1
     9                           	psect	cstackBANK0,global,class=BANK0,space=1,delta=1
    10                           	psect	maintext,global,class=CODE,delta=2
    11                           	psect	text463,local,class=CODE,delta=2
    12                           	psect	text465,local,class=CODE,delta=2
    13                           	psect	text469,local,class=CODE,delta=2
    14                           	psect	text474,local,class=CODE,delta=2
    15                           	psect	text475,local,class=CODE,delta=2
    16                           	psect	text483,local,class=CODE,delta=2
    17                           	psect	text484,local,class=CODE,delta=2
    18                           	psect	text485,local,class=CODE,delta=2
    19                           	psect	intentry,global,class=CODE,delta=2
    20                           	psect	functab,global,reloc=256,class=CODE,delta=2
    21                           	psect	pa_nodes,global,class=CODE,delta=2
    22                           	dabs	1,0x7E,2
    23  000A                     	;#
    24                           
    25                           	psect	config
    26  2007  E3C2               	dw	58306	;#
    27                           
    28                           	psect	strings
    29  0011                     __pstrings:	
    30  0011                     stringtab:	
    31                           ;	global	stringdir,stringtab,__stringbase
    32                           
    33  0011                     stringcode:	
    34                           ;	String table - string pointers are 1 byte each
    35                           
    36  0011                     stringdir:	
    37  0011  3000               	movlw	high stringdir
    38  0012  008A               	movwf	10
    39  0013  0804               	movf	4,w
    40  0014  0A84               	incf	4,f
    41  0015  0782               	addwf	2,f
    42  0016                     __stringbase:	
    43  0016  3400               	retlw	0
    44  0017                     _dpowers:	
    45  0017  3401               	retlw	1
    46  0018  3400               	retlw	0
    47  0019  340A               	retlw	10
    48  001A  3400               	retlw	0
    49  001B  3464               	retlw	100
    50  001C  3400               	retlw	0
    51  001D  34E8               	retlw	232
    52  001E  3403               	retlw	3
    53  001F  3410               	retlw	16
    54  0020  3427               	retlw	39
    55  0001                     _TMR0	set	1
    56  0019                     _TXREG	set	25
    57  00C4                     _CREN	set	196
    58  005F                     _GIE	set	95
    59  005E                     _PEIE	set	94
    60  0065                     _RCIF	set	101
    61  0041                     _RD1	set	65
    62  0042                     _RD2	set	66
    63  0043                     _RD3	set	67
    64  0044                     _RD4	set	68
    65  0045                     _RD5	set	69
    66  0046                     _RD6	set	70
    67  0047                     _RD7	set	71
    68  00C6                     _RX9	set	198
    69  00C7                     _SPEN	set	199
    70  005D                     _T0IE	set	93
    71  005A                     _T0IF	set	90
    72  0064                     _TXIF	set	100
    73  0099                     _SPBRG	set	153
    74  009A                     _SPBRGH	set	154
    75  0088                     _TRISD	set	136
    76  04C2                     _BRGH	set	1218
    77  040B                     _PSA	set	1035
    78  0465                     _RCIE	set	1125
    79  04C4                     _SYNC	set	1220
    80  040D                     _T0CS	set	1037
    81  040C                     _T0SE	set	1036
    82  042C                     _TRISA4	set	1068
    83  0441                     _TRISD1	set	1089
    84  0442                     _TRISD2	set	1090
    85  0443                     _TRISD3	set	1091
    86  0444                     _TRISD4	set	1092
    87  0445                     _TRISD5	set	1093
    88  0446                     _TRISD6	set	1094
    89  0447                     _TRISD7	set	1095
    90  0448                     _TRISE0	set	1096
    91  04C6                     _TX9	set	1222
    92  04C5                     _TXEN	set	1221
    93  0188                     _ANSEL	set	392
    94  0189                     _ANSELH	set	393
    95  0C3B                     _BRG16	set	3131
    96  0021                     STR_1:	
    97  0021  344E               	retlw	78	;'N'
    98  0022  3467               	retlw	103	;'g'
    99  0023  3475               	retlw	117	;'u'
   100  0024  3479               	retlw	121	;'y'
   101  0025  3465               	retlw	101	;'e'
   102  0026  346E               	retlw	110	;'n'
   103  0027  3420               	retlw	32	;' '
   104  0028  3450               	retlw	80	;'P'
   105  0029  3468               	retlw	104	;'h'
   106  002A  3475               	retlw	117	;'u'
   107  002B  3463               	retlw	99	;'c'
   108  002C  3420               	retlw	32	;' '
   109  002D  3444               	retlw	68	;'D'
   110  002E  3475               	retlw	117	;'u'
   111  002F  346E               	retlw	110	;'n'
   112  0030  3467               	retlw	103	;'g'
   113  0031  3400               	retlw	0
   114  0032                     STR_3:	
   115  0032  344E               	retlw	78	;'N'
   116  0033  3468               	retlw	104	;'h'
   117  0034  3461               	retlw	97	;'a'
   118  0035  346E               	retlw	110	;'n'
   119  0036  3420               	retlw	32	;' '
   120  0037  346E               	retlw	110	;'n'
   121  0038  3475               	retlw	117	;'u'
   122  0039  3474               	retlw	116	;'t'
   123  003A  343A               	retlw	58	;':'
   124  003B  3425               	retlw	37	;'%'
   125  003C  3430               	retlw	48	;'0'
   126  003D  3433               	retlw	51	;'3'
   127  003E  3464               	retlw	100	;'d'
   128  003F  3420               	retlw	32	;' '
   129  0040  3400               	retlw	0
   130  0041                     STR_2:	
   131  0041  344E               	retlw	78	;'N'
   132  0042  3468               	retlw	104	;'h'
   133  0043  3461               	retlw	97	;'a'
   134  0044  346E               	retlw	110	;'n'
   135  0045  3420               	retlw	32	;' '
   136  0046  346E               	retlw	110	;'n'
   137  0047  3475               	retlw	117	;'u'
   138  0048  3474               	retlw	116	;'t'
   139  0049  343A               	retlw	58	;':'
   140  004A  3420               	retlw	32	;' '
   141  004B  3425               	retlw	37	;'%'
   142  004C  3430               	retlw	48	;'0'
   143  004D  3433               	retlw	51	;'3'
   144  004E  3464               	retlw	100	;'d'
   145  004F  3400               	retlw	0
   146                           
   147                           	psect	cinit
   148  005E                     start_initialization:	
   149                           
   150                           ; Clear objects allocated to BANK0
   151  005E  01E2               	clrf	__pbssBANK0& (0+127)
   152  005F  01E3               	clrf	(__pbssBANK0+1)& (0+127)
   153  0060  01E4               	clrf	(__pbssBANK0+2)& (0+127)
   154  0061  01E5               	clrf	(__pbssBANK0+3)& (0+127)
   155  0062  01E6               	clrf	(__pbssBANK0+4)& (0+127)
   156  0063                     end_of_initialization:	
   157                           ;End of C runtime variable initialization code
   158                           
   159  0063  0183               	clrf	3
   160  0064  120A  118A  2EE6   	ljmp	_main	;jump to C main() function
   161                           
   162                           	psect	bssBANK0
   163  0062                     __pbssBANK0:	
   164  0062                     _dem:	
   165  0062                     	ds	3
   166  0065                     _count1:	
   167  0065                     	ds	2
   168                           
   169                           	psect	cstackCOMMON
   170  0070                     __pcstackCOMMON:	
   171  0070                     ?_lcd_init:	
   172  0070                     ?_tx:	
   173                           ; 0 bytes @ 0x0
   174                           
   175  0070                     ?_rx:	
   176                           ; 0 bytes @ 0x0
   177                           
   178  0070                     ?_send_string:	
   179                           ; 0 bytes @ 0x0
   180                           
   181  0070                     ?_lcd_putc:	
   182                           ; 0 bytes @ 0x0
   183                           
   184  0070                     ?_isprint:	
   185                           ; 0 bytes @ 0x0
   186                           
   187  0070                     ?_isdigit:	
   188                           ; 1 bit 
   189                           
   190  0070                     ?_main:	
   191                           ; 1 bit 
   192                           
   193  0070                     ?_ngat:	
   194                           ; 0 bytes @ 0x0
   195                           
   196  0070                     ?_send_char:	
   197                           ; 0 bytes @ 0x0
   198                           
   199  0070                     ?_lcd_busy:	
   200                           ; 0 bytes @ 0x0
   201                           
   202  0070                     ?i1___ftpack:	
   203                           ; 1 bytes @ 0x0
   204                           
   205  0070                     i1___ftpack@arg:	
   206                           ; 3 bytes @ 0x0
   207                           
   208                           
   209                           ; 3 bytes @ 0x0
   210  0070                     	ds	3
   211  0073                     i1___ftpack@exp:	
   212                           
   213                           ; 1 bytes @ 0x3
   214  0073                     	ds	1
   215  0074                     i1___ftpack@sign:	
   216                           
   217                           ; 1 bytes @ 0x4
   218  0074                     	ds	1
   219  0075                     ??i1___ftpack:	
   220                           
   221                           ; 0 bytes @ 0x5
   222  0075                     	ds	3
   223  0078                     ?i1___ftadd:	
   224  0078                     i1___ftadd@f1:	
   225                           ; 3 bytes @ 0x8
   226                           
   227                           
   228                           ; 3 bytes @ 0x8
   229  0078                     	ds	3
   230  007B                     i1___ftadd@f2:	
   231                           
   232                           ; 3 bytes @ 0xB
   233  007B                     	ds	3
   234                           
   235                           	psect	cstackBANK0
   236  0020                     __pcstackBANK0:	
   237  0020                     ??i1___ftadd:	
   238                           
   239                           ; 0 bytes @ 0x0
   240  0020                     	ds	3
   241  0023                     i1___ftadd@sign:	
   242                           
   243                           ; 1 bytes @ 0x3
   244  0023                     	ds	1
   245  0024                     i1___ftadd@exp2:	
   246                           
   247                           ; 1 bytes @ 0x4
   248  0024                     	ds	1
   249  0025                     i1___ftadd@exp1:	
   250                           
   251                           ; 1 bytes @ 0x5
   252  0025                     	ds	1
   253  0026                     ??_ngat:	
   254                           
   255                           ; 0 bytes @ 0x6
   256  0026                     	ds	2
   257  0028                     ??_tx:	
   258  0028                     ??_rx:	
   259                           ; 0 bytes @ 0x8
   260                           
   261  0028                     ?_lcd_put_byte:	
   262                           ; 0 bytes @ 0x8
   263                           
   264  0028                     ??_lcd_busy:	
   265                           ; 0 bytes @ 0x8
   266                           
   267  0028                     ??_isprint:	
   268                           ; 0 bytes @ 0x8
   269                           
   270  0028                     ??_isdigit:	
   271                           ; 0 bytes @ 0x8
   272                           
   273  0028                     ??_send_char:	
   274                           ; 0 bytes @ 0x8
   275                           
   276  0028                     ?___wmul:	
   277                           ; 0 bytes @ 0x8
   278                           
   279  0028                     ?___lwdiv:	
   280                           ; 2 bytes @ 0x8
   281                           
   282  0028                     ?___ftpack:	
   283                           ; 2 bytes @ 0x8
   284                           
   285  0028                     send_char@data:	
   286                           ; 3 bytes @ 0x8
   287                           
   288  0028                     lcd_put_byte@b:	
   289                           ; 1 bytes @ 0x8
   290                           
   291  0028                     _isdigit$3687:	
   292                           ; 1 bytes @ 0x8
   293                           
   294  0028                     _isprint$3690:	
   295                           ; 1 bytes @ 0x8
   296                           
   297  0028                     ___wmul@multiplier:	
   298                           ; 1 bytes @ 0x8
   299                           
   300  0028                     ___lwdiv@divisor:	
   301                           ; 2 bytes @ 0x8
   302                           
   303  0028                     ___ftpack@arg:	
   304                           ; 2 bytes @ 0x8
   305                           
   306                           
   307                           ; 3 bytes @ 0x8
   308  0028                     	ds	1
   309  0029                     ??_send_string:	
   310  0029                     ??_lcd_put_byte:	
   311                           ; 0 bytes @ 0x9
   312                           
   313  0029                     send_string@s:	
   314                           ; 0 bytes @ 0x9
   315                           
   316  0029                     lcd_busy@busy:	
   317                           ; 1 bytes @ 0x9
   318                           
   319  0029                     isdigit@c:	
   320                           ; 1 bytes @ 0x9
   321                           
   322  0029                     isprint@c:	
   323                           ; 1 bytes @ 0x9
   324                           
   325                           
   326                           ; 1 bytes @ 0x9
   327  0029                     	ds	1
   328  002A                     ___wmul@multiplicand:	
   329  002A                     ___lwdiv@dividend:	
   330                           ; 2 bytes @ 0xA
   331                           
   332                           
   333                           ; 2 bytes @ 0xA
   334  002A                     	ds	1
   335  002B                     lcd_put_byte@rs:	
   336  002B                     ___ftpack@exp:	
   337                           ; 1 bytes @ 0xB
   338                           
   339                           
   340                           ; 1 bytes @ 0xB
   341  002B                     	ds	1
   342  002C                     ??___wmul:	
   343  002C                     ??___lwdiv:	
   344                           ; 0 bytes @ 0xC
   345                           
   346  002C                     lcd_put_byte@temp:	
   347                           ; 0 bytes @ 0xC
   348                           
   349  002C                     ___ftpack@sign:	
   350                           ; 1 bytes @ 0xC
   351                           
   352  002C                     ___wmul@product:	
   353                           ; 1 bytes @ 0xC
   354                           
   355  002C                     ___lwdiv@quotient:	
   356                           ; 2 bytes @ 0xC
   357                           
   358                           
   359                           ; 2 bytes @ 0xC
   360  002C                     	ds	1
   361  002D                     ??_lcd_init:	
   362  002D                     ?_lcd_gotoxy:	
   363                           ; 0 bytes @ 0xD
   364                           
   365  002D                     ??___ftpack:	
   366                           ; 0 bytes @ 0xD
   367                           
   368  002D                     lcd_gotoxy@row:	
   369                           ; 0 bytes @ 0xD
   370                           
   371                           
   372                           ; 1 bytes @ 0xD
   373  002D                     	ds	1
   374  002E                     ??_lcd_gotoxy:	
   375  002E                     lcd_gotoxy@col:	
   376                           ; 0 bytes @ 0xE
   377                           
   378  002E                     ___lwdiv@counter:	
   379                           ; 1 bytes @ 0xE
   380                           
   381                           
   382                           ; 1 bytes @ 0xE
   383  002E                     	ds	1
   384  002F                     ?___lwmod:	
   385  002F                     lcd_gotoxy@address:	
   386                           ; 2 bytes @ 0xF
   387                           
   388  002F                     ___lwmod@divisor:	
   389                           ; 1 bytes @ 0xF
   390                           
   391                           
   392                           ; 2 bytes @ 0xF
   393  002F                     	ds	1
   394  0030                     ??_lcd_putc:	
   395  0030                     ?___fttol:	
   396                           ; 0 bytes @ 0x10
   397                           
   398  0030                     lcd_putc@c:	
   399                           ; 4 bytes @ 0x10
   400                           
   401  0030                     ___fttol@f1:	
   402                           ; 1 bytes @ 0x10
   403                           
   404                           
   405                           ; 3 bytes @ 0x10
   406  0030                     	ds	1
   407  0031                     ?_putch:	
   408  0031                     putch@c:	
   409                           ; 0 bytes @ 0x11
   410                           
   411  0031                     ___lwmod@dividend:	
   412                           ; 1 bytes @ 0x11
   413                           
   414                           
   415                           ; 2 bytes @ 0x11
   416  0031                     	ds	1
   417  0032                     ??_putch:	
   418                           
   419                           ; 0 bytes @ 0x12
   420  0032                     	ds	1
   421  0033                     ??___lwmod:	
   422  0033                     ___lwmod@counter:	
   423                           ; 0 bytes @ 0x13
   424                           
   425                           
   426                           ; 1 bytes @ 0x13
   427  0033                     	ds	1
   428  0034                     ??___fttol:	
   429  0034                     ?__doprnt:	
   430                           ; 0 bytes @ 0x14
   431                           
   432  0034                     __doprnt@f:	
   433                           ; 2 bytes @ 0x14
   434                           
   435                           
   436                           ; 1 bytes @ 0x14
   437  0034                     	ds	1
   438  0035                     __doprnt@ap:	
   439                           
   440                           ; 1 bytes @ 0x15
   441  0035                     	ds	1
   442  0036                     ??__doprnt:	
   443                           
   444                           ; 0 bytes @ 0x16
   445  0036                     	ds	1
   446  0037                     ___fttol@sign1:	
   447                           
   448                           ; 1 bytes @ 0x17
   449  0037                     	ds	1
   450  0038                     ___fttol@lval:	
   451                           
   452                           ; 4 bytes @ 0x18
   453  0038                     	ds	1
   454  0039                     __doprnt@prec:	
   455                           
   456                           ; 1 bytes @ 0x19
   457  0039                     	ds	1
   458  003A                     __doprnt@_val:	
   459                           
   460                           ; 4 bytes @ 0x1A
   461  003A                     	ds	2
   462  003C                     ___fttol@exp1:	
   463                           
   464                           ; 1 bytes @ 0x1C
   465  003C                     	ds	1
   466  003D                     ?___ftmul:	
   467  003D                     ?___lbtoft:	
   468                           ; 3 bytes @ 0x1D
   469                           
   470  003D                     ___ftmul@f1:	
   471                           ; 3 bytes @ 0x1D
   472                           
   473                           
   474                           ; 3 bytes @ 0x1D
   475  003D                     	ds	1
   476  003E                     __doprnt@flag:	
   477                           
   478                           ; 1 bytes @ 0x1E
   479  003E                     	ds	1
   480  003F                     __doprnt@width:	
   481                           
   482                           ; 2 bytes @ 0x1F
   483  003F                     	ds	1
   484  0040                     ??___lbtoft:	
   485  0040                     ___lbtoft@c:	
   486                           ; 0 bytes @ 0x20
   487                           
   488  0040                     ___ftmul@f2:	
   489                           ; 1 bytes @ 0x20
   490                           
   491                           
   492                           ; 3 bytes @ 0x20
   493  0040                     	ds	1
   494  0041                     __doprnt@c:	
   495                           
   496                           ; 1 bytes @ 0x21
   497  0041                     	ds	1
   498  0042                     __doprnt@pb:	
   499                           
   500                           ; 1 bytes @ 0x22
   501  0042                     	ds	1
   502  0043                     ??___ftmul:	
   503  0043                     ?_printf:	
   504                           ; 0 bytes @ 0x23
   505                           
   506  0043                     ?_sprintf:	
   507                           ; 2 bytes @ 0x23
   508                           
   509  0043                     sprintf@f:	
   510                           ; 2 bytes @ 0x23
   511                           
   512                           
   513                           ; 1 bytes @ 0x23
   514  0043                     	ds	2
   515  0045                     ??_printf:	
   516  0045                     printf@f:	
   517                           ; 0 bytes @ 0x25
   518                           
   519                           
   520                           ; 1 bytes @ 0x25
   521  0045                     	ds	1
   522  0046                     ??_sprintf:	
   523  0046                     printf@ap:	
   524                           ; 0 bytes @ 0x26
   525                           
   526  0046                     sprintf@wh:	
   527                           ; 1 bytes @ 0x26
   528                           
   529  0046                     ___ftmul@exp:	
   530                           ; 1 bytes @ 0x26
   531                           
   532                           
   533                           ; 1 bytes @ 0x26
   534  0046                     	ds	1
   535  0047                     sprintf@ap:	
   536  0047                     printf@pb:	
   537                           ; 1 bytes @ 0x27
   538                           
   539  0047                     ___ftmul@f3_as_product:	
   540                           ; 2 bytes @ 0x27
   541                           
   542                           
   543                           ; 3 bytes @ 0x27
   544  0047                     	ds	1
   545  0048                     sprintf@pb:	
   546                           
   547                           ; 2 bytes @ 0x28
   548  0048                     	ds	2
   549  004A                     ___ftmul@cntr:	
   550                           
   551                           ; 1 bytes @ 0x2A
   552  004A                     	ds	1
   553  004B                     ___ftmul@sign:	
   554                           
   555                           ; 1 bytes @ 0x2B
   556  004B                     	ds	1
   557  004C                     ?___ftadd:	
   558  004C                     ___ftadd@f1:	
   559                           ; 3 bytes @ 0x2C
   560                           
   561                           
   562                           ; 3 bytes @ 0x2C
   563  004C                     	ds	3
   564  004F                     ___ftadd@f2:	
   565                           
   566                           ; 3 bytes @ 0x2F
   567  004F                     	ds	3
   568  0052                     ??___ftadd:	
   569                           
   570                           ; 0 bytes @ 0x32
   571  0052                     	ds	3
   572  0055                     ___ftadd@sign:	
   573                           
   574                           ; 1 bytes @ 0x35
   575  0055                     	ds	1
   576  0056                     ___ftadd@exp2:	
   577                           
   578                           ; 1 bytes @ 0x36
   579  0056                     	ds	1
   580  0057                     ___ftadd@exp1:	
   581                           
   582                           ; 1 bytes @ 0x37
   583  0057                     	ds	1
   584  0058                     ??_main:	
   585  0058                     main@data_tx:	
   586                           ; 0 bytes @ 0x38
   587                           
   588                           
   589                           ; 10 bytes @ 0x38
   590  0058                     	ds	10
   591                           
   592                           	psect	maintext
   593  06E6                     __pmaintext:	
   594 ;;Data sizes: Strings 47, constant 10, data 0, bss 5, persistent 0 stack 0
   595 ;;Auto spaces:   Size  Autos    Used
   596 ;; COMMON          14     14      14
   597 ;; BANK0           80     66      71
   598 ;; BANK1           80      0       0
   599 ;; BANK3           96      0       0
   600 ;; BANK2           96      0       0
   601 ;;
   602 ;; Pointer list with targets:
   603 ;; ?i1___ftpack	float  size(1) Largest target is 0
   604 ;;
   605 ;; ?i1___ftadd	float  size(1) Largest target is 0
   606 ;;
   607 ;; ?___lbtoft	float  size(1) Largest target is 0
   608 ;;
   609 ;; ?___ftpack	float  size(1) Largest target is 0
   610 ;;
   611 ;; ?___lwdiv	unsigned int  size(1) Largest target is 0
   612 ;;
   613 ;; ?___lwmod	unsigned int  size(1) Largest target is 2
   614 ;;		 -> ?_sprintf(BANK0[2]), ?_printf(BANK0[2]), 
   615 ;;
   616 ;; ?___wmul	unsigned int  size(1) Largest target is 0
   617 ;;
   618 ;; ?___fttol	long  size(1) Largest target is 0
   619 ;;
   620 ;; ?___ftadd	float  size(1) Largest target is 0
   621 ;;
   622 ;; ?___ftmul	float  size(1) Largest target is 0
   623 ;;
   624 ;; sprintf@f	PTR const unsigned char  size(1) Largest target is 15
   625 ;;		 -> STR_3(CODE[15]), 
   626 ;;
   627 ;; ?_sprintf	int  size(1) Largest target is 10
   628 ;;		 -> NULL(NULL[0]), main@data_tx(BANK0[10]), 
   629 ;;
   630 ;; sprintf@ap	PTR void [1] size(1) Largest target is 2
   631 ;;		 -> ?_sprintf(BANK0[2]), ?_printf(BANK0[2]), 
   632 ;;
   633 ;; sprintf@wh	PTR unsigned char  size(1) Largest target is 10
   634 ;;		 -> main@data_tx(BANK0[10]), 
   635 ;;
   636 ;; pb.func	PTR FTN(unsigned char ,)void  size(1) Largest target is 0
   637 ;;		 -> Absolute function(), putch(), 
   638 ;;
   639 ;; pb.ptr	PTR unsigned char  size(1) Largest target is 10
   640 ;;		 -> NULL(NULL[0]), main@data_tx(BANK0[10]), 
   641 ;;
   642 ;; printf@f	PTR const unsigned char  size(1) Largest target is 17
   643 ;;		 -> STR_2(CODE[15]), STR_1(CODE[17]), 
   644 ;;
   645 ;; ?_printf	int  size(1) Largest target is 0
   646 ;;
   647 ;; printf@ap	PTR void [1] size(1) Largest target is 2
   648 ;;		 -> ?_sprintf(BANK0[2]), ?_printf(BANK0[2]), 
   649 ;;
   650 ;; pb.func	PTR FTN(unsigned char ,)void  size(1) Largest target is 0
   651 ;;		 -> Absolute function(), putch(), 
   652 ;;
   653 ;; pb.ptr	PTR unsigned char  size(1) Largest target is 10
   654 ;;		 -> NULL(NULL[0]), main@data_tx(BANK0[10]), 
   655 ;;
   656 ;; _doprnt@ap	PTR PTR void  size(1) Largest target is 2
   657 ;;		 -> sprintf@ap(BANK0[1]), printf@ap(BANK0[1]), 
   658 ;;
   659 ;; _doprnt@f	PTR const unsigned char  size(1) Largest target is 17
   660 ;;		 -> STR_3(CODE[15]), STR_2(CODE[15]), STR_1(CODE[17]), 
   661 ;;
   662 ;; S3137__prbuf$func	PTR FTN(unsigned char ,)void  size(1) Largest target is 0
   663 ;;		 -> Absolute function(), putch(), 
   664 ;;
   665 ;; _doprnt@pb.func	PTR FTN(unsigned char ,)void  size(1) Largest target is 0
   666 ;;		 -> Absolute function(), putch(), 
   667 ;;
   668 ;; S3137__prbuf$ptr	PTR unsigned char  size(1) Largest target is 10
   669 ;;		 -> NULL(NULL[0]), main@data_tx(BANK0[10]), 
   670 ;;
   671 ;; _doprnt@pb.ptr	PTR unsigned char  size(1) Largest target is 10
   672 ;;		 -> NULL(NULL[0]), main@data_tx(BANK0[10]), 
   673 ;;
   674 ;; _doprnt@pb	PTR struct __prbuf size(1) Largest target is 3
   675 ;;		 -> sprintf@pb(BANK0[2]), printf@pb(BANK0[2]), 
   676 ;;
   677 ;; S3162$_cp	PTR const unsigned char  size(1) Largest target is 0
   678 ;;
   679 ;; _val._str._cp	PTR const unsigned char  size(1) Largest target is 0
   680 ;;
   681 ;; send_string@s	PTR const unsigned char  size(1) Largest target is 10
   682 ;;		 -> main@data_tx(BANK0[10]), 
   683 ;;
   684 ;;
   685 ;; Critical Paths under _main in COMMON
   686 ;;
   687 ;;   None.
   688 ;;
   689 ;; Critical Paths under _ngat in COMMON
   690 ;;
   691 ;;   _ngat->i1___ftadd
   692 ;;   i1___ftadd->i1___ftpack
   693 ;;
   694 ;; Critical Paths under _main in BANK0
   695 ;;
   696 ;;   _main->___ftadd
   697 ;;   _sprintf->__doprnt
   698 ;;   _printf->__doprnt
   699 ;;   __doprnt->___lwmod
   700 ;;   _putch->_lcd_putc
   701 ;;   _lcd_putc->_lcd_gotoxy
   702 ;;   _lcd_gotoxy->_lcd_put_byte
   703 ;;   _lcd_init->_lcd_put_byte
   704 ;;   ___lbtoft->___fttol
   705 ;;   ___ftmul->___fttol
   706 ;;   ___ftadd->___ftmul
   707 ;;   _send_string->_send_char
   708 ;;   ___fttol->___ftpack
   709 ;;   ___lwmod->___lwdiv
   710 ;;
   711 ;; Critical Paths under _ngat in BANK0
   712 ;;
   713 ;;   _ngat->i1___ftadd
   714 ;;
   715 ;; Critical Paths under _main in BANK1
   716 ;;
   717 ;;   None.
   718 ;;
   719 ;; Critical Paths under _ngat in BANK1
   720 ;;
   721 ;;   None.
   722 ;;
   723 ;; Critical Paths under _main in BANK3
   724 ;;
   725 ;;   None.
   726 ;;
   727 ;; Critical Paths under _ngat in BANK3
   728 ;;
   729 ;;   None.
   730 ;;
   731 ;; Critical Paths under _main in BANK2
   732 ;;
   733 ;;   None.
   734 ;;
   735 ;; Critical Paths under _ngat in BANK2
   736 ;;
   737 ;;   None.
   738 ;;
   739 ;;Main: autosize = 0, tempsize = 0, incstack = 0, save=0
   740 ;;
   741 ;;
   742 ;;Call Graph Tables:
   743 ;;
   744 ;; ---------------------------------------------------------------------------------
   745 ;; (Depth) Function   	        Calls       Base Space   Used Autos Params    Refs
   746 ;; ---------------------------------------------------------------------------------
   747 ;; (0) _main                                                10    10      0    8077
   748 ;;                                             56 BANK0     10    10      0
   749 ;;                           _lcd_init
   750 ;;                                 _tx
   751 ;;                                 _rx
   752 ;;                           ___lbtoft
   753 ;;                            ___ftmul
   754 ;;                            ___ftadd
   755 ;;                            ___fttol
   756 ;;                         _lcd_gotoxy
   757 ;;                             _printf
   758 ;;                            _sprintf
   759 ;;                        _send_string
   760 ;; ---------------------------------------------------------------------------------
   761 ;; (1) _sprintf                                              7     4      3    2691
   762 ;;                                             35 BANK0      7     4      3
   763 ;;                            __doprnt
   764 ;; ---------------------------------------------------------------------------------
   765 ;; (1) _printf                                               6     4      2    2635
   766 ;;                                             35 BANK0      6     4      2
   767 ;;                            __doprnt
   768 ;; ---------------------------------------------------------------------------------
   769 ;; (2) __doprnt                                             15    13      2    2511
   770 ;;                                             20 BANK0     15    13      2
   771 ;;                   Absolute function
   772 ;;                              _putch
   773 ;;                            _isdigit
   774 ;;                             ___wmul
   775 ;;                            ___lwdiv
   776 ;;                            ___lwmod
   777 ;; ---------------------------------------------------------------------------------
   778 ;; (3) _putch                                                1     0      1     713
   779 ;;                                             17 BANK0      1     0      1
   780 ;;                           _lcd_putc
   781 ;; ---------------------------------------------------------------------------------
   782 ;; (4) _lcd_putc                                             1     1      0     691
   783 ;;                                             16 BANK0      1     1      0
   784 ;;                       _lcd_put_byte
   785 ;;                           _lcd_busy
   786 ;;                         _lcd_gotoxy
   787 ;;                            _isprint
   788 ;; ---------------------------------------------------------------------------------
   789 ;; (5) _lcd_gotoxy                                           3     2      1     313
   790 ;;                                             13 BANK0      3     2      1
   791 ;;                       _lcd_put_byte
   792 ;;                           _lcd_busy
   793 ;; ---------------------------------------------------------------------------------
   794 ;; (1) _lcd_init                                             4     4      0     244
   795 ;;                                             13 BANK0      3     3      0
   796 ;;                       _lcd_put_byte
   797 ;;                           _lcd_busy
   798 ;; ---------------------------------------------------------------------------------
   799 ;; (1) ___lbtoft                                             4     1      3     231
   800 ;;                                             29 BANK0      4     1      3
   801 ;;                           ___ftpack
   802 ;;                            ___fttol (ARG)
   803 ;; ---------------------------------------------------------------------------------
   804 ;; (1) ___ftmul                                             15     9      6     535
   805 ;;                                             29 BANK0     15     9      6
   806 ;;                           ___ftpack
   807 ;;                            ___fttol (ARG)
   808 ;; ---------------------------------------------------------------------------------
   809 ;; (1) ___ftadd                                             12     6      6    1049
   810 ;;                                             44 BANK0     12     6      6
   811 ;;                           ___ftpack
   812 ;;                           ___lbtoft (ARG)
   813 ;;                            ___ftmul (ARG)
   814 ;;                            ___fttol (ARG)
   815 ;; ---------------------------------------------------------------------------------
   816 ;; (6) _lcd_busy                                             2     2      0      23
   817 ;;                                              8 BANK0      2     2      0
   818 ;; ---------------------------------------------------------------------------------
   819 ;; (6) _lcd_put_byte                                         5     4      1     221
   820 ;;                                              8 BANK0      5     4      1
   821 ;; ---------------------------------------------------------------------------------
   822 ;; (1) _send_string                                          1     1      0      67
   823 ;;                                              9 BANK0      1     1      0
   824 ;;                          _send_char
   825 ;; ---------------------------------------------------------------------------------
   826 ;; (1) ___fttol                                             13     9      4     252
   827 ;;                                             16 BANK0     13     9      4
   828 ;;                           ___ftpack (ARG)
   829 ;; ---------------------------------------------------------------------------------
   830 ;; (2) ___ftpack                                             8     3      5     209
   831 ;;                                              8 BANK0      8     3      5
   832 ;; ---------------------------------------------------------------------------------
   833 ;; (3) ___lwmod                                              5     1      4     159
   834 ;;                                             15 BANK0      5     1      4
   835 ;;                            ___lwdiv (ARG)
   836 ;; ---------------------------------------------------------------------------------
   837 ;; (3) ___lwdiv                                              7     3      4     162
   838 ;;                                              8 BANK0      7     3      4
   839 ;; ---------------------------------------------------------------------------------
   840 ;; (3) ___wmul                                               6     2      4      92
   841 ;;                                              8 BANK0      6     2      4
   842 ;; ---------------------------------------------------------------------------------
   843 ;; (3) _isdigit                                              2     2      0      68
   844 ;;                                              8 BANK0      2     2      0
   845 ;; ---------------------------------------------------------------------------------
   846 ;; (3) Absolute function(Fake)                               1     0      1       0
   847 ;;                                              8 BANK0      1     0      1
   848 ;; ---------------------------------------------------------------------------------
   849 ;; (5) _isprint                                              2     2      0      68
   850 ;;                                              8 BANK0      2     2      0
   851 ;; ---------------------------------------------------------------------------------
   852 ;; (2) _send_char                                            1     1      0      22
   853 ;;                                              8 BANK0      1     1      0
   854 ;; ---------------------------------------------------------------------------------
   855 ;; (1) _rx                                                   0     0      0       0
   856 ;; ---------------------------------------------------------------------------------
   857 ;; (1) _tx                                                   0     0      0       0
   858 ;; ---------------------------------------------------------------------------------
   859 ;; Estimated maximum stack depth 6
   860 ;; ---------------------------------------------------------------------------------
   861 ;; (Depth) Function   	        Calls       Base Space   Used Autos Params    Refs
   862 ;; ---------------------------------------------------------------------------------
   863 ;; (7) _ngat                                                 2     2      0    3432
   864 ;;                                              6 BANK0      2     2      0
   865 ;;                          i1___ftadd
   866 ;; ---------------------------------------------------------------------------------
   867 ;; (8) i1___ftadd                                           12     6      6    3432
   868 ;;                                              8 COMMON     6     0      6
   869 ;;                                              0 BANK0      6     6      0
   870 ;;                         i1___ftpack
   871 ;; ---------------------------------------------------------------------------------
   872 ;; (9) i1___ftpack                                           8     3      5     679
   873 ;;                                              0 COMMON     8     3      5
   874 ;; ---------------------------------------------------------------------------------
   875 ;; Estimated maximum stack depth 9
   876 ;; ---------------------------------------------------------------------------------
   877 ;; Call Graph Graphs:
   878 ;; _main (ROOT)
   879 ;;   _lcd_init
   880 ;;     _lcd_put_byte
   881 ;;     _lcd_busy
   882 ;;   _tx
   883 ;;   _rx
   884 ;;   ___lbtoft
   885 ;;     ___ftpack
   886 ;;     ___fttol (ARG)
   887 ;;       ___ftpack (ARG)
   888 ;;   ___ftmul
   889 ;;     ___ftpack
   890 ;;     ___fttol (ARG)
   891 ;;       ___ftpack (ARG)
   892 ;;   ___ftadd
   893 ;;     ___ftpack
   894 ;;     ___lbtoft (ARG)
   895 ;;       ___ftpack
   896 ;;       ___fttol (ARG)
   897 ;;         ___ftpack (ARG)
   898 ;;     ___ftmul (ARG)
   899 ;;       ___ftpack
   900 ;;       ___fttol (ARG)
   901 ;;         ___ftpack (ARG)
   902 ;;     ___fttol (ARG)
   903 ;;       ___ftpack (ARG)
   904 ;;   ___fttol
   905 ;;     ___ftpack (ARG)
   906 ;;   _lcd_gotoxy
   907 ;;     _lcd_put_byte
   908 ;;     _lcd_busy
   909 ;;   _printf
   910 ;;     __doprnt
   911 ;;       Absolute function(Fake)
   912 ;;       _putch
   913 ;;         _lcd_putc
   914 ;;           _lcd_put_byte
   915 ;;           _lcd_busy
   916 ;;           _lcd_gotoxy
   917 ;;             _lcd_put_byte
   918 ;;             _lcd_busy
   919 ;;           _isprint
   920 ;;       _isdigit
   921 ;;       ___wmul
   922 ;;       ___lwdiv
   923 ;;       ___lwmod
   924 ;;         ___lwdiv (ARG)
   925 ;;   _sprintf
   926 ;;     __doprnt
   927 ;;       Absolute function(Fake)
   928 ;;       _putch
   929 ;;         _lcd_putc
   930 ;;           _lcd_put_byte
   931 ;;           _lcd_busy
   932 ;;           _lcd_gotoxy
   933 ;;             _lcd_put_byte
   934 ;;             _lcd_busy
   935 ;;           _isprint
   936 ;;       _isdigit
   937 ;;       ___wmul
   938 ;;       ___lwdiv
   939 ;;       ___lwmod
   940 ;;         ___lwdiv (ARG)
   941 ;;   _send_string
   942 ;;     _send_char
   943 ;;
   944 ;; _ngat (ROOT)
   945 ;;   i1___ftadd
   946 ;;     i1___ftpack
   947 ;;
   948 ;; Address spaces:
   949 ;;Name               Size   Autos  Total    Cost      Usage
   950 ;;BITCOMMON            E      0       0       0        0.0%
   951 ;;EEDATA             100      0       0       0        0.0%
   952 ;;NULL                 0      0       0       0        0.0%
   953 ;;CODE                 0      0       0       0        0.0%
   954 ;;COMMON               E      E       E       1      100.0%
   955 ;;BITSFR0              0      0       0       1        0.0%
   956 ;;SFR0                 0      0       0       1        0.0%
   957 ;;BITSFR1              0      0       0       2        0.0%
   958 ;;SFR1                 0      0       0       2        0.0%
   959 ;;STACK                0      0       C       2        0.0%
   960 ;;ABS                  0      0      55       3        0.0%
   961 ;;BITBANK0            50      0       0       4        0.0%
   962 ;;BITSFR3              0      0       0       4        0.0%
   963 ;;SFR3                 0      0       0       4        0.0%
   964 ;;BANK0               50     42      47       5       88.8%
   965 ;;BITSFR2              0      0       0       5        0.0%
   966 ;;SFR2                 0      0       0       5        0.0%
   967 ;;BITBANK1            50      0       0       6        0.0%
   968 ;;BANK1               50      0       0       7        0.0%
   969 ;;BITBANK3            60      0       0       8        0.0%
   970 ;;BANK3               60      0       0       9        0.0%
   971 ;;BITBANK2            60      0       0      10        0.0%
   972 ;;BANK2               60      0       0      11        0.0%
   973 ;;DATA                 0      0      61      12        0.0%
   974                           
   975                           
   976 ;; *************** function _main *****************
   977 ;; Defined at:
   978 ;;		line 22 in file "D:\TTVXL\Project TTVXL\BT Ôn Thi 04\BT Ôn Thi 04.c"
   979 ;; Parameters:    Size  Location     Type
   980 ;;		None
   981 ;; Auto vars:     Size  Location     Type
   982 ;;  data_tx        10   56[BANK0 ] unsigned char [10]
   983 ;; Return value:  Size  Location     Type
   984 ;;		None               void
   985 ;; Registers used:
   986 ;;		wreg, fsr0l, fsr0h, status,2, status,0, btemp+1, pclath, cstack
   987 ;; Tracked objects:
   988 ;;		On entry : 17F/0
   989 ;;		On exit  : 160/0
   990 ;;		Unchanged: 0/0
   991 ;; Data sizes:     COMMON   BANK0   BANK1   BANK3   BANK2
   992 ;;      Params:         0       0       0       0       0
   993 ;;      Locals:         0      10       0       0       0
   994 ;;      Temps:          0       0       0       0       0
   995 ;;      Totals:         0      10       0       0       0
   996 ;;Total ram usage:       10 bytes
   997 ;; Hardware stack levels required when called:    9
   998 ;; This function calls:
   999 ;;		_lcd_init
  1000 ;;		_tx
  1001 ;;		_rx
  1002 ;;		___lbtoft
  1003 ;;		___ftmul
  1004 ;;		___ftadd
  1005 ;;		___fttol
  1006 ;;		_lcd_gotoxy
  1007 ;;		_printf
  1008 ;;		_sprintf
  1009 ;;		_send_string
  1010 ;; This function is called by:
  1011 ;;		Startup code after reset
  1012 ;; This function uses a non-reentrant model
  1013 ;;
  1014  06E6                     _main:	
  1015                           
  1016                           ;BT Ôn Thi 04.c: 23: ANSEL = ANSELH = 0;
  1017                           
  1018 ;; hardware stack exceeded
  1019                           ; Regs used in _main: [wreg-fsr0h+status,2+status,0+btemp+1+pclath+cstack]
  1020  06E6  1683               	bsf	3,5	;RP0=1, select bank3
  1021  06E7  1703               	bsf	3,6	;RP1=1, select bank3
  1022  06E8  0189               	clrf	9	;volatile
  1023  06E9  0188               	clrf	8	;volatile
  1024                           
  1025                           ;BT Ôn Thi 04.c: 24: lcd_init();
  1026  06EA  120A  118A  23B6   	fcall	_lcd_init
      +       120A  118A         
  1027                           
  1028                           ;BT Ôn Thi 04.c: 25: TRISA4 = 1;
  1029  06EF  1683               	bsf	3,5	;RP0=1, select bank1
  1030  06F0  1605               	bsf	5,4
  1031                           
  1032                           ;BT Ôn Thi 04.c: 26: TRISD = 0x00;
  1033  06F1  0188               	clrf	8	;volatile
  1034                           
  1035                           ;BT Ôn Thi 04.c: 27: TRISE0 = 0;
  1036  06F2  1009               	bcf	9,0
  1037                           
  1038                           ;BT Ôn Thi 04.c: 28: T0CS = 1;
  1039  06F3  1681               	bsf	1,5
  1040                           
  1041                           ;BT Ôn Thi 04.c: 29: PSA = 1;
  1042  06F4  1581               	bsf	1,3
  1043                           
  1044                           ;BT Ôn Thi 04.c: 31: TMR0 = 0;
  1045  06F5  1283               	bcf	3,5	;RP0=0, select bank0
  1046  06F6  0181               	clrf	1	;volatile
  1047                           
  1048                           ;BT Ôn Thi 04.c: 32: T0SE=1;
  1049  06F7  1683               	bsf	3,5	;RP0=1, select bank1
  1050  06F8  1601               	bsf	1,4
  1051                           
  1052                           ;BT Ôn Thi 04.c: 34: T0IE = 1;
  1053  06F9  168B               	bsf	11,5
  1054                           
  1055                           ;BT Ôn Thi 04.c: 35: T0IF = 0;
  1056  06FA  110B               	bcf	11,2
  1057                           
  1058                           ;BT Ôn Thi 04.c: 36: GIE = 1;
  1059  06FB  178B               	bsf	11,7
  1060                           
  1061                           ;BT Ôn Thi 04.c: 39: tx();
  1062  06FC  120A  118A  2050   	fcall	_tx
      +       120A  118A         
  1063                           
  1064                           ;BT Ôn Thi 04.c: 40: rx();
  1065  0701  120A  118A  27D0   	fcall	_rx
      +       120A  118A         
  1066  0706                     l5385:	
  1067                           
  1068                           ;BT Ôn Thi 04.c: 44: {
  1069                           ;BT Ôn Thi 04.c: 45: count1 = TMR0+dem*256;
  1070  0706  0801               	movf	1,w	;volatile
  1071  0707  120A  118A  2560   	fcall	___lbtoft
      +       120A  118A         
  1072  070C  083D               	movf	?___lbtoft,w
  1073  070D  00CF               	movwf	?___ftadd+3
  1074  070E  083E               	movf	?___lbtoft+1,w
  1075  070F  00D0               	movwf	?___ftadd+4
  1076  0710  083F               	movf	?___lbtoft+2,w
  1077  0711  00D1               	movwf	?___ftadd+5
  1078  0712  0862               	movf	_dem,w
  1079  0713  00C0               	movwf	?___ftmul+3
  1080  0714  0863               	movf	_dem+1,w
  1081  0715  00C1               	movwf	?___ftmul+4
  1082  0716  0864               	movf	_dem+2,w
  1083  0717  00C2               	movwf	?___ftmul+5
  1084  0718  3080               	movlw	128
  1085  0719  01BD               	clrf	?___ftmul
  1086  071A  00BE               	movwf	?___ftmul+1
  1087  071B  3043               	movlw	67
  1088  071C  00BF               	movwf	?___ftmul+2
  1089  071D  120A  118A  256F   	fcall	___ftmul
      +       120A  118A         
  1090  0722  083D               	movf	?___ftmul,w
  1091  0723  00CC               	movwf	?___ftadd
  1092  0724  083E               	movf	?___ftmul+1,w
  1093  0725  00CD               	movwf	?___ftadd+1
  1094  0726  083F               	movf	?___ftmul+2,w
  1095  0727  00CE               	movwf	?___ftadd+2
  1096  0728  120A  118A  25DE   	fcall	___ftadd
      +       120A  118A         
  1097  072D  084C               	movf	?___ftadd,w
  1098  072E  00B0               	movwf	?___fttol
  1099  072F  084D               	movf	?___ftadd+1,w
  1100  0730  00B1               	movwf	?___fttol+1
  1101  0731  084E               	movf	?___ftadd+2,w
  1102  0732  00B2               	movwf	?___fttol+2
  1103  0733  120A  118A  276E   	fcall	___fttol
      +       120A  118A         
  1104  0738  0831               	movf	?___fttol+1,w
  1105  0739  00E6               	movwf	_count1+1
  1106  073A  0830               	movf	?___fttol,w
  1107  073B  00E5               	movwf	_count1
  1108  073C  3000               	movlw	0
  1109                           
  1110                           ;BT Ôn Thi 04.c: 50: lcd_gotoxy(0,0);
  1111  073D  01AD               	clrf	?_lcd_gotoxy
  1112  073E  120A  118A  236F   	fcall	_lcd_gotoxy
      +       120A  118A         
  1113                           
  1114                           ;BT Ôn Thi 04.c: 51: printf("Nguyen Phuc Dung");
  1115  0743  300B               	movlw	(STR_1-__stringbase)& (0+255)
  1116  0744  120A  118A  2109   	fcall	_printf
      +       120A  118A         
  1117  0749  3000               	movlw	0
  1118                           
  1119                           ;BT Ôn Thi 04.c: 52: lcd_gotoxy(0,1);
  1120  074A  01AD               	clrf	?_lcd_gotoxy
  1121  074B  0AAD               	incf	?_lcd_gotoxy,f
  1122  074C  120A  118A  236F   	fcall	_lcd_gotoxy
      +       120A  118A         
  1123                           
  1124                           ;BT Ôn Thi 04.c: 53: printf("Nhan nut: %03d",count1);
  1125  0751  0866               	movf	_count1+1,w
  1126  0752  00C4               	movwf	?_printf+1
  1127  0753  0865               	movf	_count1,w
  1128  0754  00C3               	movwf	?_printf
  1129  0755  302B               	movlw	(STR_2-__stringbase)& (0+255)
  1130  0756  120A  118A  2109   	fcall	_printf
      +       120A  118A         
  1131                           
  1132                           ;BT Ôn Thi 04.c: 54: sprintf(data_tx,"Nhan nut:%03d ",count1);
  1133  075B  301C               	movlw	(STR_3-__stringbase)& (0+255)
  1134  075C  00C3               	movwf	?_sprintf
  1135  075D  0866               	movf	_count1+1,w
  1136  075E  00C5               	movwf	?_sprintf+2
  1137  075F  0865               	movf	_count1,w
  1138  0760  00C4               	movwf	?_sprintf+1
  1139  0761  3058               	movlw	main@data_tx& (0+255)
  1140  0762  120A  118A  2115   	fcall	_sprintf
      +       120A  118A         
  1141                           
  1142                           ;BT Ôn Thi 04.c: 55: send_string(data_tx);
  1143  0767  3058               	movlw	main@data_tx& (0+255)
  1144  0768  120A  118A  27E5   	fcall	_send_string
      +       120A  118A         
  1145  076D  2F06               	goto	l5385
  1146  076E                     __end_of_main:	
  1147                           
  1148                           	psect	text463
  1149  0109                     __ptext463:	
  1150 ;; =============== function _sprintf ends ============
  1151                           
  1152                           
  1153 ;; *************** function _printf *****************
  1154 ;; Defined at:
  1155 ;;		line 14 in file "C:\Program Files (x86)\HI-TECH Software\PICC\9.83\sources\printf.c"
  1156 ;; Parameters:    Size  Location     Type
  1157 ;;  f               1    wreg     PTR const unsigned char 
  1158 ;;		 -> STR_2(15), STR_1(17), 
  1159 ;; Auto vars:     Size  Location     Type
  1160 ;;  f               1   37[BANK0 ] PTR const unsigned char 
  1161 ;;		 -> STR_2(15), STR_1(17), 
  1162 ;;  pb              2   39[BANK0 ] struct __prbuf
  1163 ;;  ap              1   38[BANK0 ] PTR void [1]
  1164 ;;		 -> ?_sprintf(2), ?_printf(2), 
  1165 ;; Return value:  Size  Location     Type
  1166 ;;                  2   35[BANK0 ] int 
  1167 ;; Registers used:
  1168 ;;		wreg, fsr0l, fsr0h, status,2, status,0, btemp+1, pclath, cstack
  1169 ;; Tracked objects:
  1170 ;;		On entry : 60/0
  1171 ;;		On exit  : 60/0
  1172 ;;		Unchanged: 0/0
  1173 ;; Data sizes:     COMMON   BANK0   BANK1   BANK3   BANK2
  1174 ;;      Params:         0       2       0       0       0
  1175 ;;      Locals:         0       4       0       0       0
  1176 ;;      Temps:          0       0       0       0       0
  1177 ;;      Totals:         0       6       0       0       0
  1178 ;;Total ram usage:        6 bytes
  1179 ;; Hardware stack levels used:    1
  1180 ;; Hardware stack levels required when called:    8
  1181 ;; This function calls:
  1182 ;;		__doprnt
  1183 ;; This function is called by:
  1184 ;;		_main
  1185 ;; This function uses a non-reentrant model
  1186 ;;
  1187  0109                     _printf:	
  1188                           
  1189 ;; hardware stack exceeded
  1190                           ; Regs used in _printf: [wreg-fsr0h+status,2+status,0+btemp+1+pclath+cstack]
  1191                           ;printf@f stored from wreg
  1192  0109  00C5               	movwf	printf@f
  1193  010A  3001               	movlw	(fp__putch-fpbase)& (0+255)
  1194  010B  01C7               	clrf	printf@pb
  1195  010C  00C8               	movwf	printf@pb+1
  1196  010D  3043               	movlw	?_printf& (0+255)
  1197  010E  00C6               	movwf	printf@ap
  1198                           
  1199                           ;	Return value of _printf is never used
  1200  010F  0845               	movf	printf@f,w
  1201  0110  00B4               	movwf	?__doprnt
  1202  0111  3046               	movlw	printf@ap& (0+255)
  1203  0112  00B5               	movwf	?__doprnt+1
  1204  0113  3047               	movlw	printf@pb& (0+255)
  1205  0114  2925               	ljmp	__doprnt
  1206  0115                     __end_of_printf:	
  1207  0115                     __ptext462:	
  1208 ;; =============== function _main ends ============
  1209                           
  1210                           
  1211 ;; *************** function _sprintf *****************
  1212 ;; Defined at:
  1213 ;;		line 14 in file "C:\Program Files (x86)\HI-TECH Software\PICC\9.83\sources\sprintf.c"
  1214 ;; Parameters:    Size  Location     Type
  1215 ;;  wh              1    wreg     PTR unsigned char 
  1216 ;;		 -> main@data_tx(10), 
  1217 ;;  f               1   35[BANK0 ] PTR const unsigned char 
  1218 ;;		 -> STR_3(15), 
  1219 ;; Auto vars:     Size  Location     Type
  1220 ;;  wh              1   38[BANK0 ] PTR unsigned char 
  1221 ;;		 -> main@data_tx(10), 
  1222 ;;  pb              2   40[BANK0 ] struct __prbuf
  1223 ;;  ap              1   39[BANK0 ] PTR void [1]
  1224 ;;		 -> ?_sprintf(2), ?_printf(2), 
  1225 ;; Return value:  Size  Location     Type
  1226 ;;                  2   35[BANK0 ] int 
  1227 ;; Registers used:
  1228 ;;		wreg, fsr0l, fsr0h, status,2, status,0, btemp+1, pclath, cstack
  1229 ;; Tracked objects:
  1230 ;;		On entry : 60/0
  1231 ;;		On exit  : 160/0
  1232 ;;		Unchanged: 0/0
  1233 ;; Data sizes:     COMMON   BANK0   BANK1   BANK3   BANK2
  1234 ;;      Params:         0       3       0       0       0
  1235 ;;      Locals:         0       4       0       0       0
  1236 ;;      Temps:          0       0       0       0       0
  1237 ;;      Totals:         0       7       0       0       0
  1238 ;;Total ram usage:        7 bytes
  1239 ;; Hardware stack levels used:    1
  1240 ;; Hardware stack levels required when called:    8
  1241 ;; This function calls:
  1242 ;;		__doprnt
  1243 ;; This function is called by:
  1244 ;;		_main
  1245 ;; This function uses a non-reentrant model
  1246 ;;
  1247  0115                     _sprintf:	
  1248                           
  1249 ;; hardware stack exceeded
  1250                           ; Regs used in _sprintf: [wreg-fsr0h+status,2+status,0+btemp+1+pclath+cstack]
  1251                           ;sprintf@wh stored from wreg
  1252  0115  00C6               	movwf	sprintf@wh
  1253  0116  00C8               	movwf	sprintf@pb
  1254  0117  3044               	movlw	(?_sprintf+1)& (0+255)
  1255  0118  01C9               	clrf	sprintf@pb+1
  1256  0119  00C7               	movwf	sprintf@ap
  1257  011A  0843               	movf	sprintf@f,w
  1258  011B  00B4               	movwf	?__doprnt
  1259  011C  3047               	movlw	sprintf@ap& (0+255)
  1260  011D  00B5               	movwf	?__doprnt+1
  1261  011E  3048               	movlw	sprintf@pb& (0+255)
  1262  011F  2125               	fcall	__doprnt
  1263  0120  0848               	movf	sprintf@pb,w
  1264  0121  0084               	movwf	4
  1265  0122  1383               	bcf	3,7	;select IRP bank0
  1266  0123  0180               	clrf	0
  1267  0124  0008               	return
  1268  0125                     __end_of_sprintf:	
  1269  0125                     __ptext464:	
  1270 ;; =============== function _printf ends ============
  1271                           
  1272                           
  1273 ;; *************** function __doprnt *****************
  1274 ;; Defined at:
  1275 ;;		line 455 in file "C:\Program Files (x86)\HI-TECH Software\PICC\9.83\lib\doprnt.c"
  1276 ;; Parameters:    Size  Location     Type
  1277 ;;  pb              1    wreg     PTR struct __prbuf
  1278 ;;		 -> sprintf@pb(2), printf@pb(2), 
  1279 ;;  f               1   20[BANK0 ] PTR const unsigned char 
  1280 ;;		 -> STR_3(15), STR_2(15), STR_1(17), 
  1281 ;;  ap              1   21[BANK0 ] PTR PTR void 
  1282 ;;		 -> sprintf@ap(1), printf@ap(1), 
  1283 ;; Auto vars:     Size  Location     Type
  1284 ;;  pb              1   34[BANK0 ] PTR struct __prbuf
  1285 ;;		 -> sprintf@pb(2), printf@pb(2), 
  1286 ;;  _val            4   26[BANK0 ] struct .
  1287 ;;  width           2   31[BANK0 ] int 
  1288 ;;  c               1   33[BANK0 ] char 
  1289 ;;  flag            1   30[BANK0 ] unsigned char 
  1290 ;;  prec            1   25[BANK0 ] char 
  1291 ;; Return value:  Size  Location     Type
  1292 ;;                  2   20[BANK0 ] int 
  1293 ;; Registers used:
  1294 ;;		wreg, fsr0l, fsr0h, status,2, status,0, btemp+1, pclath, cstack
  1295 ;; Tracked objects:
  1296 ;;		On entry : 60/0
  1297 ;;		On exit  : 60/0
  1298 ;;		Unchanged: 0/0
  1299 ;; Data sizes:     COMMON   BANK0   BANK1   BANK3   BANK2
  1300 ;;      Params:         0       2       0       0       0
  1301 ;;      Locals:         0      10       0       0       0
  1302 ;;      Temps:          0       3       0       0       0
  1303 ;;      Totals:         0      15       0       0       0
  1304 ;;Total ram usage:       15 bytes
  1305 ;; Hardware stack levels used:    1
  1306 ;; Hardware stack levels required when called:    7
  1307 ;; This function calls:
  1308 ;;		Absolute function
  1309 ;;		_putch
  1310 ;;		_isdigit
  1311 ;;		___wmul
  1312 ;;		___lwdiv
  1313 ;;		___lwmod
  1314 ;; This function is called by:
  1315 ;;		_printf
  1316 ;;		_sprintf
  1317 ;; This function uses a non-reentrant model
  1318 ;;
  1319  0125                     __doprnt:	
  1320                           
  1321 ;; hardware stack exceeded
  1322                           ; Regs used in __doprnt: [wreg-fsr0h+status,2+status,0+btemp+1+pclath+cstack]
  1323                           ;__doprnt@pb stored from wreg
  1324  0125  00C2               	movwf	__doprnt@pb
  1325  0126                     l5329:	
  1326  0126  1283               	bcf	3,5	;RP0=0, select bank0
  1327  0127  1303               	bcf	3,6	;RP1=0, select bank0
  1328  0128  0834               	movf	__doprnt@f,w
  1329  0129  0AB4               	incf	__doprnt@f,f
  1330  012A  0084               	movwf	4
  1331  012B  120A  118A  2011   	fcall	stringdir
      +       120A  118A         
  1332  0130  00C1               	movwf	__doprnt@c
  1333  0131  08C1               	movf	__doprnt@c,f
  1334  0132  1903               	btfsc	3,2
  1335  0133  2AF5               	goto	l5331
  1336  0134  0841               	movf	__doprnt@c,w
  1337  0135  3A25               	xorlw	37
  1338  0136  1903               	skipnz
  1339  0137  2955               	goto	l5215
  1340  0138  0842               	movf	__doprnt@pb,w
  1341  0139  3E01               	addlw	1
  1342  013A  0084               	movwf	4
  1343  013B  1383               	bcf	3,7	;select IRP bank0
  1344  013C  0880               	movf	0,f
  1345  013D  1903               	skipnz
  1346  013E  294B               	goto	l5211
  1347  013F  0841               	movf	__doprnt@c,w
  1348  0140  00B1               	movwf	?_putch
  1349  0141  0842               	movf	__doprnt@pb,w
  1350  0142  3E01               	addlw	1
  1351  0143  0084               	movwf	4
  1352  0144  0800               	movf	0,w
  1353  0145  120A  118A  2100   	fcall	fptable
      +       120A  118A         
  1354  014A  2926               	goto	l5329
  1355  014B                     l5211:	
  1356  014B  0842               	movf	__doprnt@pb,w
  1357  014C  0084               	movwf	4
  1358  014D  0800               	movf	0,w
  1359  014E  0084               	movwf	4
  1360  014F  0841               	movf	__doprnt@c,w
  1361  0150  0080               	movwf	0
  1362  0151  0842               	movf	__doprnt@pb,w
  1363  0152  0084               	movwf	4
  1364  0153  0A80               	incf	0,f
  1365  0154  2926               	goto	l5329
  1366  0155                     l5215:	
  1367  0155  01BF               	clrf	__doprnt@width
  1368  0156  01C0               	clrf	__doprnt@width+1
  1369  0157  01BE               	clrf	__doprnt@flag
  1370  0158  295B               	goto	l5221
  1371  0159                     l2201:	
  1372  0159  153E               	bsf	__doprnt@flag,2
  1373  015A  0AB4               	incf	__doprnt@f,f
  1374  015B                     l5221:	
  1375  015B  0834               	movf	__doprnt@f,w
  1376  015C  0084               	movwf	4
  1377  015D  120A  118A  2011   	fcall	stringdir
      +       120A  118A         
  1378                           
  1379                           ; Switch size 1, requested type "space"
  1380                           ; Number of cases is 1, Range of values is 48 to 48
  1381                           ; switch strategies available:
  1382                           ; Name         Instructions Cycles
  1383                           ; simple_byte            4     3 (average)
  1384                           ; direct_byte           14    11 (fixed)
  1385                           ; jumptable            263     9 (fixed)
  1386                           ;	Chosen strategy is simple_byte
  1387  0162  3A30               	xorlw	48	; case 48
  1388  0163  1903               	skipnz
  1389  0164  2959               	goto	l2201
  1390  0165  2966               	goto	l5223
  1391  0166                     l5223:	
  1392  0166  0834               	movf	__doprnt@f,w
  1393  0167  0084               	movwf	4
  1394  0168  120A  118A  2011   	fcall	stringdir
      +       120A  118A         
  1395  016D  22F8  120A  118A   	fcall	_isdigit
  1396  0170  1C03               	btfss	3,0
  1397  0171  299F               	goto	l5235
  1398  0172  01BF               	clrf	__doprnt@width
  1399  0173  01C0               	clrf	__doprnt@width+1
  1400  0174                     l5227:	
  1401  0174  0840               	movf	__doprnt@width+1,w
  1402  0175  00A9               	movwf	?___wmul+1
  1403  0176  083F               	movf	__doprnt@width,w
  1404  0177  00A8               	movwf	?___wmul
  1405  0178  300A               	movlw	10
  1406  0179  00AA               	movwf	?___wmul+2
  1407  017A  01AB               	clrf	?___wmul+3
  1408  017B  2306               	fcall	___wmul
  1409  017C  0834               	movf	__doprnt@f,w
  1410  017D  0084               	movwf	4
  1411  017E  120A  118A  2011   	fcall	stringdir
      +       120A  118A         
  1412  0183  0728               	addwf	?___wmul,w
  1413  0184  00B6               	movwf	??__doprnt
  1414  0185  3000               	movlw	0
  1415  0186  1803               	skipnc
  1416  0187  3001               	movlw	1
  1417  0188  0729               	addwf	?___wmul+1,w
  1418  0189  00B7               	movwf	??__doprnt+1
  1419  018A  0836               	movf	??__doprnt,w
  1420  018B  3ED0               	addlw	208
  1421  018C  00BF               	movwf	__doprnt@width
  1422  018D  0837               	movf	??__doprnt+1,w
  1423  018E  1803               	skipnc
  1424  018F  3E01               	addlw	1
  1425  0190  3EFF               	addlw	255
  1426  0191  00C0               	movwf	__doprnt@width+1
  1427  0192  0AB4               	incf	__doprnt@f,f
  1428  0193  0834               	movf	__doprnt@f,w
  1429  0194  0084               	movwf	4
  1430  0195  120A  118A  2011   	fcall	stringdir
      +       120A  118A         
  1431  019A  22F8  120A  118A   	fcall	_isdigit
  1432  019D  1803               	btfsc	3,0
  1433  019E  2974               	goto	l5227
  1434  019F                     l5235:	
  1435  019F  0834               	movf	__doprnt@f,w
  1436  01A0  0AB4               	incf	__doprnt@f,f
  1437  01A1  0084               	movwf	4
  1438  01A2  120A  118A  2011   	fcall	stringdir
      +       120A  118A         
  1439  01A7  00C1               	movwf	__doprnt@c
  1440                           
  1441                           ; Switch size 1, requested type "space"
  1442                           ; Number of cases is 3, Range of values is 0 to 105
  1443                           ; switch strategies available:
  1444                           ; Name         Instructions Cycles
  1445                           ; simple_byte           10     6 (average)
  1446                           ; jumptable            260     6 (fixed)
  1447                           ; rangetable           110     6 (fixed)
  1448                           ; spacedrange          218     9 (fixed)
  1449                           ; locatedrange         106     3 (fixed)
  1450                           ;	Chosen strategy is simple_byte
  1451  01A8  3A00               	xorlw	0	; case 0
  1452  01A9  1903               	skipnz
  1453  01AA  2AF5               	goto	l5331
  1454  01AB  3A64               	xorlw	100	; case 100
  1455  01AC  1903               	skipnz
  1456  01AD  29B2               	goto	l5237
  1457  01AE  3A0D               	xorlw	13	; case 105
  1458  01AF  1903               	skipnz
  1459  01B0  29B2               	goto	l5237
  1460  01B1  2926               	goto	l5329
  1461  01B2                     l5237:	
  1462  01B2  0835               	movf	__doprnt@ap,w
  1463  01B3  0084               	movwf	4
  1464  01B4  1383               	bcf	3,7	;select IRP bank0
  1465  01B5  0800               	movf	0,w
  1466  01B6  00B6               	movwf	??__doprnt
  1467  01B7  3002               	movlw	2
  1468  01B8  0780               	addwf	0,f
  1469  01B9  0836               	movf	??__doprnt,w
  1470  01BA  0084               	movwf	4
  1471  01BB  0800               	movf	0,w
  1472  01BC  00BA               	movwf	__doprnt@_val
  1473  01BD  0A84               	incf	4,f
  1474  01BE  0800               	movf	0,w
  1475  01BF  00BB               	movwf	__doprnt@_val+1
  1476  01C0  1FBB               	btfss	__doprnt@_val+1,7
  1477  01C1  29C9               	goto	l5245
  1478  01C2  3003               	movlw	3
  1479  01C3  04BE               	iorwf	__doprnt@flag,f
  1480  01C4  09BA               	comf	__doprnt@_val,f
  1481  01C5  09BB               	comf	__doprnt@_val+1,f
  1482  01C6  0ABA               	incf	__doprnt@_val,f
  1483  01C7  1903               	skipnz
  1484  01C8  0ABB               	incf	__doprnt@_val+1,f
  1485  01C9                     l5245:	
  1486  01C9  01C1               	clrf	__doprnt@c
  1487  01CA  0AC1               	incf	__doprnt@c,f
  1488  01CB                     l5249:	
  1489  01CB  1003               	clrc
  1490  01CC  0D41               	rlf	__doprnt@c,w
  1491  01CD  3E01               	addlw	low (_dpowers-__stringbase)
  1492  01CE  0084               	movwf	4
  1493  01CF  120A  118A  2011   	fcall	stringdir
      +       120A  118A         
  1494  01D4  00B6               	movwf	??__doprnt
  1495  01D5  120A  118A  2011   	fcall	stringdir
      +       120A  118A         
  1496  01DA  00B7               	movwf	??__doprnt+1
  1497  01DB  023B               	subwf	__doprnt@_val+1,w
  1498  01DC  1D03               	skipz
  1499  01DD  29E0               	goto	u2895
  1500  01DE  0836               	movf	??__doprnt,w
  1501  01DF  023A               	subwf	__doprnt@_val,w
  1502  01E0                     u2895:	
  1503  01E0  1C03               	btfss	3,0
  1504  01E1  29E7               	goto	l5257
  1505  01E2  0AC1               	incf	__doprnt@c,f
  1506  01E3  0841               	movf	__doprnt@c,w
  1507  01E4  3A05               	xorlw	5
  1508  01E5  1D03               	skipz
  1509  01E6  29CB               	goto	l5249
  1510  01E7                     l5257:	
  1511  01E7  0840               	movf	__doprnt@width+1,w
  1512  01E8  043F               	iorwf	__doprnt@width,w
  1513  01E9  1903               	skipnz
  1514  01EA  29F3               	goto	l5263
  1515  01EB  083E               	movf	__doprnt@flag,w
  1516  01EC  3903               	andlw	3
  1517  01ED  1903               	btfsc	3,2
  1518  01EE  29F3               	goto	l5263
  1519  01EF  30FF               	movlw	-1
  1520  01F0  07BF               	addwf	__doprnt@width,f
  1521  01F1  1C03               	skipc
  1522  01F2  03C0               	decf	__doprnt@width+1,f
  1523  01F3                     l5263:	
  1524  01F3  0841               	movf	__doprnt@c,w
  1525  01F4  00B6               	movwf	??__doprnt
  1526  01F5  01B7               	clrf	??__doprnt+1
  1527  01F6  1BB6               	btfsc	??__doprnt,7
  1528  01F7  03B7               	decf	??__doprnt+1,f
  1529  01F8  0837               	movf	??__doprnt+1,w
  1530  01F9  3A80               	xorlw	128
  1531  01FA  00B8               	movwf	??__doprnt+2
  1532  01FB  0840               	movf	__doprnt@width+1,w
  1533  01FC  3A80               	xorlw	128
  1534  01FD  0238               	subwf	??__doprnt+2,w
  1535  01FE  1D03               	skipz
  1536  01FF  2A02               	goto	u2935
  1537  0200  083F               	movf	__doprnt@width,w
  1538  0201  0236               	subwf	??__doprnt,w
  1539  0202                     u2935:	
  1540  0202  1803               	skipnc
  1541  0203  2A11               	goto	l5267
  1542  0204  1283               	bcf	3,5	;RP0=0, select bank0
  1543  0205  1303               	bcf	3,6	;RP1=0, select bank0
  1544  0206  0841               	movf	__doprnt@c,w
  1545  0207  00B6               	movwf	??__doprnt
  1546  0208  01B7               	clrf	??__doprnt+1
  1547  0209  1BB6               	btfsc	??__doprnt,7
  1548  020A  03B7               	decf	??__doprnt+1,f
  1549  020B  02BF               	subwf	__doprnt@width,f
  1550  020C  0837               	movf	??__doprnt+1,w
  1551  020D  1C03               	skipc
  1552  020E  03C0               	decf	__doprnt@width+1,f
  1553  020F  02C0               	subwf	__doprnt@width+1,f
  1554  0210  2A15               	goto	l5269
  1555  0211                     l5267:	
  1556  0211  1283               	bcf	3,5	;RP0=0, select bank0
  1557  0212  1303               	bcf	3,6	;RP1=0, select bank0
  1558  0213  01BF               	clrf	__doprnt@width
  1559  0214  01C0               	clrf	__doprnt@width+1
  1560  0215                     l5269:	
  1561  0215  1D3E               	btfss	__doprnt@flag,2
  1562  0216  2A60               	goto	l5293
  1563  0217  083E               	movf	__doprnt@flag,w
  1564  0218  3903               	andlw	3
  1565  0219  1903               	btfsc	3,2
  1566  021A  2A37               	goto	l5281
  1567  021B  0842               	movf	__doprnt@pb,w
  1568  021C  3E01               	addlw	1
  1569  021D  0084               	movwf	4
  1570  021E  1383               	bcf	3,7	;select IRP bank0
  1571  021F  0880               	movf	0,f
  1572  0220  1903               	skipnz
  1573  0221  2A2E               	goto	l5277
  1574  0222  302D               	movlw	45
  1575  0223  00B1               	movwf	?_putch
  1576  0224  0842               	movf	__doprnt@pb,w
  1577  0225  3E01               	addlw	1
  1578  0226  0084               	movwf	4
  1579  0227  0800               	movf	0,w
  1580  0228  120A  118A  2100   	fcall	fptable
      +       120A  118A         
  1581  022D  2A37               	goto	l5281
  1582  022E                     l5277:	
  1583  022E  0842               	movf	__doprnt@pb,w
  1584  022F  0084               	movwf	4
  1585  0230  0800               	movf	0,w
  1586  0231  0084               	movwf	4
  1587  0232  302D               	movlw	45
  1588  0233  0080               	movwf	0
  1589  0234  0842               	movf	__doprnt@pb,w
  1590  0235  0084               	movwf	4
  1591  0236  0A80               	incf	0,f
  1592  0237                     l5281:	
  1593  0237  1283               	bcf	3,5	;RP0=0, select bank0
  1594  0238  1303               	bcf	3,6	;RP1=0, select bank0
  1595  0239                     L1:	
  1596  0239  0840               	movf	__doprnt@width+1,w
  1597  023A  043F               	iorwf	__doprnt@width,w
  1598  023B  1903               	skipnz
  1599  023C  2AAA               	goto	l5315
  1600  023D  0842               	movf	__doprnt@pb,w
  1601  023E  3E01               	addlw	1
  1602  023F  0084               	movwf	4
  1603  0240  1383               	bcf	3,7	;select IRP bank0
  1604  0241  0880               	movf	0,f
  1605  0242  1903               	skipnz
  1606  0243  2A50               	goto	l5287
  1607  0244  3030               	movlw	48
  1608  0245  00B1               	movwf	?_putch
  1609  0246  0842               	movf	__doprnt@pb,w
  1610  0247  3E01               	addlw	1
  1611  0248  0084               	movwf	4
  1612  0249  0800               	movf	0,w
  1613  024A  120A  118A  2100   	fcall	fptable
      +       120A  118A         
  1614  024F  2A59               	goto	l5291
  1615  0250                     l5287:	
  1616  0250  0842               	movf	__doprnt@pb,w
  1617  0251  0084               	movwf	4
  1618  0252  0800               	movf	0,w
  1619  0253  0084               	movwf	4
  1620  0254  3030               	movlw	48
  1621  0255  0080               	movwf	0
  1622  0256  0842               	movf	__doprnt@pb,w
  1623  0257  0084               	movwf	4
  1624  0258  0A80               	incf	0,f
  1625  0259                     l5291:	
  1626  0259  30FF               	movlw	-1
  1627  025A  1283               	bcf	3,5	;RP0=0, select bank0
  1628  025B  1303               	bcf	3,6	;RP1=0, select bank0
  1629  025C  07BF               	addwf	__doprnt@width,f
  1630  025D  1C03               	skipc
  1631  025E  03C0               	decf	__doprnt@width+1,f
  1632  025F  2A39               	goto	L1
  1633  0260                     l5293:	
  1634  0260  0840               	movf	__doprnt@width+1,w
  1635  0261  043F               	iorwf	__doprnt@width,w
  1636  0262  1903               	skipnz
  1637  0263  2A8A               	goto	l5305
  1638  0264                     l5295:	
  1639  0264  0842               	movf	__doprnt@pb,w
  1640  0265  3E01               	addlw	1
  1641  0266  0084               	movwf	4
  1642  0267  1383               	bcf	3,7	;select IRP bank0
  1643  0268  0880               	movf	0,f
  1644  0269  1903               	skipnz
  1645  026A  2A77               	goto	l5299
  1646  026B  3020               	movlw	32
  1647  026C  00B1               	movwf	?_putch
  1648  026D  0842               	movf	__doprnt@pb,w
  1649  026E  3E01               	addlw	1
  1650  026F  0084               	movwf	4
  1651  0270  0800               	movf	0,w
  1652  0271  120A  118A  2100   	fcall	fptable
      +       120A  118A         
  1653  0276  2A80               	goto	l5303
  1654  0277                     l5299:	
  1655  0277  0842               	movf	__doprnt@pb,w
  1656  0278  0084               	movwf	4
  1657  0279  0800               	movf	0,w
  1658  027A  0084               	movwf	4
  1659  027B  3020               	movlw	32
  1660  027C  0080               	movwf	0
  1661  027D  0842               	movf	__doprnt@pb,w
  1662  027E  0084               	movwf	4
  1663  027F  0A80               	incf	0,f
  1664  0280                     l5303:	
  1665  0280  30FF               	movlw	-1
  1666  0281  1283               	bcf	3,5	;RP0=0, select bank0
  1667  0282  1303               	bcf	3,6	;RP1=0, select bank0
  1668  0283  07BF               	addwf	__doprnt@width,f
  1669  0284  1C03               	skipc
  1670  0285  03C0               	decf	__doprnt@width+1,f
  1671  0286  0840               	movf	__doprnt@width+1,w
  1672  0287  043F               	iorwf	__doprnt@width,w
  1673  0288  1D03               	skipz
  1674  0289  2A64               	goto	l5295
  1675  028A                     l5305:	
  1676  028A  083E               	movf	__doprnt@flag,w
  1677  028B  3903               	andlw	3
  1678  028C  1903               	btfsc	3,2
  1679  028D  2AAA               	goto	l5315
  1680  028E  0842               	movf	__doprnt@pb,w
  1681  028F  3E01               	addlw	1
  1682  0290  0084               	movwf	4
  1683  0291  1383               	bcf	3,7	;select IRP bank0
  1684  0292  0880               	movf	0,f
  1685  0293  1903               	skipnz
  1686  0294  2AA1               	goto	l5311
  1687  0295  302D               	movlw	45
  1688  0296  00B1               	movwf	?_putch
  1689  0297  0842               	movf	__doprnt@pb,w
  1690  0298  3E01               	addlw	1
  1691  0299  0084               	movwf	4
  1692  029A  0800               	movf	0,w
  1693  029B  120A  118A  2100   	fcall	fptable
      +       120A  118A         
  1694  02A0  2AAA               	goto	l5315
  1695  02A1                     l5311:	
  1696  02A1  0842               	movf	__doprnt@pb,w
  1697  02A2  0084               	movwf	4
  1698  02A3  0800               	movf	0,w
  1699  02A4  0084               	movwf	4
  1700  02A5  302D               	movlw	45
  1701  02A6  0080               	movwf	0
  1702  02A7  0842               	movf	__doprnt@pb,w
  1703  02A8  0084               	movwf	4
  1704  02A9  0A80               	incf	0,f
  1705  02AA                     l5315:	
  1706  02AA  1283               	bcf	3,5	;RP0=0, select bank0
  1707  02AB  1303               	bcf	3,6	;RP1=0, select bank0
  1708  02AC  0841               	movf	__doprnt@c,w
  1709  02AD  00B9               	movwf	__doprnt@prec
  1710  02AE  2AEF               	goto	l5327
  1711  02AF                     l5317:	
  1712  02AF  300A               	movlw	10
  1713  02B0  00AF               	movwf	?___lwmod
  1714  02B1  01B0               	clrf	?___lwmod+1
  1715  02B2  1003               	clrc
  1716  02B3  0D39               	rlf	__doprnt@prec,w
  1717  02B4  3E01               	addlw	low (_dpowers-__stringbase)
  1718  02B5  0084               	movwf	4
  1719  02B6  120A  118A  2011   	fcall	stringdir
      +       120A  118A         
  1720  02BB  00A8               	movwf	?___lwdiv
  1721  02BC  120A  118A  2011   	fcall	stringdir
      +       120A  118A         
  1722  02C1  00A9               	movwf	?___lwdiv+1
  1723  02C2  083B               	movf	__doprnt@_val+1,w
  1724  02C3  00AB               	movwf	?___lwdiv+3
  1725  02C4  083A               	movf	__doprnt@_val,w
  1726  02C5  00AA               	movwf	?___lwdiv+2
  1727  02C6  231F  120A  118A   	fcall	___lwdiv
  1728  02C9  0829               	movf	?___lwdiv+1,w
  1729  02CA  00B2               	movwf	?___lwmod+3
  1730  02CB  0828               	movf	?___lwdiv,w
  1731  02CC  00B1               	movwf	?___lwmod+2
  1732  02CD  2349  120A  118A   	fcall	___lwmod
  1733  02D0  082F               	movf	?___lwmod,w
  1734  02D1  3E30               	addlw	48
  1735  02D2  00C1               	movwf	__doprnt@c
  1736  02D3  0842               	movf	__doprnt@pb,w
  1737  02D4  3E01               	addlw	1
  1738  02D5  0084               	movwf	4
  1739  02D6  1383               	bcf	3,7	;select IRP bank0
  1740  02D7  0880               	movf	0,f
  1741  02D8  1903               	skipnz
  1742  02D9  2AE6               	goto	l5323
  1743  02DA  0841               	movf	__doprnt@c,w
  1744  02DB  00B1               	movwf	?_putch
  1745  02DC  0842               	movf	__doprnt@pb,w
  1746  02DD  3E01               	addlw	1
  1747  02DE  0084               	movwf	4
  1748  02DF  0800               	movf	0,w
  1749  02E0  120A  118A  2100   	fcall	fptable
      +       120A  118A         
  1750  02E5  2AEF               	goto	l5327
  1751  02E6                     l5323:	
  1752  02E6  0842               	movf	__doprnt@pb,w
  1753  02E7  0084               	movwf	4
  1754  02E8  0800               	movf	0,w
  1755  02E9  0084               	movwf	4
  1756  02EA  0841               	movf	__doprnt@c,w
  1757  02EB  0080               	movwf	0
  1758  02EC  0842               	movf	__doprnt@pb,w
  1759  02ED  0084               	movwf	4
  1760  02EE  0A80               	incf	0,f
  1761  02EF                     l5327:	
  1762  02EF  1283               	bcf	3,5	;RP0=0, select bank0
  1763  02F0  1303               	bcf	3,6	;RP1=0, select bank0
  1764  02F1  03B9               	decf	__doprnt@prec,f
  1765  02F2  0F39               	incfsz	__doprnt@prec,w
  1766  02F3  2AAF               	goto	l5317
  1767  02F4  2926               	goto	l5329
  1768  02F5                     l5331:	
  1769  02F5  01B4               	clrf	?__doprnt
  1770  02F6  01B5               	clrf	?__doprnt+1
  1771  02F7  0008               	return
  1772  02F8                     __end_of__doprnt:	
  1773  02F8                     __ptext480:	
  1774 ;; =============== function ___wmul ends ============
  1775                           
  1776                           
  1777 ;; *************** function _isdigit *****************
  1778 ;; Defined at:
  1779 ;;		line 13 in file "C:\Program Files (x86)\HI-TECH Software\PICC\9.83\sources\isdigit.c"
  1780 ;; Parameters:    Size  Location     Type
  1781 ;;  c               1    wreg     unsigned char 
  1782 ;; Auto vars:     Size  Location     Type
  1783 ;;  c               1    9[BANK0 ] unsigned char 
  1784 ;; Return value:  Size  Location     Type
  1785 ;;		None               void
  1786 ;; Registers used:
  1787 ;;		wreg, status,2, status,0
  1788 ;; Tracked objects:
  1789 ;;		On entry : 60/0
  1790 ;;		On exit  : 60/0
  1791 ;;		Unchanged: FFF9F/0
  1792 ;; Data sizes:     COMMON   BANK0   BANK1   BANK3   BANK2
  1793 ;;      Params:         0       0       0       0       0
  1794 ;;      Locals:         0       2       0       0       0
  1795 ;;      Temps:          0       0       0       0       0
  1796 ;;      Totals:         0       2       0       0       0
  1797 ;;Total ram usage:        2 bytes
  1798 ;; Hardware stack levels used:    1
  1799 ;; Hardware stack levels required when called:    3
  1800 ;; This function calls:
  1801 ;;		Nothing
  1802 ;; This function is called by:
  1803 ;;		__doprnt
  1804 ;; This function uses a non-reentrant model
  1805 ;;
  1806  02F8                     _isdigit:	
  1807                           
  1808                           ; Regs used in _isdigit: [wreg+status,2+status,0]
  1809                           ;isdigit@c stored from wreg
  1810  02F8  00A9               	movwf	isdigit@c
  1811  02F9  303A               	movlw	58
  1812  02FA  01A8               	clrf	_isdigit$3687
  1813  02FB  0229               	subwf	isdigit@c,w
  1814  02FC  1803               	skipnc
  1815  02FD  2B04               	goto	l4699
  1816  02FE  3030               	movlw	48
  1817  02FF  0229               	subwf	isdigit@c,w
  1818  0300  1C03               	skipc
  1819  0301  2B04               	goto	l4699
  1820  0302  01A8               	clrf	_isdigit$3687
  1821  0303  0AA8               	incf	_isdigit$3687,f
  1822  0304                     l4699:	
  1823  0304  0C28               	rrf	_isdigit$3687,w
  1824  0305  0008               	return
  1825  0306                     __end_of_isdigit:	
  1826  0306                     __ptext479:	
  1827 ;; =============== function ___lwdiv ends ============
  1828                           
  1829                           
  1830 ;; *************** function ___wmul *****************
  1831 ;; Defined at:
  1832 ;;		line 3 in file "C:\Program Files (x86)\HI-TECH Software\PICC\9.83\sources\wmul.c"
  1833 ;; Parameters:    Size  Location     Type
  1834 ;;  multiplier      2    8[BANK0 ] unsigned int 
  1835 ;;  multiplicand    2   10[BANK0 ] unsigned int 
  1836 ;; Auto vars:     Size  Location     Type
  1837 ;;  product         2   12[BANK0 ] unsigned int 
  1838 ;; Return value:  Size  Location     Type
  1839 ;;                  2    8[BANK0 ] unsigned int 
  1840 ;; Registers used:
  1841 ;;		wreg, status,2, status,0
  1842 ;; Tracked objects:
  1843 ;;		On entry : 60/0
  1844 ;;		On exit  : 60/0
  1845 ;;		Unchanged: FFF9F/0
  1846 ;; Data sizes:     COMMON   BANK0   BANK1   BANK3   BANK2
  1847 ;;      Params:         0       4       0       0       0
  1848 ;;      Locals:         0       2       0       0       0
  1849 ;;      Temps:          0       0       0       0       0
  1850 ;;      Totals:         0       6       0       0       0
  1851 ;;Total ram usage:        6 bytes
  1852 ;; Hardware stack levels used:    1
  1853 ;; Hardware stack levels required when called:    3
  1854 ;; This function calls:
  1855 ;;		Nothing
  1856 ;; This function is called by:
  1857 ;;		__doprnt
  1858 ;; This function uses a non-reentrant model
  1859 ;;
  1860  0306                     ___wmul:	
  1861                           
  1862                           ; Regs used in ___wmul: [wreg+status,2+status,0]
  1863  0306  01AC               	clrf	___wmul@product
  1864  0307  01AD               	clrf	___wmul@product+1
  1865  0308                     l4705:	
  1866  0308  1C28               	btfss	___wmul@multiplier,0
  1867  0309  2B10               	goto	l4709
  1868  030A  082A               	movf	___wmul@multiplicand,w
  1869  030B  07AC               	addwf	___wmul@product,f
  1870  030C  1803               	skipnc
  1871  030D  0AAD               	incf	___wmul@product+1,f
  1872  030E  082B               	movf	___wmul@multiplicand+1,w
  1873  030F  07AD               	addwf	___wmul@product+1,f
  1874  0310                     l4709:	
  1875  0310  1003               	clrc
  1876  0311  0DAA               	rlf	___wmul@multiplicand,f
  1877  0312  0DAB               	rlf	___wmul@multiplicand+1,f
  1878  0313  1003               	clrc
  1879  0314  0CA9               	rrf	___wmul@multiplier+1,f
  1880  0315  0CA8               	rrf	___wmul@multiplier,f
  1881  0316  0829               	movf	___wmul@multiplier+1,w
  1882  0317  0428               	iorwf	___wmul@multiplier,w
  1883  0318  1D03               	skipz
  1884  0319  2B08               	goto	l4705
  1885  031A  082D               	movf	___wmul@product+1,w
  1886  031B  00A9               	movwf	?___wmul+1
  1887  031C  082C               	movf	___wmul@product,w
  1888  031D  00A8               	movwf	?___wmul
  1889  031E  0008               	return
  1890  031F                     __end_of___wmul:	
  1891  031F                     __ptext478:	
  1892 ;; =============== function ___lwmod ends ============
  1893                           
  1894                           
  1895 ;; *************** function ___lwdiv *****************
  1896 ;; Defined at:
  1897 ;;		line 5 in file "C:\Program Files (x86)\HI-TECH Software\PICC\9.83\sources\lwdiv.c"
  1898 ;; Parameters:    Size  Location     Type
  1899 ;;  divisor         2    8[BANK0 ] unsigned int 
  1900 ;;  dividend        2   10[BANK0 ] unsigned int 
  1901 ;; Auto vars:     Size  Location     Type
  1902 ;;  quotient        2   12[BANK0 ] unsigned int 
  1903 ;;  counter         1   14[BANK0 ] unsigned char 
  1904 ;; Return value:  Size  Location     Type
  1905 ;;                  2    8[BANK0 ] unsigned int 
  1906 ;; Registers used:
  1907 ;;		wreg, status,2, status,0
  1908 ;; Tracked objects:
  1909 ;;		On entry : 60/0
  1910 ;;		On exit  : 60/0
  1911 ;;		Unchanged: FFF9F/0
  1912 ;; Data sizes:     COMMON   BANK0   BANK1   BANK3   BANK2
  1913 ;;      Params:         0       4       0       0       0
  1914 ;;      Locals:         0       3       0       0       0
  1915 ;;      Temps:          0       0       0       0       0
  1916 ;;      Totals:         0       7       0       0       0
  1917 ;;Total ram usage:        7 bytes
  1918 ;; Hardware stack levels used:    1
  1919 ;; Hardware stack levels required when called:    3
  1920 ;; This function calls:
  1921 ;;		Nothing
  1922 ;; This function is called by:
  1923 ;;		__doprnt
  1924 ;; This function uses a non-reentrant model
  1925 ;;
  1926  031F                     ___lwdiv:	
  1927                           
  1928                           ; Regs used in ___lwdiv: [wreg+status,2+status,0]
  1929  031F  01AC               	clrf	___lwdiv@quotient
  1930  0320  01AD               	clrf	___lwdiv@quotient+1
  1931  0321  0829               	movf	___lwdiv@divisor+1,w
  1932  0322  0428               	iorwf	___lwdiv@divisor,w
  1933  0323  1903               	skipnz
  1934  0324  2B44               	goto	l4741
  1935  0325  01AE               	clrf	___lwdiv@counter
  1936  0326                     L5:	
  1937  0326  0AAE               	incf	___lwdiv@counter,f
  1938  0327  1BA9               	btfsc	___lwdiv@divisor+1,7
  1939  0328  2B2D               	goto	l4729
  1940  0329  1003               	clrc
  1941  032A  0DA8               	rlf	___lwdiv@divisor,f
  1942  032B  0DA9               	rlf	___lwdiv@divisor+1,f
  1943  032C  2B26               	goto	L5
  1944  032D                     l4729:	
  1945  032D  1003               	clrc
  1946  032E  0DAC               	rlf	___lwdiv@quotient,f
  1947  032F  0DAD               	rlf	___lwdiv@quotient+1,f
  1948  0330  0829               	movf	___lwdiv@divisor+1,w
  1949  0331  022B               	subwf	___lwdiv@dividend+1,w
  1950  0332  1D03               	skipz
  1951  0333  2B36               	goto	u1785
  1952  0334  0828               	movf	___lwdiv@divisor,w
  1953  0335  022A               	subwf	___lwdiv@dividend,w
  1954  0336                     u1785:	
  1955  0336  1C03               	skipc
  1956  0337  2B40               	goto	L6
  1957  0338  0828               	movf	___lwdiv@divisor,w
  1958  0339  02AA               	subwf	___lwdiv@dividend,f
  1959  033A  0829               	movf	___lwdiv@divisor+1,w
  1960  033B  1C03               	skipc
  1961  033C  03AB               	decf	___lwdiv@dividend+1,f
  1962  033D  02AB               	subwf	___lwdiv@dividend+1,f
  1963  033E  142C               	bsf	___lwdiv@quotient,0
  1964  033F  1003               	clrc
  1965  0340                     L6:	
  1966  0340  0CA9               	rrf	___lwdiv@divisor+1,f
  1967  0341  0CA8               	rrf	___lwdiv@divisor,f
  1968  0342  0BAE               	decfsz	___lwdiv@counter,f
  1969  0343  2B2D               	goto	l4729
  1970  0344                     l4741:	
  1971  0344  082D               	movf	___lwdiv@quotient+1,w
  1972  0345  00A9               	movwf	?___lwdiv+1
  1973  0346  082C               	movf	___lwdiv@quotient,w
  1974  0347  00A8               	movwf	?___lwdiv
  1975  0348  0008               	return
  1976  0349                     __end_of___lwdiv:	
  1977  0349                     __ptext477:	
  1978 ;; =============== function ___ftpack ends ============
  1979                           
  1980                           
  1981 ;; *************** function ___lwmod *****************
  1982 ;; Defined at:
  1983 ;;		line 5 in file "C:\Program Files (x86)\HI-TECH Software\PICC\9.83\sources\lwmod.c"
  1984 ;; Parameters:    Size  Location     Type
  1985 ;;  divisor         2   15[BANK0 ] unsigned int 
  1986 ;;  dividend        2   17[BANK0 ] unsigned int 
  1987 ;; Auto vars:     Size  Location     Type
  1988 ;;  counter         1   19[BANK0 ] unsigned char 
  1989 ;; Return value:  Size  Location     Type
  1990 ;;                  2   15[BANK0 ] unsigned int 
  1991 ;; Registers used:
  1992 ;;		wreg, status,2, status,0
  1993 ;; Tracked objects:
  1994 ;;		On entry : 60/0
  1995 ;;		On exit  : 60/0
  1996 ;;		Unchanged: FFF9F/0
  1997 ;; Data sizes:     COMMON   BANK0   BANK1   BANK3   BANK2
  1998 ;;      Params:         0       4       0       0       0
  1999 ;;      Locals:         0       1       0       0       0
  2000 ;;      Temps:          0       0       0       0       0
  2001 ;;      Totals:         0       5       0       0       0
  2002 ;;Total ram usage:        5 bytes
  2003 ;; Hardware stack levels used:    1
  2004 ;; Hardware stack levels required when called:    3
  2005 ;; This function calls:
  2006 ;;		Nothing
  2007 ;; This function is called by:
  2008 ;;		__doprnt
  2009 ;; This function uses a non-reentrant model
  2010 ;;
  2011  0349                     ___lwmod:	
  2012                           
  2013                           ; Regs used in ___lwmod: [wreg+status,2+status,0]
  2014  0349  0830               	movf	___lwmod@divisor+1,w
  2015  034A  042F               	iorwf	___lwmod@divisor,w
  2016  034B  1903               	skipnz
  2017  034C  2B68               	goto	l4761
  2018  034D  01B3               	clrf	___lwmod@counter
  2019  034E                     L3:	
  2020  034E  0AB3               	incf	___lwmod@counter,f
  2021  034F  1BB0               	btfsc	___lwmod@divisor+1,7
  2022  0350  2B55               	goto	l4753
  2023  0351  1003               	clrc
  2024  0352  0DAF               	rlf	___lwmod@divisor,f
  2025  0353  0DB0               	rlf	___lwmod@divisor+1,f
  2026  0354  2B4E               	goto	L3
  2027  0355                     l4753:	
  2028  0355  0830               	movf	___lwmod@divisor+1,w
  2029  0356  0232               	subwf	___lwmod@dividend+1,w
  2030  0357  1D03               	skipz
  2031  0358  2B5B               	goto	u1825
  2032  0359  082F               	movf	___lwmod@divisor,w
  2033  035A  0231               	subwf	___lwmod@dividend,w
  2034  035B                     u1825:	
  2035  035B  1C03               	skipc
  2036  035C  2B64               	goto	L4
  2037  035D  082F               	movf	___lwmod@divisor,w
  2038  035E  02B1               	subwf	___lwmod@dividend,f
  2039  035F  0830               	movf	___lwmod@divisor+1,w
  2040  0360  1C03               	skipc
  2041  0361  03B2               	decf	___lwmod@dividend+1,f
  2042  0362  02B2               	subwf	___lwmod@dividend+1,f
  2043  0363  1003               	clrc
  2044  0364                     L4:	
  2045  0364  0CB0               	rrf	___lwmod@divisor+1,f
  2046  0365  0CAF               	rrf	___lwmod@divisor,f
  2047  0366  0BB3               	decfsz	___lwmod@counter,f
  2048  0367  2B55               	goto	l4753
  2049  0368                     l4761:	
  2050  0368  0832               	movf	___lwmod@dividend+1,w
  2051  0369  00B0               	movwf	?___lwmod+1
  2052  036A  0831               	movf	___lwmod@dividend,w
  2053  036B  00AF               	movwf	?___lwmod
  2054  036C  0008               	return
  2055  036D                     __end_of___lwmod:	
  2056                           
  2057                           	psect	text465
  2058  036D                     __ptext465:	
  2059 ;; =============== function __doprnt ends ============
  2060                           
  2061                           
  2062 ;; *************** function _putch *****************
  2063 ;; Defined at:
  2064 ;;		line 61 in file "D:\TTVXL\Project TTVXL\BT Ôn Thi 04\BT Ôn Thi 04.c"
  2065 ;; Parameters:    Size  Location     Type
  2066 ;;  c               1   17[BANK0 ] unsigned char 
  2067 ;; Auto vars:     Size  Location     Type
  2068 ;;		None
  2069 ;; Return value:  Size  Location     Type
  2070 ;;		None               void
  2071 ;; Registers used:
  2072 ;;		wreg, fsr0l, fsr0h, status,2, status,0, pclath, cstack
  2073 ;; Tracked objects:
  2074 ;;		On entry : 160/0
  2075 ;;		On exit  : 60/0
  2076 ;;		Unchanged: 0/0
  2077 ;; Data sizes:     COMMON   BANK0   BANK1   BANK3   BANK2
  2078 ;;      Params:         0       1       0       0       0
  2079 ;;      Locals:         0       0       0       0       0
  2080 ;;      Temps:          0       0       0       0       0
  2081 ;;      Totals:         0       1       0       0       0
  2082 ;;Total ram usage:        1 bytes
  2083 ;; Hardware stack levels used:    1
  2084 ;; Hardware stack levels required when called:    6
  2085 ;; This function calls:
  2086 ;;		_lcd_putc
  2087 ;; This function is called by:
  2088 ;;		_printf
  2089 ;;		__doprnt
  2090 ;; This function uses a non-reentrant model
  2091 ;;
  2092  036D                     _putch:	
  2093                           
  2094                           ;BT Ôn Thi 04.c: 62: lcd_putc(c);
  2095                           
  2096 ;; hardware stack exceeded
  2097                           ; Regs used in _putch: [wreg-fsr0h+status,2+status,0+pclath+cstack]
  2098  036D  0831               	movf	putch@c,w
  2099  036E  2B87               	ljmp	_lcd_putc
  2100  036F                     __end_of_putch:	
  2101  036F                     __ptext467:	
  2102 ;; =============== function _lcd_putc ends ============
  2103                           
  2104                           
  2105 ;; *************** function _lcd_gotoxy *****************
  2106 ;; Defined at:
  2107 ;;		line 162 in file "D:\TTVXL\Library\lcd(16).c"
  2108 ;; Parameters:    Size  Location     Type
  2109 ;;  col             1    wreg     unsigned char 
  2110 ;;  row             1   13[BANK0 ] unsigned char 
  2111 ;; Auto vars:     Size  Location     Type
  2112 ;;  col             1   14[BANK0 ] unsigned char 
  2113 ;;  address         1   15[BANK0 ] unsigned char 
  2114 ;; Return value:  Size  Location     Type
  2115 ;;		None               void
  2116 ;; Registers used:
  2117 ;;		wreg, status,2, status,0, pclath, cstack
  2118 ;; Tracked objects:
  2119 ;;		On entry : 60/0
  2120 ;;		On exit  : 60/0
  2121 ;;		Unchanged: 0/0
  2122 ;; Data sizes:     COMMON   BANK0   BANK1   BANK3   BANK2
  2123 ;;      Params:         0       1       0       0       0
  2124 ;;      Locals:         0       2       0       0       0
  2125 ;;      Temps:          0       0       0       0       0
  2126 ;;      Totals:         0       3       0       0       0
  2127 ;;Total ram usage:        3 bytes
  2128 ;; Hardware stack levels used:    1
  2129 ;; Hardware stack levels required when called:    4
  2130 ;; This function calls:
  2131 ;;		_lcd_put_byte
  2132 ;;		_lcd_busy
  2133 ;; This function is called by:
  2134 ;;		_main
  2135 ;;		_lcd_putc
  2136 ;; This function uses a non-reentrant model
  2137 ;;
  2138  036F                     _lcd_gotoxy:	
  2139                           
  2140 ;; hardware stack exceeded
  2141                           ; Regs used in _lcd_gotoxy: [wreg+status,2+status,0+pclath+cstack]
  2142                           ;lcd_gotoxy@col stored from wreg
  2143  036F  00AE               	movwf	lcd_gotoxy@col
  2144                           
  2145                           ;lcd(16).c: 163: unsigned char address;
  2146                           ;lcd(16).c: 165: if(row!=0)
  2147  0370  082D               	movf	lcd_gotoxy@row,w
  2148  0371  1903               	btfsc	3,2
  2149  0372  2B76               	goto	l5175
  2150                           
  2151                           ;lcd(16).c: 166: address=0x40;
  2152  0373  3040               	movlw	64
  2153  0374  00AF               	movwf	lcd_gotoxy@address
  2154  0375  2B77               	goto	l5177
  2155  0376                     l5175:	
  2156                           
  2157                           ;lcd(16).c: 167: else
  2158                           ;lcd(16).c: 168: address=0;
  2159  0376  01AF               	clrf	lcd_gotoxy@address
  2160  0377                     l5177:	
  2161                           
  2162                           ;lcd(16).c: 170: address += col;
  2163  0377  082E               	movf	lcd_gotoxy@col,w
  2164  0378  07AF               	addwf	lcd_gotoxy@address,f
  2165                           
  2166                           ;lcd(16).c: 171: lcd_put_byte(0,0x80|address);
  2167  0379  082F               	movf	lcd_gotoxy@address,w
  2168  037A  3880               	iorlw	128
  2169  037B  00A8               	movwf	?_lcd_put_byte
  2170  037C  3000               	movlw	0
  2171  037D  2477  120A  118A   	fcall	_lcd_put_byte
  2172  0380                     l5181:	
  2173                           ;lcd(16).c: 172: while(lcd_busy());
  2174                           
  2175  0380  2522  120A  118A   	fcall	_lcd_busy
  2176  0383  3800               	iorlw	0
  2177  0384  1903               	btfsc	3,2
  2178  0385  0008               	return
  2179  0386  2B80               	goto	l5181
  2180  0387                     __end_of_lcd_gotoxy:	
  2181  0387                     __ptext466:	
  2182 ;; =============== function _putch ends ============
  2183                           
  2184                           
  2185 ;; *************** function _lcd_putc *****************
  2186 ;; Defined at:
  2187 ;;		line 143 in file "D:\TTVXL\Library\lcd(16).c"
  2188 ;; Parameters:    Size  Location     Type
  2189 ;;  c               1    wreg     unsigned char 
  2190 ;; Auto vars:     Size  Location     Type
  2191 ;;  c               1   16[BANK0 ] unsigned char 
  2192 ;; Return value:  Size  Location     Type
  2193 ;;		None               void
  2194 ;; Registers used:
  2195 ;;		wreg, fsr0l, fsr0h, status,2, status,0, pclath, cstack
  2196 ;; Tracked objects:
  2197 ;;		On entry : 160/0
  2198 ;;		On exit  : 60/0
  2199 ;;		Unchanged: 0/0
  2200 ;; Data sizes:     COMMON   BANK0   BANK1   BANK3   BANK2
  2201 ;;      Params:         0       0       0       0       0
  2202 ;;      Locals:         0       1       0       0       0
  2203 ;;      Temps:          0       0       0       0       0
  2204 ;;      Totals:         0       1       0       0       0
  2205 ;;Total ram usage:        1 bytes
  2206 ;; Hardware stack levels used:    1
  2207 ;; Hardware stack levels required when called:    5
  2208 ;; This function calls:
  2209 ;;		_lcd_put_byte
  2210 ;;		_lcd_busy
  2211 ;;		_lcd_gotoxy
  2212 ;;		_isprint
  2213 ;; This function is called by:
  2214 ;;		_putch
  2215 ;; This function uses a non-reentrant model
  2216 ;;
  2217  0387                     _lcd_putc:	
  2218                           
  2219 ;; hardware stack exceeded
  2220                           ; Regs used in _lcd_putc: [wreg-fsr0h+status,2+status,0+pclath+cstack]
  2221                           ;lcd_putc@c stored from wreg
  2222  0387  00B0               	movwf	lcd_putc@c
  2223                           
  2224                           ;lcd(16).c: 144: switch(c){
  2225  0388  2BAD               	goto	l5199
  2226  0389                     l5185:	
  2227  0389  3000               	movlw	0
  2228                           
  2229                           ;lcd(16).c: 146: lcd_put_byte(0, 1);
  2230  038A  01A8               	clrf	?_lcd_put_byte
  2231  038B  0AA8               	incf	?_lcd_put_byte,f
  2232  038C  2477  120A  118A   	fcall	_lcd_put_byte
  2233  038F                     l5187:	
  2234                           ;lcd(16).c: 147: while(lcd_busy());
  2235                           
  2236  038F  2522  120A  118A   	fcall	_lcd_busy
  2237  0392  3800               	iorlw	0
  2238  0393  1903               	btfsc	3,2
  2239  0394  0008               	return
  2240  0395  2B8F               	goto	l5187
  2241  0396                     l5189:	
  2242  0396  3000               	movlw	0
  2243                           
  2244                           ;lcd(16).c: 150: lcd_gotoxy(0, 1);
  2245  0397  01AD               	clrf	?_lcd_gotoxy
  2246  0398  0AAD               	incf	?_lcd_gotoxy,f
  2247  0399  2B6F               	ljmp	_lcd_gotoxy
  2248  039A                     l5191:	
  2249                           ;lcd(16).c: 151: break;
  2250                           
  2251                           
  2252                           ;lcd(16).c: 153: if(isprint(c)){
  2253  039A  0830               	movf	lcd_putc@c,w
  2254  039B  254D  120A  118A   	fcall	_isprint
  2255  039E  1C03               	btfss	3,0
  2256  039F  0008               	return
  2257                           
  2258                           ;lcd(16).c: 154: lcd_put_byte(1, c);
  2259  03A0  0830               	movf	lcd_putc@c,w
  2260  03A1  00A8               	movwf	?_lcd_put_byte
  2261  03A2  3001               	movlw	1
  2262  03A3  2477  120A  118A   	fcall	_lcd_put_byte
  2263  03A6                     l5195:	
  2264                           ;lcd(16).c: 155: while(lcd_busy());
  2265                           
  2266  03A6  2522  120A  118A   	fcall	_lcd_busy
  2267  03A9  3800               	iorlw	0
  2268  03AA  1903               	btfsc	3,2
  2269  03AB  0008               	return
  2270  03AC  2BA6               	goto	l5195
  2271  03AD                     l5199:	
  2272  03AD  0830               	movf	lcd_putc@c,w
  2273                           
  2274                           ; Switch size 1, requested type "space"
  2275                           ; Number of cases is 2, Range of values is 10 to 12
  2276                           ; switch strategies available:
  2277                           ; Name         Instructions Cycles
  2278                           ; simple_byte            7     4 (average)
  2279                           ; direct_byte           20    11 (fixed)
  2280                           ; jumptable            263     9 (fixed)
  2281                           ;	Chosen strategy is simple_byte
  2282  03AE  3A0A               	xorlw	10	; case 10
  2283  03AF  1903               	skipnz
  2284  03B0  2B96               	goto	l5189
  2285  03B1  3A06               	xorlw	6	; case 12
  2286  03B2  1903               	skipnz
  2287  03B3  2B89               	goto	l5185
  2288  03B4  2B9A               	goto	l5191
  2289  03B5  0008               	return
  2290  03B6                     __end_of_lcd_putc:	
  2291  03B6                     __ptext468:	
  2292 ;; =============== function _lcd_gotoxy ends ============
  2293                           
  2294                           
  2295 ;; *************** function _lcd_init *****************
  2296 ;; Defined at:
  2297 ;;		line 5 in file "D:\TTVXL\Library\lcd(16).c"
  2298 ;; Parameters:    Size  Location     Type
  2299 ;;		None
  2300 ;; Auto vars:     Size  Location     Type
  2301 ;;  i               1    0        unsigned char 
  2302 ;; Return value:  Size  Location     Type
  2303 ;;		None               void
  2304 ;; Registers used:
  2305 ;;		wreg, status,2, status,0, pclath, cstack
  2306 ;; Tracked objects:
  2307 ;;		On entry : 17F/60
  2308 ;;		On exit  : 60/0
  2309 ;;		Unchanged: 0/0
  2310 ;; Data sizes:     COMMON   BANK0   BANK1   BANK3   BANK2
  2311 ;;      Params:         0       0       0       0       0
  2312 ;;      Locals:         0       0       0       0       0
  2313 ;;      Temps:          0       3       0       0       0
  2314 ;;      Totals:         0       3       0       0       0
  2315 ;;Total ram usage:        3 bytes
  2316 ;; Hardware stack levels used:    1
  2317 ;; Hardware stack levels required when called:    4
  2318 ;; This function calls:
  2319 ;;		_lcd_put_byte
  2320 ;;		_lcd_busy
  2321 ;; This function is called by:
  2322 ;;		_main
  2323 ;; This function uses a non-reentrant model
  2324 ;;
  2325  03B6                     _lcd_init:	
  2326                           
  2327                           ;lcd(16).c: 6: unsigned char i;
  2328                           ;lcd(16).c: 7: TRISD3 = 0;
  2329                           
  2330                           ; Regs used in _lcd_init: [wreg+status,2+status,0+pclath+cstack]
  2331  03B6  1303               	bcf	3,6	;RP1=0, select bank1
  2332  03B7  1188               	bcf	8,3
  2333                           
  2334                           ;lcd(16).c: 8: TRISD1 = 0;
  2335  03B8  1088               	bcf	8,1
  2336                           
  2337                           ;lcd(16).c: 9: TRISD2 = 0;
  2338  03B9  1108               	bcf	8,2
  2339                           
  2340                           ;lcd(16).c: 10: TRISD4 = 0;
  2341  03BA  1208               	bcf	8,4
  2342                           
  2343                           ;lcd(16).c: 11: TRISD5 = 0;
  2344  03BB  1288               	bcf	8,5
  2345                           
  2346                           ;lcd(16).c: 12: TRISD6 = 0;
  2347  03BC  1308               	bcf	8,6
  2348                           
  2349                           ;lcd(16).c: 13: TRISD7 = 0;
  2350  03BD  1388               	bcf	8,7
  2351                           
  2352                           ;lcd(16).c: 14: RD3 = 0;
  2353  03BE  1283               	bcf	3,5	;RP0=0, select bank0
  2354  03BF  3003               	movlw	3
  2355  03C0  1188               	bcf	8,3
  2356                           
  2357                           ;lcd(16).c: 15: RD1 = 0;
  2358  03C1  1088               	bcf	8,1
  2359                           
  2360                           ;lcd(16).c: 16: RD2 = 0;
  2361  03C2  1108               	bcf	8,2
  2362                           
  2363                           ;lcd(16).c: 18: _delay((unsigned long)((100)*(20000000/4000.0)));
  2364  03C3  00AF               	movwf	??_lcd_init+2
  2365  03C4  308A               	movlw	138
  2366  03C5  00AE               	movwf	??_lcd_init+1
  2367  03C6  3056               	movlw	86
  2368  03C7  00AD               	movwf	??_lcd_init
  2369  03C8                     u3087:	
  2370  03C8  0BAD               	decfsz	??_lcd_init,f
  2371  03C9  2BC8               	goto	u3087
  2372  03CA  0BAE               	decfsz	??_lcd_init+1,f
  2373  03CB  2BC8               	goto	u3087
  2374  03CC  0BAF               	decfsz	??_lcd_init+2,f
  2375  03CD  2BC8               	goto	u3087
  2376  03CE  2BCF               	nop2
  2377                           
  2378                           ;lcd(16).c: 21: lcd_put_byte(0,0x30);
  2379  03CF  255B  120A  118A   	fcall	PL4	;call to abstracted procedure
  2380  03D2  2477  120A  118A   	fcall	_lcd_put_byte
  2381                           
  2382                           ;lcd(16).c: 22: _delay((unsigned long)((50)*(20000000/4000.0)));
  2383  03D5  3002               	movlw	2
  2384  03D6  00AF               	movwf	??_lcd_init+2
  2385  03D7  3045               	movlw	69
  2386  03D8  00AE               	movwf	??_lcd_init+1
  2387  03D9  30A9               	movlw	169
  2388  03DA  00AD               	movwf	??_lcd_init
  2389  03DB                     u3097:	
  2390  03DB  0BAD               	decfsz	??_lcd_init,f
  2391  03DC  2BDB               	goto	u3097
  2392  03DD  0BAE               	decfsz	??_lcd_init+1,f
  2393  03DE  2BDB               	goto	u3097
  2394  03DF  0BAF               	decfsz	??_lcd_init+2,f
  2395  03E0  2BDB               	goto	u3097
  2396  03E1  2BE2               	nop2
  2397                           
  2398                           ;lcd(16).c: 23: lcd_put_byte(0,0x30);
  2399  03E2  255B  120A  118A   	fcall	PL4	;call to abstracted procedure
  2400  03E5  2477  120A  118A   	fcall	_lcd_put_byte
  2401                           
  2402                           ;lcd(16).c: 24: _delay((unsigned long)((50)*(20000000/4000.0)));
  2403  03E8  3002               	movlw	2
  2404  03E9  00AF               	movwf	??_lcd_init+2
  2405  03EA  3045               	movlw	69
  2406  03EB  00AE               	movwf	??_lcd_init+1
  2407  03EC  30A9               	movlw	169
  2408  03ED  00AD               	movwf	??_lcd_init
  2409  03EE                     u3107:	
  2410  03EE  0BAD               	decfsz	??_lcd_init,f
  2411  03EF  2BEE               	goto	u3107
  2412  03F0  0BAE               	decfsz	??_lcd_init+1,f
  2413  03F1  2BEE               	goto	u3107
  2414  03F2  0BAF               	decfsz	??_lcd_init+2,f
  2415  03F3  2BEE               	goto	u3107
  2416  03F4  2BF5               	nop2
  2417                           
  2418                           ;lcd(16).c: 25: lcd_put_byte(0,0x32);
  2419  03F5  3032               	movlw	50
  2420  03F6  1283               	bcf	3,5	;RP0=0, select bank0
  2421  03F7  1303               	bcf	3,6	;RP1=0, select bank0
  2422  03F8  00A8               	movwf	?_lcd_put_byte
  2423  03F9  3000               	movlw	0
  2424  03FA  2477  120A  118A   	fcall	_lcd_put_byte
  2425                           
  2426                           ;lcd(16).c: 26: _delay((unsigned long)((100)*(20000000/4000.0)));
  2427  03FD  3003               	movlw	3
  2428  03FE  00AF               	movwf	??_lcd_init+2
  2429  03FF  308A               	movlw	138
  2430  0400  00AE               	movwf	??_lcd_init+1
  2431  0401  3056               	movlw	86
  2432  0402  00AD               	movwf	??_lcd_init
  2433  0403                     u3117:	
  2434  0403  0BAD               	decfsz	??_lcd_init,f
  2435  0404  2C03               	goto	u3117
  2436  0405  0BAE               	decfsz	??_lcd_init+1,f
  2437  0406  2C03               	goto	u3117
  2438  0407  0BAF               	decfsz	??_lcd_init+2,f
  2439  0408  2C03               	goto	u3117
  2440  0409  2C0A               	nop2
  2441                           
  2442                           ;lcd(16).c: 27: _delay((unsigned long)((100)*(20000000/4000.0)));
  2443  040A  3003               	movlw	3
  2444  040B  1283               	bcf	3,5	;RP0=0, select bank0
  2445  040C  1303               	bcf	3,6	;RP1=0, select bank0
  2446  040D  00AF               	movwf	??_lcd_init+2
  2447  040E  308A               	movlw	138
  2448  040F  00AE               	movwf	??_lcd_init+1
  2449  0410  3056               	movlw	86
  2450  0411  00AD               	movwf	??_lcd_init
  2451  0412                     u3127:	
  2452  0412  0BAD               	decfsz	??_lcd_init,f
  2453  0413  2C12               	goto	u3127
  2454  0414  0BAE               	decfsz	??_lcd_init+1,f
  2455  0415  2C12               	goto	u3127
  2456  0416  0BAF               	decfsz	??_lcd_init+2,f
  2457  0417  2C12               	goto	u3127
  2458  0418  2C19               	nop2
  2459                           
  2460                           ;lcd(16).c: 28: _delay((unsigned long)((100)*(20000000/4000.0)));
  2461  0419  3003               	movlw	3
  2462  041A  1283               	bcf	3,5	;RP0=0, select bank0
  2463  041B  1303               	bcf	3,6	;RP1=0, select bank0
  2464  041C  00AF               	movwf	??_lcd_init+2
  2465  041D  308A               	movlw	138
  2466  041E  00AE               	movwf	??_lcd_init+1
  2467  041F  3056               	movlw	86
  2468  0420  00AD               	movwf	??_lcd_init
  2469  0421                     u3137:	
  2470  0421  0BAD               	decfsz	??_lcd_init,f
  2471  0422  2C21               	goto	u3137
  2472  0423  0BAE               	decfsz	??_lcd_init+1,f
  2473  0424  2C21               	goto	u3137
  2474  0425  0BAF               	decfsz	??_lcd_init+2,f
  2475  0426  2C21               	goto	u3137
  2476  0427  2C28               	nop2
  2477  0428                     l5145:	
  2478                           ;lcd(16).c: 30: while(lcd_busy());
  2479                           
  2480  0428  2522  120A  118A   	fcall	_lcd_busy
  2481  042B  3800               	iorlw	0
  2482  042C  1D03               	skipz
  2483  042D  2C28               	goto	l5145
  2484                           
  2485                           ;lcd(16).c: 31: lcd_put_byte(0,0b00101100 & 0b00111000);
  2486  042E  3028               	movlw	40
  2487  042F  00A8               	movwf	?_lcd_put_byte
  2488  0430  3000               	movlw	0
  2489  0431  2477  120A  118A   	fcall	_lcd_put_byte
  2490  0434                     l5149:	
  2491                           ;lcd(16).c: 32: while(lcd_busy());
  2492                           
  2493  0434  2522  120A  118A   	fcall	_lcd_busy
  2494  0437  3800               	iorlw	0
  2495  0438  1D03               	skipz
  2496  0439  2C34               	goto	l5149
  2497                           
  2498                           ;lcd(16).c: 34: lcd_put_byte(0,0b00001011&0b00001101&0b00001110);
  2499  043A  3008               	movlw	8
  2500  043B  00A8               	movwf	?_lcd_put_byte
  2501  043C  3000               	movlw	0
  2502  043D  2477  120A  118A   	fcall	_lcd_put_byte
  2503  0440                     l5153:	
  2504                           ;lcd(16).c: 35: while(lcd_busy());
  2505                           
  2506  0440  2522  120A  118A   	fcall	_lcd_busy
  2507  0443  3800               	iorlw	0
  2508  0444  1D03               	skipz
  2509  0445  2C40               	goto	l5153
  2510                           
  2511                           ;lcd(16).c: 36: lcd_put_byte(0,0b00001111&0b00001101&0b00001110);
  2512  0446  300C               	movlw	12
  2513  0447  00A8               	movwf	?_lcd_put_byte
  2514  0448  3000               	movlw	0
  2515  0449  2477  120A  118A   	fcall	_lcd_put_byte
  2516  044C                     l5157:	
  2517                           ;lcd(16).c: 37: while(lcd_busy());
  2518                           
  2519  044C  2522  120A  118A   	fcall	_lcd_busy
  2520  044F  3800               	iorlw	0
  2521  0450  1D03               	skipz
  2522  0451  2C4C               	goto	l5157
  2523  0452  3000               	movlw	0
  2524                           
  2525                           ;lcd(16).c: 39: lcd_put_byte(0,0x01);
  2526  0453  01A8               	clrf	?_lcd_put_byte
  2527  0454  0AA8               	incf	?_lcd_put_byte,f
  2528  0455  2477  120A  118A   	fcall	_lcd_put_byte
  2529  0458                     l5161:	
  2530                           ;lcd(16).c: 40: while(lcd_busy());
  2531                           
  2532  0458  2522  120A  118A   	fcall	_lcd_busy
  2533  045B  3800               	iorlw	0
  2534  045C  1D03               	skipz
  2535  045D  2C58               	goto	l5161
  2536                           
  2537                           ;lcd(16).c: 41: lcd_put_byte(0,0b00000100);
  2538  045E  3004               	movlw	4
  2539  045F  00A8               	movwf	?_lcd_put_byte
  2540  0460  3000               	movlw	0
  2541  0461  2477  120A  118A   	fcall	_lcd_put_byte
  2542  0464                     l5165:	
  2543                           ;lcd(16).c: 42: while(lcd_busy());
  2544                           
  2545  0464  2522  120A  118A   	fcall	_lcd_busy
  2546  0467  3800               	iorlw	0
  2547  0468  1D03               	skipz
  2548  0469  2C64               	goto	l5165
  2549  046A  3000               	movlw	0
  2550                           
  2551                           ;lcd(16).c: 43: lcd_put_byte(0,0x01);
  2552  046B  01A8               	clrf	?_lcd_put_byte
  2553  046C  0AA8               	incf	?_lcd_put_byte,f
  2554  046D  2477  120A  118A   	fcall	_lcd_put_byte
  2555  0470                     l5169:	
  2556                           ;lcd(16).c: 44: while(lcd_busy());
  2557                           
  2558  0470  2522  120A  118A   	fcall	_lcd_busy
  2559  0473  3800               	iorlw	0
  2560  0474  1903               	btfsc	3,2
  2561  0475  0008               	return
  2562  0476  2C70               	goto	l5169
  2563  0477                     __end_of_lcd_init:	
  2564  0477                     __ptext473:	
  2565 ;; =============== function _lcd_busy ends ============
  2566                           
  2567                           
  2568 ;; *************** function _lcd_put_byte *****************
  2569 ;; Defined at:
  2570 ;;		line 106 in file "D:\TTVXL\Library\lcd(16).c"
  2571 ;; Parameters:    Size  Location     Type
  2572 ;;  rs              1    wreg     unsigned char 
  2573 ;;  b               1    8[BANK0 ] unsigned char 
  2574 ;; Auto vars:     Size  Location     Type
  2575 ;;  rs              1   11[BANK0 ] unsigned char 
  2576 ;;  temp            1   12[BANK0 ] struct _BYTE_VAL
  2577 ;; Return value:  Size  Location     Type
  2578 ;;		None               void
  2579 ;; Registers used:
  2580 ;;		wreg, status,2, status,0
  2581 ;; Tracked objects:
  2582 ;;		On entry : 60/0
  2583 ;;		On exit  : 60/0
  2584 ;;		Unchanged: 0/0
  2585 ;; Data sizes:     COMMON   BANK0   BANK1   BANK3   BANK2
  2586 ;;      Params:         0       1       0       0       0
  2587 ;;      Locals:         0       2       0       0       0
  2588 ;;      Temps:          0       2       0       0       0
  2589 ;;      Totals:         0       5       0       0       0
  2590 ;;Total ram usage:        5 bytes
  2591 ;; Hardware stack levels used:    1
  2592 ;; Hardware stack levels required when called:    3
  2593 ;; This function calls:
  2594 ;;		Nothing
  2595 ;; This function is called by:
  2596 ;;		_lcd_init
  2597 ;;		_lcd_putc
  2598 ;;		_lcd_gotoxy
  2599 ;; This function uses a non-reentrant model
  2600 ;;
  2601  0477                     _lcd_put_byte:	
  2602                           
  2603 ;; hardware stack exceeded
  2604                           ; Regs used in _lcd_put_byte: [wreg+status,2+status,0]
  2605                           ;lcd_put_byte@rs stored from wreg
  2606  0477  00AB               	movwf	lcd_put_byte@rs
  2607                           
  2608                           ;lcd(16).c: 107: BYTE_VAL temp;
  2609                           ;lcd(16).c: 109: TRISD4 = 0;
  2610  0478  1683               	bsf	3,5	;RP0=1, select bank1
  2611  0479  1208               	bcf	8,4
  2612                           
  2613                           ;lcd(16).c: 110: TRISD5 = 0;
  2614  047A  1288               	bcf	8,5
  2615                           
  2616                           ;lcd(16).c: 111: TRISD6 = 0;
  2617  047B  1308               	bcf	8,6
  2618                           
  2619                           ;lcd(16).c: 112: TRISD7 = 0;
  2620  047C  1388               	bcf	8,7
  2621                           
  2622                           ;lcd(16).c: 114: RD1 = 0;
  2623  047D  1283               	bcf	3,5	;RP0=0, select bank0
  2624  047E  1088               	bcf	8,1
  2625                           
  2626                           ;lcd(16).c: 115: if(rs) RD1 = 1;
  2627  047F  082B               	movf	lcd_put_byte@rs,w
  2628  0480  1D03               	skipz
  2629  0481  1488               	bsf	8,1
  2630                           
  2631                           ;lcd(16).c: 117: _delay((unsigned long)((20)*(20000000/4000000.0)));
  2632  0482  3021               	movlw	33
  2633  0483  00A9               	movwf	??_lcd_put_byte
  2634  0484                     u3187:	
  2635  0484  0BA9               	decfsz	??_lcd_put_byte,f
  2636  0485  2C84               	goto	u3187
  2637                           
  2638                           ;lcd(16).c: 118: RD2 = 0;
  2639  0486  1283               	bcf	3,5	;RP0=0, select bank0
  2640  0487  1303               	bcf	3,6	;RP1=0, select bank0
  2641  0488  3021               	movlw	33
  2642  0489  1108               	bcf	8,2
  2643                           
  2644                           ;lcd(16).c: 119: _delay((unsigned long)((20)*(20000000/4000000.0)));
  2645  048A  00A9               	movwf	??_lcd_put_byte
  2646  048B                     u3197:	
  2647  048B  0BA9               	decfsz	??_lcd_put_byte,f
  2648  048C  2C8B               	goto	u3197
  2649                           
  2650                           ;lcd(16).c: 120: RD3 = 0;
  2651  048D  1283               	bcf	3,5	;RP0=0, select bank0
  2652  048E  1303               	bcf	3,6	;RP1=0, select bank0
  2653  048F  1188               	bcf	8,3
  2654                           
  2655                           ;lcd(16).c: 122: temp.Val = b;
  2656  0490  0828               	movf	lcd_put_byte@b,w
  2657  0491  00AC               	movwf	lcd_put_byte@temp
  2658                           
  2659                           ;lcd(16).c: 125: RD4 = temp.bits.b4;
  2660  0492  0E2C               	swapf	lcd_put_byte@temp,w
  2661  0493  3901               	andlw	1
  2662  0494  00A9               	movwf	??_lcd_put_byte
  2663  0495  0C29               	rrf	??_lcd_put_byte,w
  2664  0496  1C03               	btfss	3,0
  2665  0497  2C9C               	goto	u2280
  2666  0498  1283               	bcf	3,5	;RP0=0, select bank0
  2667  0499  1303               	bcf	3,6	;RP1=0, select bank0
  2668  049A  1608               	bsf	8,4
  2669  049B  2C9F               	goto	l4959
  2670  049C                     u2280:	
  2671  049C  1283               	bcf	3,5	;RP0=0, select bank0
  2672  049D  1303               	bcf	3,6	;RP1=0, select bank0
  2673  049E  1208               	bcf	8,4
  2674  049F                     l4959:	
  2675                           
  2676                           ;lcd(16).c: 126: RD5 = temp.bits.b5;
  2677  049F  0E2C               	swapf	lcd_put_byte@temp,w
  2678  04A0  00A9               	movwf	??_lcd_put_byte
  2679  04A1  0C29               	rrf	??_lcd_put_byte,w
  2680  04A2  3901               	andlw	1
  2681  04A3  00AA               	movwf	??_lcd_put_byte+1
  2682  04A4  0C2A               	rrf	??_lcd_put_byte+1,w
  2683  04A5  1C03               	btfss	3,0
  2684  04A6  2CAB               	goto	u2300
  2685  04A7  1283               	bcf	3,5	;RP0=0, select bank0
  2686  04A8  1303               	bcf	3,6	;RP1=0, select bank0
  2687  04A9  1688               	bsf	8,5
  2688  04AA  2CAE               	goto	l4961
  2689  04AB                     u2300:	
  2690  04AB  1283               	bcf	3,5	;RP0=0, select bank0
  2691  04AC  1303               	bcf	3,6	;RP1=0, select bank0
  2692  04AD  1288               	bcf	8,5
  2693  04AE                     l4961:	
  2694                           
  2695                           ;lcd(16).c: 127: RD6 = temp.bits.b6;
  2696  04AE  0E2C               	swapf	lcd_put_byte@temp,w
  2697  04AF  00A9               	movwf	??_lcd_put_byte
  2698  04B0  0CA9               	rrf	??_lcd_put_byte,f
  2699  04B1  0C29               	rrf	??_lcd_put_byte,w
  2700  04B2  3901               	andlw	1
  2701  04B3  00AA               	movwf	??_lcd_put_byte+1
  2702  04B4  0C2A               	rrf	??_lcd_put_byte+1,w
  2703  04B5  1C03               	btfss	3,0
  2704  04B6  2CBB               	goto	u2320
  2705  04B7  1283               	bcf	3,5	;RP0=0, select bank0
  2706  04B8  1303               	bcf	3,6	;RP1=0, select bank0
  2707  04B9  1708               	bsf	8,6
  2708  04BA  2CBE               	goto	l4963
  2709  04BB                     u2320:	
  2710  04BB  1283               	bcf	3,5	;RP0=0, select bank0
  2711  04BC  1303               	bcf	3,6	;RP1=0, select bank0
  2712  04BD  1308               	bcf	8,6
  2713  04BE                     l4963:	
  2714                           
  2715                           ;lcd(16).c: 128: RD7 = temp.bits.b7;
  2716  04BE  0D2C               	rlf	lcd_put_byte@temp,w
  2717  04BF  0D2C               	rlf	lcd_put_byte@temp,w
  2718  04C0  3901               	andlw	1
  2719  04C1  00A9               	movwf	??_lcd_put_byte
  2720  04C2  0C29               	rrf	??_lcd_put_byte,w
  2721  04C3  1C03               	btfss	3,0
  2722  04C4  2CC9               	goto	u2340
  2723  04C5  1283               	bcf	3,5	;RP0=0, select bank0
  2724  04C6  1303               	bcf	3,6	;RP1=0, select bank0
  2725  04C7  1788               	bsf	8,7
  2726  04C8  2CCC               	goto	u2354
  2727  04C9                     u2340:	
  2728  04C9  1283               	bcf	3,5	;RP0=0, select bank0
  2729  04CA  1303               	bcf	3,6	;RP1=0, select bank0
  2730  04CB  1388               	bcf	8,7
  2731  04CC                     u2354:	
  2732                           
  2733                           ;lcd(16).c: 129: _delay((unsigned long)((20)*(20000000/4000000.0)));
  2734  04CC  3021               	movlw	33
  2735  04CD  00A9               	movwf	??_lcd_put_byte
  2736  04CE                     u3207:	
  2737  04CE  0BA9               	decfsz	??_lcd_put_byte,f
  2738  04CF  2CCE               	goto	u3207
  2739                           
  2740                           ;lcd(16).c: 130: RD3 = 1;
  2741  04D0  1283               	bcf	3,5	;RP0=0, select bank0
  2742  04D1  1303               	bcf	3,6	;RP1=0, select bank0
  2743  04D2  3021               	movlw	33
  2744  04D3  1588               	bsf	8,3
  2745                           
  2746                           ;lcd(16).c: 131: _delay((unsigned long)((20)*(20000000/4000000.0)));
  2747  04D4  00A9               	movwf	??_lcd_put_byte
  2748  04D5                     u3217:	
  2749  04D5  0BA9               	decfsz	??_lcd_put_byte,f
  2750  04D6  2CD5               	goto	u3217
  2751                           
  2752                           ;lcd(16).c: 132: RD3 = 0;
  2753  04D7  1283               	bcf	3,5	;RP0=0, select bank0
  2754  04D8  1303               	bcf	3,6	;RP1=0, select bank0
  2755  04D9  1188               	bcf	8,3
  2756                           
  2757                           ;lcd(16).c: 134: RD4 = temp.bits.b0;
  2758  04DA  082C               	movf	lcd_put_byte@temp,w
  2759  04DB  3901               	andlw	1
  2760  04DC  00A9               	movwf	??_lcd_put_byte
  2761  04DD  0C29               	rrf	??_lcd_put_byte,w
  2762  04DE  1C03               	btfss	3,0
  2763  04DF  2CE4               	goto	u2360
  2764  04E0  1283               	bcf	3,5	;RP0=0, select bank0
  2765  04E1  1303               	bcf	3,6	;RP1=0, select bank0
  2766  04E2  1608               	bsf	8,4
  2767  04E3  2CE7               	goto	l4971
  2768  04E4                     u2360:	
  2769  04E4  1283               	bcf	3,5	;RP0=0, select bank0
  2770  04E5  1303               	bcf	3,6	;RP1=0, select bank0
  2771  04E6  1208               	bcf	8,4
  2772  04E7                     l4971:	
  2773                           
  2774                           ;lcd(16).c: 135: RD5 = temp.bits.b1;
  2775  04E7  0C2C               	rrf	lcd_put_byte@temp,w
  2776  04E8  3901               	andlw	1
  2777  04E9  00A9               	movwf	??_lcd_put_byte
  2778  04EA  0C29               	rrf	??_lcd_put_byte,w
  2779  04EB  1C03               	btfss	3,0
  2780  04EC  2CF1               	goto	u2380
  2781  04ED  1283               	bcf	3,5	;RP0=0, select bank0
  2782  04EE  1303               	bcf	3,6	;RP1=0, select bank0
  2783  04EF  1688               	bsf	8,5
  2784  04F0  2CF4               	goto	l4973
  2785  04F1                     u2380:	
  2786  04F1  1283               	bcf	3,5	;RP0=0, select bank0
  2787  04F2  1303               	bcf	3,6	;RP1=0, select bank0
  2788  04F3  1288               	bcf	8,5
  2789  04F4                     l4973:	
  2790                           
  2791                           ;lcd(16).c: 136: RD6 = temp.bits.b2;
  2792  04F4  0C2C               	rrf	lcd_put_byte@temp,w
  2793  04F5  00A9               	movwf	??_lcd_put_byte
  2794  04F6  0C29               	rrf	??_lcd_put_byte,w
  2795  04F7  3901               	andlw	1
  2796  04F8  00AA               	movwf	??_lcd_put_byte+1
  2797  04F9  0C2A               	rrf	??_lcd_put_byte+1,w
  2798  04FA  1C03               	btfss	3,0
  2799  04FB  2D00               	goto	u2400
  2800  04FC  1283               	bcf	3,5	;RP0=0, select bank0
  2801  04FD  1303               	bcf	3,6	;RP1=0, select bank0
  2802  04FE  1708               	bsf	8,6
  2803  04FF  2D03               	goto	l4975
  2804  0500                     u2400:	
  2805  0500  1283               	bcf	3,5	;RP0=0, select bank0
  2806  0501  1303               	bcf	3,6	;RP1=0, select bank0
  2807  0502  1308               	bcf	8,6
  2808  0503                     l4975:	
  2809                           
  2810                           ;lcd(16).c: 137: RD7 = temp.bits.b3;
  2811  0503  0C2C               	rrf	lcd_put_byte@temp,w
  2812  0504  00A9               	movwf	??_lcd_put_byte
  2813  0505  0CA9               	rrf	??_lcd_put_byte,f
  2814  0506  0C29               	rrf	??_lcd_put_byte,w
  2815  0507  3901               	andlw	1
  2816  0508  00AA               	movwf	??_lcd_put_byte+1
  2817  0509  0C2A               	rrf	??_lcd_put_byte+1,w
  2818  050A  1C03               	btfss	3,0
  2819  050B  2D10               	goto	u2420
  2820  050C  1283               	bcf	3,5	;RP0=0, select bank0
  2821  050D  1303               	bcf	3,6	;RP1=0, select bank0
  2822  050E  1788               	bsf	8,7
  2823  050F  2D13               	goto	u2434
  2824  0510                     u2420:	
  2825  0510  1283               	bcf	3,5	;RP0=0, select bank0
  2826  0511  1303               	bcf	3,6	;RP1=0, select bank0
  2827  0512  1388               	bcf	8,7
  2828  0513                     u2434:	
  2829                           
  2830                           ;lcd(16).c: 138: _delay((unsigned long)((20)*(20000000/4000000.0)));
  2831  0513  3021               	movlw	33
  2832  0514  00A9               	movwf	??_lcd_put_byte
  2833  0515                     u3227:	
  2834  0515  0BA9               	decfsz	??_lcd_put_byte,f
  2835  0516  2D15               	goto	u3227
  2836                           
  2837                           ;lcd(16).c: 139: RD3 = 1;
  2838  0517  1283               	bcf	3,5	;RP0=0, select bank0
  2839  0518  1303               	bcf	3,6	;RP1=0, select bank0
  2840  0519  3021               	movlw	33
  2841  051A  1588               	bsf	8,3
  2842                           
  2843                           ;lcd(16).c: 140: _delay((unsigned long)((20)*(20000000/4000000.0)));
  2844  051B  00A9               	movwf	??_lcd_put_byte
  2845  051C                     u3237:	
  2846  051C  0BA9               	decfsz	??_lcd_put_byte,f
  2847  051D  2D1C               	goto	u3237
  2848                           
  2849                           ;lcd(16).c: 141: RD3 = 0;
  2850  051E  1283               	bcf	3,5	;RP0=0, select bank0
  2851  051F  1303               	bcf	3,6	;RP1=0, select bank0
  2852  0520  1188               	bcf	8,3
  2853  0521  0008               	return
  2854  0522                     __end_of_lcd_put_byte:	
  2855  0522                     __ptext472:	
  2856 ;; =============== function ___ftadd ends ============
  2857                           
  2858                           
  2859 ;; *************** function _lcd_busy *****************
  2860 ;; Defined at:
  2861 ;;		line 47 in file "D:\TTVXL\Library\lcd(16).c"
  2862 ;; Parameters:    Size  Location     Type
  2863 ;;		None
  2864 ;; Auto vars:     Size  Location     Type
  2865 ;;  busy            1    9[BANK0 ] unsigned char 
  2866 ;; Return value:  Size  Location     Type
  2867 ;;                  1    wreg      unsigned char 
  2868 ;; Registers used:
  2869 ;;		wreg
  2870 ;; Tracked objects:
  2871 ;;		On entry : 0/0
  2872 ;;		On exit  : 60/0
  2873 ;;		Unchanged: 0/0
  2874 ;; Data sizes:     COMMON   BANK0   BANK1   BANK3   BANK2
  2875 ;;      Params:         0       0       0       0       0
  2876 ;;      Locals:         0       1       0       0       0
  2877 ;;      Temps:          0       1       0       0       0
  2878 ;;      Totals:         0       2       0       0       0
  2879 ;;Total ram usage:        2 bytes
  2880 ;; Hardware stack levels used:    1
  2881 ;; Hardware stack levels required when called:    3
  2882 ;; This function calls:
  2883 ;;		Nothing
  2884 ;; This function is called by:
  2885 ;;		_lcd_init
  2886 ;;		_lcd_putc
  2887 ;;		_lcd_gotoxy
  2888 ;; This function uses a non-reentrant model
  2889 ;;
  2890  0522                     _lcd_busy:	
  2891                           
  2892                           ;lcd(16).c: 48: unsigned char busy;
  2893                           ;lcd(16).c: 50: TRISD4 = 1;
  2894                           
  2895 ;; hardware stack exceeded
  2896                           ; Regs used in _lcd_busy: [wreg]
  2897  0522  1683               	bsf	3,5	;RP0=1, select bank1
  2898  0523  1303               	bcf	3,6	;RP1=0, select bank1
  2899  0524  1608               	bsf	8,4
  2900                           
  2901                           ;lcd(16).c: 51: TRISD5 = 1;
  2902  0525  1688               	bsf	8,5
  2903                           
  2904                           ;lcd(16).c: 52: TRISD6 = 1;
  2905  0526  1708               	bsf	8,6
  2906                           
  2907                           ;lcd(16).c: 53: TRISD7 = 1;
  2908  0527  1788               	bsf	8,7
  2909                           
  2910                           ;lcd(16).c: 55: RD2 = 1;
  2911  0528  1283               	bcf	3,5	;RP0=0, select bank0
  2912  0529  3021               	movlw	33
  2913  052A  1508               	bsf	8,2
  2914                           
  2915                           ;lcd(16).c: 56: RD1 = 0;
  2916  052B  1088               	bcf	8,1
  2917                           
  2918                           ;lcd(16).c: 57: _delay((unsigned long)((20)*(20000000/4000000.0)));
  2919  052C  00A8               	movwf	??_lcd_busy
  2920  052D                     u3147:	
  2921  052D  0BA8               	decfsz	??_lcd_busy,f
  2922  052E  2D2D               	goto	u3147
  2923                           
  2924                           ;lcd(16).c: 58: RD3 = 1;
  2925  052F  1283               	bcf	3,5	;RP0=0, select bank0
  2926  0530  1303               	bcf	3,6	;RP1=0, select bank0
  2927  0531  3021               	movlw	33
  2928  0532  1588               	bsf	8,3
  2929                           
  2930                           ;lcd(16).c: 59: _delay((unsigned long)((20)*(20000000/4000000.0)));
  2931  0533  00A8               	movwf	??_lcd_busy
  2932  0534                     u3157:	
  2933  0534  0BA8               	decfsz	??_lcd_busy,f
  2934  0535  2D34               	goto	u3157
  2935                           
  2936                           ;lcd(16).c: 61: busy = RD7;
  2937  0536  3000               	movlw	0
  2938  0537  1283               	bcf	3,5	;RP0=0, select bank0
  2939  0538  1303               	bcf	3,6	;RP1=0, select bank0
  2940  0539  1B88               	btfsc	8,7
  2941  053A  3001               	movlw	1
  2942  053B  00A9               	movwf	lcd_busy@busy
  2943  053C  3021               	movlw	33
  2944                           
  2945                           ;lcd(16).c: 63: RD3 = 0;
  2946  053D  1188               	bcf	8,3
  2947                           
  2948                           ;lcd(16).c: 64: _delay((unsigned long)((20)*(20000000/4000000.0)));
  2949  053E  00A8               	movwf	??_lcd_busy
  2950  053F                     u3167:	
  2951  053F  0BA8               	decfsz	??_lcd_busy,f
  2952  0540  2D3F               	goto	u3167
  2953                           
  2954                           ;lcd(16).c: 65: RD3 = 1;
  2955  0541  1283               	bcf	3,5	;RP0=0, select bank0
  2956  0542  1303               	bcf	3,6	;RP1=0, select bank0
  2957  0543  3021               	movlw	33
  2958  0544  1588               	bsf	8,3
  2959                           
  2960                           ;lcd(16).c: 66: _delay((unsigned long)((20)*(20000000/4000000.0)));
  2961  0545  00A8               	movwf	??_lcd_busy
  2962  0546                     u3177:	
  2963  0546  0BA8               	decfsz	??_lcd_busy,f
  2964  0547  2D46               	goto	u3177
  2965                           
  2966                           ;lcd(16).c: 67: RD3 = 0;
  2967  0548  1283               	bcf	3,5	;RP0=0, select bank0
  2968  0549  1303               	bcf	3,6	;RP1=0, select bank0
  2969  054A  1188               	bcf	8,3
  2970                           
  2971                           ;lcd(16).c: 70: return busy;
  2972  054B  0829               	movf	lcd_busy@busy,w
  2973  054C  0008               	return
  2974  054D                     __end_of_lcd_busy:	
  2975  054D                     __ptext481:	
  2976 ;; =============== function _isdigit ends ============
  2977                           
  2978                           
  2979 ;; *************** function _isprint *****************
  2980 ;; Defined at:
  2981 ;;		line 13 in file "C:\Program Files (x86)\HI-TECH Software\PICC\9.83\sources\isprint.c"
  2982 ;; Parameters:    Size  Location     Type
  2983 ;;  c               1    wreg     unsigned char 
  2984 ;; Auto vars:     Size  Location     Type
  2985 ;;  c               1    9[BANK0 ] unsigned char 
  2986 ;; Return value:  Size  Location     Type
  2987 ;;		None               void
  2988 ;; Registers used:
  2989 ;;		wreg, status,2, status,0
  2990 ;; Tracked objects:
  2991 ;;		On entry : 160/0
  2992 ;;		On exit  : 160/0
  2993 ;;		Unchanged: FFE9F/0
  2994 ;; Data sizes:     COMMON   BANK0   BANK1   BANK3   BANK2
  2995 ;;      Params:         0       0       0       0       0
  2996 ;;      Locals:         0       2       0       0       0
  2997 ;;      Temps:          0       0       0       0       0
  2998 ;;      Totals:         0       2       0       0       0
  2999 ;;Total ram usage:        2 bytes
  3000 ;; Hardware stack levels used:    1
  3001 ;; Hardware stack levels required when called:    3
  3002 ;; This function calls:
  3003 ;;		Nothing
  3004 ;; This function is called by:
  3005 ;;		_lcd_putc
  3006 ;; This function uses a non-reentrant model
  3007 ;;
  3008  054D                     _isprint:	
  3009                           
  3010                           ; Regs used in _isprint: [wreg+status,2+status,0]
  3011                           ;isprint@c stored from wreg
  3012  054D  00A9               	movwf	isprint@c
  3013  054E  307F               	movlw	127
  3014  054F  01A8               	clrf	_isprint$3690
  3015  0550  0229               	subwf	isprint@c,w
  3016  0551  1803               	skipnc
  3017  0552  2D59               	goto	l4687
  3018  0553  3020               	movlw	32
  3019  0554  0229               	subwf	isprint@c,w
  3020  0555  1C03               	skipc
  3021  0556  2D59               	goto	l4687
  3022  0557  01A8               	clrf	_isprint$3690
  3023  0558  0AA8               	incf	_isprint$3690,f
  3024  0559                     l4687:	
  3025  0559  0C28               	rrf	_isprint$3690,w
  3026  055A  0008               	return
  3027  055B                     __end_of_isprint:	
  3028  055B                     PL4:	
  3029  055B  3030               	movlw	48
  3030  055C  1283               	bcf	3,5	;RP0=0, select bank0
  3031  055D  1303               	bcf	3,6	;RP1=0, select bank0
  3032  055E  00A8               	movwf	?_lcd_put_byte
  3033  055F  3400               	retlw	0
  3034                           
  3035                           	psect	text469
  3036  0560                     __ptext469:	
  3037 ;; =============== function _lcd_init ends ============
  3038                           
  3039                           
  3040 ;; *************** function ___lbtoft *****************
  3041 ;; Defined at:
  3042 ;;		line 28 in file "C:\Program Files (x86)\HI-TECH Software\PICC\9.83\sources\lbtoft.c"
  3043 ;; Parameters:    Size  Location     Type
  3044 ;;  c               1    wreg     unsigned char 
  3045 ;; Auto vars:     Size  Location     Type
  3046 ;;  c               1   32[BANK0 ] unsigned char 
  3047 ;; Return value:  Size  Location     Type
  3048 ;;                  3   29[BANK0 ] float 
  3049 ;; Registers used:
  3050 ;;		wreg, status,2, status,0, pclath, cstack
  3051 ;; Tracked objects:
  3052 ;;		On entry : 60/0
  3053 ;;		On exit  : 60/0
  3054 ;;		Unchanged: FFF9F/0
  3055 ;; Data sizes:     COMMON   BANK0   BANK1   BANK3   BANK2
  3056 ;;      Params:         0       3       0       0       0
  3057 ;;      Locals:         0       1       0       0       0
  3058 ;;      Temps:          0       0       0       0       0
  3059 ;;      Totals:         0       4       0       0       0
  3060 ;;Total ram usage:        4 bytes
  3061 ;; Hardware stack levels used:    1
  3062 ;; Hardware stack levels required when called:    4
  3063 ;; This function calls:
  3064 ;;		___ftpack
  3065 ;; This function is called by:
  3066 ;;		_main
  3067 ;; This function uses a non-reentrant model
  3068 ;;
  3069  0560                     ___lbtoft:	
  3070                           
  3071                           ; Regs used in ___lbtoft: [wreg+status,2+status,0+pclath+cstack]
  3072                           ;___lbtoft@c stored from wreg
  3073  0560  00C0               	movwf	___lbtoft@c
  3074  0561  00A8               	movwf	?___ftpack
  3075  0562  308E               	movlw	142
  3076  0563  01A9               	clrf	?___ftpack+1
  3077  0564  01AA               	clrf	?___ftpack+2
  3078  0565  00AB               	movwf	?___ftpack+3
  3079  0566  01AC               	clrf	?___ftpack+4
  3080  0567  269E               	fcall	___ftpack
  3081  0568  0828               	movf	?___ftpack,w
  3082  0569  00BD               	movwf	?___lbtoft
  3083  056A  0829               	movf	?___ftpack+1,w
  3084  056B  00BE               	movwf	?___lbtoft+1
  3085  056C  082A               	movf	?___ftpack+2,w
  3086  056D  00BF               	movwf	?___lbtoft+2
  3087  056E  0008               	return
  3088  056F                     __end_of___lbtoft:	
  3089  056F                     __ptext470:	
  3090 ;; =============== function ___lbtoft ends ============
  3091                           
  3092                           
  3093 ;; *************** function ___ftmul *****************
  3094 ;; Defined at:
  3095 ;;		line 52 in file "C:\Program Files (x86)\HI-TECH Software\PICC\9.83\sources\ftmul.c"
  3096 ;; Parameters:    Size  Location     Type
  3097 ;;  f1              3   29[BANK0 ] float 
  3098 ;;  f2              3   32[BANK0 ] float 
  3099 ;; Auto vars:     Size  Location     Type
  3100 ;;  f3_as_produc    3   39[BANK0 ] unsigned um
  3101 ;;  sign            1   43[BANK0 ] unsigned char 
  3102 ;;  cntr            1   42[BANK0 ] unsigned char 
  3103 ;;  exp             1   38[BANK0 ] unsigned char 
  3104 ;; Return value:  Size  Location     Type
  3105 ;;                  3   29[BANK0 ] float 
  3106 ;; Registers used:
  3107 ;;		wreg, status,2, status,0, pclath, cstack
  3108 ;; Tracked objects:
  3109 ;;		On entry : 60/0
  3110 ;;		On exit  : 60/0
  3111 ;;		Unchanged: FFF9F/0
  3112 ;; Data sizes:     COMMON   BANK0   BANK1   BANK3   BANK2
  3113 ;;      Params:         0       6       0       0       0
  3114 ;;      Locals:         0       6       0       0       0
  3115 ;;      Temps:          0       3       0       0       0
  3116 ;;      Totals:         0      15       0       0       0
  3117 ;;Total ram usage:       15 bytes
  3118 ;; Hardware stack levels used:    1
  3119 ;; Hardware stack levels required when called:    4
  3120 ;; This function calls:
  3121 ;;		___ftpack
  3122 ;; This function is called by:
  3123 ;;		_main
  3124 ;; This function uses a non-reentrant model
  3125 ;;
  3126  056F                     ___ftmul:	
  3127                           
  3128                           ; Regs used in ___ftmul: [wreg+status,2+status,0+pclath+cstack]
  3129  056F  083D               	movf	___ftmul@f1,w
  3130  0570  00C3               	movwf	??___ftmul
  3131  0571  083E               	movf	___ftmul@f1+1,w
  3132  0572  00C4               	movwf	??___ftmul+1
  3133  0573  083F               	movf	___ftmul@f1+2,w
  3134  0574  00C5               	movwf	??___ftmul+2
  3135  0575  1003               	clrc
  3136  0576  0D44               	rlf	??___ftmul+1,w
  3137  0577  0D45               	rlf	??___ftmul+2,w
  3138  0578  00C6               	movwf	___ftmul@exp
  3139  0579  08C6               	movf	___ftmul@exp,f
  3140  057A  1D03               	skipz
  3141  057B  2D80               	goto	l5079
  3142  057C  01BD               	clrf	?___ftmul
  3143  057D  01BE               	clrf	?___ftmul+1
  3144  057E  01BF               	clrf	?___ftmul+2
  3145  057F  0008               	return
  3146  0580                     l5079:	
  3147  0580  0840               	movf	___ftmul@f2,w
  3148  0581  00C3               	movwf	??___ftmul
  3149  0582  0841               	movf	___ftmul@f2+1,w
  3150  0583  00C4               	movwf	??___ftmul+1
  3151  0584  0842               	movf	___ftmul@f2+2,w
  3152  0585  00C5               	movwf	??___ftmul+2
  3153  0586  1003               	clrc
  3154  0587  0D44               	rlf	??___ftmul+1,w
  3155  0588  0D45               	rlf	??___ftmul+2,w
  3156  0589  00CB               	movwf	___ftmul@sign
  3157  058A  08CB               	movf	___ftmul@sign,f
  3158  058B  1D03               	skipz
  3159  058C  2D91               	goto	l5085
  3160  058D  01BD               	clrf	?___ftmul
  3161  058E  01BE               	clrf	?___ftmul+1
  3162  058F  01BF               	clrf	?___ftmul+2
  3163  0590  0008               	return
  3164  0591                     l5085:	
  3165  0591  084B               	movf	___ftmul@sign,w
  3166  0592  3E7B               	addlw	123
  3167  0593  07C6               	addwf	___ftmul@exp,f
  3168  0594  083F               	movf	___ftmul@f1+2,w
  3169  0595  00CB               	movwf	___ftmul@sign
  3170  0596  0842               	movf	___ftmul@f2+2,w
  3171  0597  06CB               	xorwf	___ftmul@sign,f
  3172  0598  3080               	movlw	128
  3173  0599  05CB               	andwf	___ftmul@sign,f
  3174  059A  3007               	movlw	7
  3175  059B  17BE               	bsf	___ftmul@f1+1,7
  3176  059C  17C1               	bsf	___ftmul@f2+1,7
  3177  059D  01C2               	clrf	___ftmul@f2+2
  3178  059E  01C7               	clrf	___ftmul@f3_as_product
  3179  059F  01C8               	clrf	___ftmul@f3_as_product+1
  3180  05A0  01C9               	clrf	___ftmul@f3_as_product+2
  3181  05A1  00CA               	movwf	___ftmul@cntr
  3182  05A2                     l5103:	
  3183  05A2  1C3D               	btfss	___ftmul@f1,0
  3184  05A3  2DAC               	goto	l5107
  3185  05A4  0840               	movf	___ftmul@f2,w
  3186  05A5  26DC  120A  118A   	fcall	PL2	;call to abstracted procedure
  3187  05A8  1803               	skipnc
  3188  05A9  0A42               	incf	___ftmul@f2+2,w
  3189  05AA  1D03               	btfss	3,2
  3190  05AB  07C9               	addwf	___ftmul@f3_as_product+2,f
  3191  05AC                     l5107:	
  3192  05AC  1003               	clrc
  3193  05AD  0CBF               	rrf	___ftmul@f1+2,f
  3194  05AE  0CBE               	rrf	___ftmul@f1+1,f
  3195  05AF  0CBD               	rrf	___ftmul@f1,f
  3196  05B0  1003               	clrc
  3197  05B1  0DC0               	rlf	___ftmul@f2,f
  3198  05B2  0DC1               	rlf	___ftmul@f2+1,f
  3199  05B3  0DC2               	rlf	___ftmul@f2+2,f
  3200  05B4  0BCA               	decfsz	___ftmul@cntr,f
  3201  05B5  2DA2               	goto	l5103
  3202  05B6  3009               	movlw	9
  3203  05B7  00CA               	movwf	___ftmul@cntr
  3204  05B8                     l5115:	
  3205  05B8  1C3D               	btfss	___ftmul@f1,0
  3206  05B9  2DC2               	goto	l5119
  3207  05BA  0840               	movf	___ftmul@f2,w
  3208  05BB  26DC  120A  118A   	fcall	PL2	;call to abstracted procedure
  3209  05BE  1803               	skipnc
  3210  05BF  0A42               	incf	___ftmul@f2+2,w
  3211  05C0  1D03               	btfss	3,2
  3212  05C1  07C9               	addwf	___ftmul@f3_as_product+2,f
  3213  05C2                     l5119:	
  3214  05C2  1003               	clrc
  3215  05C3  0CBF               	rrf	___ftmul@f1+2,f
  3216  05C4  0CBE               	rrf	___ftmul@f1+1,f
  3217  05C5  0CBD               	rrf	___ftmul@f1,f
  3218  05C6  1003               	clrc
  3219  05C7  0CC9               	rrf	___ftmul@f3_as_product+2,f
  3220  05C8  0CC8               	rrf	___ftmul@f3_as_product+1,f
  3221  05C9  0CC7               	rrf	___ftmul@f3_as_product,f
  3222  05CA  0BCA               	decfsz	___ftmul@cntr,f
  3223  05CB  2DB8               	goto	l5115
  3224  05CC  0847               	movf	___ftmul@f3_as_product,w
  3225  05CD  00A8               	movwf	?___ftpack
  3226  05CE  0848               	movf	___ftmul@f3_as_product+1,w
  3227  05CF  00A9               	movwf	?___ftpack+1
  3228  05D0  0849               	movf	___ftmul@f3_as_product+2,w
  3229  05D1  00AA               	movwf	?___ftpack+2
  3230  05D2  0846               	movf	___ftmul@exp,w
  3231  05D3  00AB               	movwf	?___ftpack+3
  3232  05D4  084B               	movf	___ftmul@sign,w
  3233  05D5  00AC               	movwf	?___ftpack+4
  3234  05D6  269E               	fcall	___ftpack
  3235  05D7  0828               	movf	?___ftpack,w
  3236  05D8  00BD               	movwf	?___ftmul
  3237  05D9  0829               	movf	?___ftpack+1,w
  3238  05DA  00BE               	movwf	?___ftmul+1
  3239  05DB  082A               	movf	?___ftpack+2,w
  3240  05DC  00BF               	movwf	?___ftmul+2
  3241  05DD  0008               	return
  3242  05DE                     __end_of___ftmul:	
  3243  05DE                     __ptext471:	
  3244 ;; =============== function ___ftmul ends ============
  3245                           
  3246                           
  3247 ;; *************** function ___ftadd *****************
  3248 ;; Defined at:
  3249 ;;		line 87 in file "C:\Program Files (x86)\HI-TECH Software\PICC\9.83\sources\ftadd.c"
  3250 ;; Parameters:    Size  Location     Type
  3251 ;;  f1              3   44[BANK0 ] float 
  3252 ;;  f2              3   47[BANK0 ] float 
  3253 ;; Auto vars:     Size  Location     Type
  3254 ;;  exp1            1   55[BANK0 ] unsigned char 
  3255 ;;  exp2            1   54[BANK0 ] unsigned char 
  3256 ;;  sign            1   53[BANK0 ] unsigned char 
  3257 ;; Return value:  Size  Location     Type
  3258 ;;                  3   44[BANK0 ] float 
  3259 ;; Registers used:
  3260 ;;		wreg, status,2, status,0, pclath, cstack
  3261 ;; Tracked objects:
  3262 ;;		On entry : 60/0
  3263 ;;		On exit  : 60/0
  3264 ;;		Unchanged: FFF9F/0
  3265 ;; Data sizes:     COMMON   BANK0   BANK1   BANK3   BANK2
  3266 ;;      Params:         0       6       0       0       0
  3267 ;;      Locals:         0       3       0       0       0
  3268 ;;      Temps:          0       3       0       0       0
  3269 ;;      Totals:         0      12       0       0       0
  3270 ;;Total ram usage:       12 bytes
  3271 ;; Hardware stack levels used:    1
  3272 ;; Hardware stack levels required when called:    4
  3273 ;; This function calls:
  3274 ;;		___ftpack
  3275 ;; This function is called by:
  3276 ;;		_main
  3277 ;; This function uses a non-reentrant model
  3278 ;;
  3279  05DE                     ___ftadd:	
  3280                           
  3281                           ; Regs used in ___ftadd: [wreg+status,2+status,0+pclath+cstack]
  3282  05DE  084C               	movf	___ftadd@f1,w
  3283  05DF  00D2               	movwf	??___ftadd
  3284  05E0  084D               	movf	___ftadd@f1+1,w
  3285  05E1  00D3               	movwf	??___ftadd+1
  3286  05E2  084E               	movf	___ftadd@f1+2,w
  3287  05E3  00D4               	movwf	??___ftadd+2
  3288  05E4  1003               	clrc
  3289  05E5  0D53               	rlf	??___ftadd+1,w
  3290  05E6  0D54               	rlf	??___ftadd+2,w
  3291  05E7  00D7               	movwf	___ftadd@exp1
  3292  05E8  084F               	movf	___ftadd@f2,w
  3293  05E9  00D2               	movwf	??___ftadd
  3294  05EA  0850               	movf	___ftadd@f2+1,w
  3295  05EB  00D3               	movwf	??___ftadd+1
  3296  05EC  0851               	movf	___ftadd@f2+2,w
  3297  05ED  00D4               	movwf	??___ftadd+2
  3298  05EE  1003               	clrc
  3299  05EF  0D53               	rlf	??___ftadd+1,w
  3300  05F0  0D54               	rlf	??___ftadd+2,w
  3301  05F1  00D6               	movwf	___ftadd@exp2
  3302  05F2  0857               	movf	___ftadd@exp1,w
  3303  05F3  1903               	btfsc	3,2
  3304  05F4  2E01               	goto	l5003
  3305  05F5  0856               	movf	___ftadd@exp2,w
  3306  05F6  0257               	subwf	___ftadd@exp1,w
  3307  05F7  0856               	movf	___ftadd@exp2,w
  3308  05F8  1803               	skipnc
  3309  05F9  2E09               	goto	L2
  3310  05FA  00D2               	movwf	??___ftadd
  3311  05FB  0857               	movf	___ftadd@exp1,w
  3312  05FC  02D2               	subwf	??___ftadd,f
  3313  05FD  3019               	movlw	25
  3314  05FE  0252               	subwf	??___ftadd,w
  3315  05FF  1C03               	skipc
  3316  0600  2E08               	goto	l5007
  3317  0601                     l5003:	
  3318  0601  084F               	movf	___ftadd@f2,w
  3319  0602  00CC               	movwf	?___ftadd
  3320  0603  0850               	movf	___ftadd@f2+1,w
  3321  0604  00CD               	movwf	?___ftadd+1
  3322  0605  0851               	movf	___ftadd@f2+2,w
  3323  0606  00CE               	movwf	?___ftadd+2
  3324  0607  0008               	return
  3325  0608                     l5007:	
  3326  0608  0856               	movf	___ftadd@exp2,w
  3327  0609                     L2:	
  3328  0609  1903               	btfsc	3,2
  3329  060A  0008               	return
  3330  060B  0857               	movf	___ftadd@exp1,w
  3331  060C  0256               	subwf	___ftadd@exp2,w
  3332  060D  1803               	skipnc
  3333  060E  2E17               	goto	l5013
  3334  060F  0857               	movf	___ftadd@exp1,w
  3335  0610  00D2               	movwf	??___ftadd
  3336  0611  0856               	movf	___ftadd@exp2,w
  3337  0612  02D2               	subwf	??___ftadd,f
  3338  0613  3019               	movlw	25
  3339  0614  0252               	subwf	??___ftadd,w
  3340  0615  1803               	btfsc	3,0
  3341  0616  0008               	return
  3342  0617                     l5013:	
  3343  0617  3006               	movlw	6
  3344  0618  00D5               	movwf	___ftadd@sign
  3345  0619  1BCE               	btfsc	___ftadd@f1+2,7
  3346  061A  17D5               	bsf	___ftadd@sign,7
  3347  061B  1BD1               	btfsc	___ftadd@f2+2,7
  3348  061C  1755               	bsf	___ftadd@sign,6
  3349  061D  17CD               	bsf	___ftadd@f1+1,7
  3350  061E  01CE               	clrf	___ftadd@f1+2
  3351  061F  17D0               	bsf	___ftadd@f2+1,7
  3352  0620  01D1               	clrf	___ftadd@f2+2
  3353  0621  0856               	movf	___ftadd@exp2,w
  3354  0622  0257               	subwf	___ftadd@exp1,w
  3355  0623  1803               	skipnc
  3356  0624  2E3E               	goto	l5035
  3357  0625                     l5025:	
  3358  0625  1003               	clrc
  3359  0626  0DCF               	rlf	___ftadd@f2,f
  3360  0627  0DD0               	rlf	___ftadd@f2+1,f
  3361  0628  0DD1               	rlf	___ftadd@f2+2,f
  3362  0629  03D6               	decf	___ftadd@exp2,f
  3363  062A  0856               	movf	___ftadd@exp2,w
  3364  062B  0657               	xorwf	___ftadd@exp1,w
  3365  062C  1903               	skipnz
  3366  062D  2E39               	goto	l5033
  3367  062E  03D5               	decf	___ftadd@sign,f
  3368  062F  0855               	movf	___ftadd@sign,w
  3369  0630  3907               	andlw	7
  3370  0631  1903               	btfsc	3,2
  3371  0632  2E39               	goto	l5033
  3372  0633  2E25               	goto	l5025
  3373  0634                     l5031:	
  3374  0634  1003               	clrc
  3375  0635  0CCE               	rrf	___ftadd@f1+2,f
  3376  0636  0CCD               	rrf	___ftadd@f1+1,f
  3377  0637  0CCC               	rrf	___ftadd@f1,f
  3378  0638  0AD7               	incf	___ftadd@exp1,f
  3379  0639                     l5033:	
  3380  0639  0857               	movf	___ftadd@exp1,w
  3381  063A  0656               	xorwf	___ftadd@exp2,w
  3382  063B  1903               	btfsc	3,2
  3383  063C  2E5A               	goto	l3322
  3384  063D  2E34               	goto	l5031
  3385  063E                     l5035:	
  3386  063E  0857               	movf	___ftadd@exp1,w
  3387  063F  0256               	subwf	___ftadd@exp2,w
  3388  0640  1803               	skipnc
  3389  0641  2E5A               	goto	l3322
  3390  0642                     l5037:	
  3391  0642  1003               	clrc
  3392  0643  0DCC               	rlf	___ftadd@f1,f
  3393  0644  0DCD               	rlf	___ftadd@f1+1,f
  3394  0645  0DCE               	rlf	___ftadd@f1+2,f
  3395  0646  03D7               	decf	___ftadd@exp1,f
  3396  0647  0856               	movf	___ftadd@exp2,w
  3397  0648  0657               	xorwf	___ftadd@exp1,w
  3398  0649  1903               	skipnz
  3399  064A  2E56               	goto	l5045
  3400  064B  03D5               	decf	___ftadd@sign,f
  3401  064C  0855               	movf	___ftadd@sign,w
  3402  064D  3907               	andlw	7
  3403  064E  1903               	btfsc	3,2
  3404  064F  2E56               	goto	l5045
  3405  0650  2E42               	goto	l5037
  3406  0651                     l5043:	
  3407  0651  1003               	clrc
  3408  0652  0CD1               	rrf	___ftadd@f2+2,f
  3409  0653  0CD0               	rrf	___ftadd@f2+1,f
  3410  0654  0CCF               	rrf	___ftadd@f2,f
  3411  0655  0AD6               	incf	___ftadd@exp2,f
  3412  0656                     l5045:	
  3413  0656  0857               	movf	___ftadd@exp1,w
  3414  0657  0656               	xorwf	___ftadd@exp2,w
  3415  0658  1D03               	skipz
  3416  0659  2E51               	goto	l5043
  3417  065A                     l3322:	
  3418  065A  1FD5               	btfss	___ftadd@sign,7
  3419  065B  2E65               	goto	l5051
  3420  065C  30FF               	movlw	255
  3421  065D  06CC               	xorwf	___ftadd@f1,f
  3422  065E  06CD               	xorwf	___ftadd@f1+1,f
  3423  065F  06CE               	xorwf	___ftadd@f1+2,f
  3424  0660  0ACC               	incf	___ftadd@f1,f
  3425  0661  1903               	skipnz
  3426  0662  0ACD               	incf	___ftadd@f1+1,f
  3427  0663  1903               	skipnz
  3428  0664  0ACE               	incf	___ftadd@f1+2,f
  3429  0665                     l5051:	
  3430  0665  1F55               	btfss	___ftadd@sign,6
  3431  0666  2E70               	goto	l5057
  3432  0667  30FF               	movlw	255
  3433  0668  06CF               	xorwf	___ftadd@f2,f
  3434  0669  06D0               	xorwf	___ftadd@f2+1,f
  3435  066A  06D1               	xorwf	___ftadd@f2+2,f
  3436  066B  0ACF               	incf	___ftadd@f2,f
  3437  066C  1903               	skipnz
  3438  066D  0AD0               	incf	___ftadd@f2+1,f
  3439  066E  1903               	skipnz
  3440  066F  0AD1               	incf	___ftadd@f2+2,f
  3441  0670                     l5057:	
  3442  0670  01D5               	clrf	___ftadd@sign
  3443  0671  084C               	movf	___ftadd@f1,w
  3444  0672  07CF               	addwf	___ftadd@f2,f
  3445  0673  084D               	movf	___ftadd@f1+1,w
  3446  0674  1103               	clrz
  3447  0675  1803               	skipnc
  3448  0676  0A4D               	incf	___ftadd@f1+1,w
  3449  0677  1D03               	btfss	3,2
  3450  0678  07D0               	addwf	___ftadd@f2+1,f
  3451  0679  084E               	movf	___ftadd@f1+2,w
  3452  067A  1103               	clrz
  3453  067B  1803               	skipnc
  3454  067C  0A4E               	incf	___ftadd@f1+2,w
  3455  067D  1D03               	btfss	3,2
  3456  067E  07D1               	addwf	___ftadd@f2+2,f
  3457  067F  1FD1               	btfss	___ftadd@f2+2,7
  3458  0680  2E8C               	goto	l5069
  3459  0681  30FF               	movlw	255
  3460  0682  06CF               	xorwf	___ftadd@f2,f
  3461  0683  06D0               	xorwf	___ftadd@f2+1,f
  3462  0684  06D1               	xorwf	___ftadd@f2+2,f
  3463  0685  0ACF               	incf	___ftadd@f2,f
  3464  0686  1903               	skipnz
  3465  0687  0AD0               	incf	___ftadd@f2+1,f
  3466  0688  1903               	skipnz
  3467  0689  0AD1               	incf	___ftadd@f2+2,f
  3468  068A  01D5               	clrf	___ftadd@sign
  3469  068B  0AD5               	incf	___ftadd@sign,f
  3470  068C                     l5069:	
  3471  068C  084F               	movf	___ftadd@f2,w
  3472  068D  00A8               	movwf	?___ftpack
  3473  068E  0850               	movf	___ftadd@f2+1,w
  3474  068F  00A9               	movwf	?___ftpack+1
  3475  0690  0851               	movf	___ftadd@f2+2,w
  3476  0691  00AA               	movwf	?___ftpack+2
  3477  0692  0857               	movf	___ftadd@exp1,w
  3478  0693  00AB               	movwf	?___ftpack+3
  3479  0694  0855               	movf	___ftadd@sign,w
  3480  0695  00AC               	movwf	?___ftpack+4
  3481  0696  269E               	fcall	___ftpack
  3482  0697  0828               	movf	?___ftpack,w
  3483  0698  00CC               	movwf	?___ftadd
  3484  0699  0829               	movf	?___ftpack+1,w
  3485  069A  00CD               	movwf	?___ftadd+1
  3486  069B  082A               	movf	?___ftpack+2,w
  3487  069C  00CE               	movwf	?___ftadd+2
  3488  069D  0008               	return
  3489  069E                     __end_of___ftadd:	
  3490  069E                     __ptext476:	
  3491 ;; =============== function ___fttol ends ============
  3492                           
  3493                           
  3494 ;; *************** function ___ftpack *****************
  3495 ;; Defined at:
  3496 ;;		line 63 in file "C:\Program Files (x86)\HI-TECH Software\PICC\9.83\sources\float.c"
  3497 ;; Parameters:    Size  Location     Type
  3498 ;;  arg             3    8[BANK0 ] unsigned um
  3499 ;;  exp             1   11[BANK0 ] unsigned char 
  3500 ;;  sign            1   12[BANK0 ] unsigned char 
  3501 ;; Auto vars:     Size  Location     Type
  3502 ;;		None
  3503 ;; Return value:  Size  Location     Type
  3504 ;;                  3    8[BANK0 ] float 
  3505 ;; Registers used:
  3506 ;;		wreg, status,2, status,0
  3507 ;; Tracked objects:
  3508 ;;		On entry : 60/0
  3509 ;;		On exit  : 60/0
  3510 ;;		Unchanged: FFF9F/0
  3511 ;; Data sizes:     COMMON   BANK0   BANK1   BANK3   BANK2
  3512 ;;      Params:         0       5       0       0       0
  3513 ;;      Locals:         0       0       0       0       0
  3514 ;;      Temps:          0       3       0       0       0
  3515 ;;      Totals:         0       8       0       0       0
  3516 ;;Total ram usage:        8 bytes
  3517 ;; Hardware stack levels used:    1
  3518 ;; Hardware stack levels required when called:    3
  3519 ;; This function calls:
  3520 ;;		Nothing
  3521 ;; This function is called by:
  3522 ;;		___ftadd
  3523 ;;		___ftmul
  3524 ;;		___lbtoft
  3525 ;; This function uses a non-reentrant model
  3526 ;;
  3527  069E                     ___ftpack:	
  3528                           
  3529                           ; Regs used in ___ftpack: [wreg+status,2+status,0]
  3530  069E  082B               	movf	___ftpack@exp,w
  3531  069F  1903               	btfsc	3,2
  3532  06A0  2EA6               	goto	l4769
  3533  06A1  082A               	movf	___ftpack@arg+2,w
  3534  06A2  0429               	iorwf	___ftpack@arg+1,w
  3535  06A3  0428               	iorwf	___ftpack@arg,w
  3536  06A4  1D03               	skipz
  3537  06A5  2EAF               	goto	l4775
  3538  06A6                     l4769:	
  3539  06A6  01A8               	clrf	?___ftpack
  3540  06A7  01A9               	clrf	?___ftpack+1
  3541  06A8  01AA               	clrf	?___ftpack+2
  3542  06A9  0008               	return
  3543  06AA                     l4773:	
  3544  06AA  0AAB               	incf	___ftpack@exp,f
  3545  06AB  1003               	clrc
  3546  06AC  0CAA               	rrf	___ftpack@arg+2,f
  3547  06AD  0CA9               	rrf	___ftpack@arg+1,f
  3548  06AE  0CA8               	rrf	___ftpack@arg,f
  3549  06AF                     l4775:	
  3550  06AF  30FE               	movlw	254
  3551  06B0  052A               	andwf	___ftpack@arg+2,w
  3552  06B1  1903               	btfsc	3,2
  3553  06B2  2EBE               	goto	l4779
  3554  06B3  2EAA               	goto	l4773
  3555  06B4                     l4777:	
  3556  06B4  0AAB               	incf	___ftpack@exp,f
  3557  06B5  0AA8               	incf	___ftpack@arg,f
  3558  06B6  1903               	skipnz
  3559  06B7  0AA9               	incf	___ftpack@arg+1,f
  3560  06B8  1903               	skipnz
  3561  06B9  0AAA               	incf	___ftpack@arg+2,f
  3562  06BA  1003               	clrc
  3563  06BB  0CAA               	rrf	___ftpack@arg+2,f
  3564  06BC  0CA9               	rrf	___ftpack@arg+1,f
  3565  06BD  0CA8               	rrf	___ftpack@arg,f
  3566  06BE                     l4779:	
  3567  06BE  30FF               	movlw	255
  3568  06BF  052A               	andwf	___ftpack@arg+2,w
  3569  06C0  1903               	btfsc	3,2
  3570  06C1  2EC8               	goto	l4783
  3571  06C2  2EB4               	goto	l4777
  3572  06C3                     l4781:	
  3573  06C3  03AB               	decf	___ftpack@exp,f
  3574  06C4  1003               	clrc
  3575  06C5  0DA8               	rlf	___ftpack@arg,f
  3576  06C6  0DA9               	rlf	___ftpack@arg+1,f
  3577  06C7  0DAA               	rlf	___ftpack@arg+2,f
  3578  06C8                     l4783:	
  3579  06C8  1FA9               	btfss	___ftpack@arg+1,7
  3580  06C9  2EC3               	goto	l4781
  3581  06CA  1C2B               	btfss	___ftpack@exp,0
  3582  06CB  13A9               	bcf	___ftpack@arg+1,7
  3583  06CC  1003               	clrc
  3584  06CD  0CAB               	rrf	___ftpack@exp,f
  3585  06CE  082B               	movf	___ftpack@exp,w
  3586  06CF  00AF               	movwf	??___ftpack+2
  3587  06D0  01AE               	clrf	??___ftpack+1
  3588  06D1  01AD               	clrf	??___ftpack
  3589  06D2  082D               	movf	??___ftpack,w
  3590  06D3  04A8               	iorwf	___ftpack@arg,f
  3591  06D4  082E               	movf	??___ftpack+1,w
  3592  06D5  04A9               	iorwf	___ftpack@arg+1,f
  3593  06D6  082F               	movf	??___ftpack+2,w
  3594  06D7  04AA               	iorwf	___ftpack@arg+2,f
  3595  06D8  082C               	movf	___ftpack@sign,w
  3596  06D9  1D03               	skipz
  3597  06DA  17AA               	bsf	___ftpack@arg+2,7
  3598  06DB  0008               	return
  3599  06DC                     __end_of___ftpack:	
  3600  06DC                     PL2:	
  3601  06DC  07C7               	addwf	___ftmul@f3_as_product,f
  3602  06DD  0841               	movf	___ftmul@f2+1,w
  3603  06DE  1103               	clrz
  3604  06DF  1803               	skipnc
  3605  06E0  0A41               	incf	___ftmul@f2+1,w
  3606  06E1  1D03               	btfss	3,2
  3607  06E2  07C8               	addwf	___ftmul@f3_as_product+1,f
  3608  06E3  0842               	movf	___ftmul@f2+2,w
  3609  06E4  1103               	clrz
  3610  06E5  0008               	return
  3611                           
  3612                           	psect	text474
  3613  07E5                     __ptext474:	
  3614 ;; =============== function _lcd_put_byte ends ============
  3615                           
  3616                           
  3617 ;; *************** function _send_string *****************
  3618 ;; Defined at:
  3619 ;;		line 78 in file "D:\TTVXL\Project TTVXL\BT Ôn Thi 04\BT Ôn Thi 04.c"
  3620 ;; Parameters:    Size  Location     Type
  3621 ;;  s               1    wreg     PTR const unsigned char 
  3622 ;;		 -> main@data_tx(10), 
  3623 ;; Auto vars:     Size  Location     Type
  3624 ;;  s               1    9[BANK0 ] PTR const unsigned char 
  3625 ;;		 -> main@data_tx(10), 
  3626 ;; Return value:  Size  Location     Type
  3627 ;;		None               void
  3628 ;; Registers used:
  3629 ;;		wreg, fsr0l, fsr0h, status,2, status,0, pclath, cstack
  3630 ;; Tracked objects:
  3631 ;;		On entry : 160/0
  3632 ;;		On exit  : 160/0
  3633 ;;		Unchanged: FFE9F/0
  3634 ;; Data sizes:     COMMON   BANK0   BANK1   BANK3   BANK2
  3635 ;;      Params:         0       0       0       0       0
  3636 ;;      Locals:         0       1       0       0       0
  3637 ;;      Temps:          0       0       0       0       0
  3638 ;;      Totals:         0       1       0       0       0
  3639 ;;Total ram usage:        1 bytes
  3640 ;; Hardware stack levels used:    1
  3641 ;; Hardware stack levels required when called:    4
  3642 ;; This function calls:
  3643 ;;		_send_char
  3644 ;; This function is called by:
  3645 ;;		_main
  3646 ;; This function uses a non-reentrant model
  3647 ;;
  3648  07E5                     _send_string:	
  3649                           
  3650                           ; Regs used in _send_string: [wreg-fsr0h+status,2+status,0+pclath+cstack]
  3651                           ;send_string@s stored from wreg
  3652  07E5  00A9               	movwf	send_string@s
  3653  07E6                     l4943:	
  3654                           ;BT Ôn Thi 04.c: 79: while(*s) {send_char(*s++);}
  3655                           
  3656  07E6  0829               	movf	send_string@s,w
  3657  07E7  0084               	movwf	4
  3658  07E8  0880               	movf	0,f
  3659  07E9  1903               	btfsc	3,2
  3660  07EA  0008               	return
  3661  07EB  0829               	movf	send_string@s,w
  3662  07EC  0084               	movwf	4
  3663  07ED  0800               	movf	0,w
  3664  07EE  27F3  120A  118A   	fcall	_send_char
  3665  07F1  0AA9               	incf	send_string@s,f
  3666  07F2  2FE6               	goto	l4943
  3667  07F3                     __end_of_send_string:	
  3668  07F3                     __ptext482:	
  3669 ;; =============== function _isprint ends ============
  3670                           
  3671                           
  3672 ;; *************** function _send_char *****************
  3673 ;; Defined at:
  3674 ;;		line 74 in file "D:\TTVXL\Project TTVXL\BT Ôn Thi 04\BT Ôn Thi 04.c"
  3675 ;; Parameters:    Size  Location     Type
  3676 ;;  data            1    wreg     unsigned char 
  3677 ;; Auto vars:     Size  Location     Type
  3678 ;;  data            1    8[BANK0 ] unsigned char 
  3679 ;; Return value:  Size  Location     Type
  3680 ;;		None               void
  3681 ;; Registers used:
  3682 ;;		wreg
  3683 ;; Tracked objects:
  3684 ;;		On entry : 160/0
  3685 ;;		On exit  : 160/0
  3686 ;;		Unchanged: FFE9F/0
  3687 ;; Data sizes:     COMMON   BANK0   BANK1   BANK3   BANK2
  3688 ;;      Params:         0       0       0       0       0
  3689 ;;      Locals:         0       1       0       0       0
  3690 ;;      Temps:          0       0       0       0       0
  3691 ;;      Totals:         0       1       0       0       0
  3692 ;;Total ram usage:        1 bytes
  3693 ;; Hardware stack levels used:    1
  3694 ;; Hardware stack levels required when called:    3
  3695 ;; This function calls:
  3696 ;;		Nothing
  3697 ;; This function is called by:
  3698 ;;		_send_string
  3699 ;; This function uses a non-reentrant model
  3700 ;;
  3701  07F3                     _send_char:	
  3702                           
  3703                           ; Regs used in _send_char: [wreg]
  3704                           ;send_char@data stored from wreg
  3705  07F3  00A8               	movwf	send_char@data
  3706  07F4                     l1074:	
  3707                           ;BT Ôn Thi 04.c: 75: while (TXIF==0){}
  3708                           
  3709  07F4  1E0C               	btfss	12,4
  3710  07F5  2FF4               	goto	l1074
  3711                           
  3712                           ;BT Ôn Thi 04.c: 76: TXREG = data;
  3713  07F6  0828               	movf	send_char@data,w
  3714  07F7  0099               	movwf	25	;volatile
  3715  07F8  0008               	return
  3716  07F9                     __end_of_send_char:	
  3717                           
  3718                           	psect	text475
  3719  076E                     __ptext475:	
  3720 ;; =============== function _send_string ends ============
  3721                           
  3722                           
  3723 ;; *************** function ___fttol *****************
  3724 ;; Defined at:
  3725 ;;		line 45 in file "C:\Program Files (x86)\HI-TECH Software\PICC\9.83\sources\fttol.c"
  3726 ;; Parameters:    Size  Location     Type
  3727 ;;  f1              3   16[BANK0 ] float 
  3728 ;; Auto vars:     Size  Location     Type
  3729 ;;  lval            4   24[BANK0 ] unsigned long 
  3730 ;;  exp1            1   28[BANK0 ] unsigned char 
  3731 ;;  sign1           1   23[BANK0 ] unsigned char 
  3732 ;; Return value:  Size  Location     Type
  3733 ;;                  4   16[BANK0 ] long 
  3734 ;; Registers used:
  3735 ;;		wreg, status,2, status,0
  3736 ;; Tracked objects:
  3737 ;;		On entry : 60/0
  3738 ;;		On exit  : 60/0
  3739 ;;		Unchanged: FFF9F/0
  3740 ;; Data sizes:     COMMON   BANK0   BANK1   BANK3   BANK2
  3741 ;;      Params:         0       4       0       0       0
  3742 ;;      Locals:         0       6       0       0       0
  3743 ;;      Temps:          0       3       0       0       0
  3744 ;;      Totals:         0      13       0       0       0
  3745 ;;Total ram usage:       13 bytes
  3746 ;; Hardware stack levels used:    1
  3747 ;; Hardware stack levels required when called:    3
  3748 ;; This function calls:
  3749 ;;		Nothing
  3750 ;; This function is called by:
  3751 ;;		_main
  3752 ;; This function uses a non-reentrant model
  3753 ;;
  3754  076E                     ___fttol:	
  3755                           
  3756                           ; Regs used in ___fttol: [wreg+status,2+status,0]
  3757  076E  27C9  120A  118A   	fcall	PL3	;call to abstracted procedure
  3758  0771  1003               	clrc
  3759  0772  0D35               	rlf	??___fttol+1,w
  3760  0773  0D36               	rlf	??___fttol+2,w
  3761  0774  00BC               	movwf	___fttol@exp1
  3762  0775  08BC               	movf	___fttol@exp1,f
  3763  0776  1D03               	skipz
  3764  0777  2F7D               	goto	l4797
  3765  0778                     l4795:	
  3766  0778  01B0               	clrf	?___fttol
  3767  0779  01B1               	clrf	?___fttol+1
  3768  077A  01B2               	clrf	?___fttol+2
  3769  077B  01B3               	clrf	?___fttol+3
  3770  077C  0008               	return
  3771  077D                     l4797:	
  3772  077D  27C9  120A  118A   	fcall	PL3	;call to abstracted procedure
  3773  0780  3017               	movlw	23
  3774  0781                     u1925:	
  3775  0781  1003               	clrc
  3776  0782  0CB6               	rrf	??___fttol+2,f
  3777  0783  0CB5               	rrf	??___fttol+1,f
  3778  0784  0CB4               	rrf	??___fttol,f
  3779  0785  3EFF               	addlw	-1
  3780  0786  1D03               	skipz
  3781  0787  2F81               	goto	u1925
  3782  0788  0834               	movf	??___fttol,w
  3783  0789  00B7               	movwf	___fttol@sign1
  3784  078A  17B1               	bsf	___fttol@f1+1,7
  3785  078B  01B2               	clrf	___fttol@f1+2
  3786  078C  0830               	movf	___fttol@f1,w
  3787  078D  00B8               	movwf	___fttol@lval
  3788  078E  0831               	movf	___fttol@f1+1,w
  3789  078F  00B9               	movwf	___fttol@lval+1
  3790  0790  0832               	movf	___fttol@f1+2,w
  3791  0791  00BA               	movwf	___fttol@lval+2
  3792  0792  308E               	movlw	142
  3793  0793  01BB               	clrf	___fttol@lval+3
  3794  0794  02BC               	subwf	___fttol@exp1,f
  3795  0795  1FBC               	btfss	___fttol@exp1,7
  3796  0796  2FA4               	goto	l4817
  3797  0797  083C               	movf	___fttol@exp1,w
  3798  0798  3A80               	xorlw	128
  3799  0799  3E8F               	addlw	143
  3800  079A  1C03               	btfss	3,0
  3801  079B  2F78               	goto	l4795
  3802  079C                     l4813:	
  3803  079C  1003               	clrc
  3804  079D  0CBB               	rrf	___fttol@lval+3,f
  3805  079E  0CBA               	rrf	___fttol@lval+2,f
  3806  079F  0CB9               	rrf	___fttol@lval+1,f
  3807  07A0  0CB8               	rrf	___fttol@lval,f
  3808  07A1  0FBC               	incfsz	___fttol@exp1,f
  3809  07A2  2F9C               	goto	l4813
  3810  07A3  2FB2               	goto	l4823
  3811  07A4                     l4817:	
  3812  07A4  3018               	movlw	24
  3813  07A5  023C               	subwf	___fttol@exp1,w
  3814  07A6  1803               	btfsc	3,0
  3815  07A7  2F78               	goto	l4795
  3816  07A8                     l3378:	
  3817  07A8  08BC               	movf	___fttol@exp1,f
  3818  07A9  1903               	btfsc	3,2
  3819  07AA  2FB2               	goto	l4823
  3820  07AB  1003               	clrc
  3821  07AC  0DB8               	rlf	___fttol@lval,f
  3822  07AD  0DB9               	rlf	___fttol@lval+1,f
  3823  07AE  0DBA               	rlf	___fttol@lval+2,f
  3824  07AF  0DBB               	rlf	___fttol@lval+3,f
  3825  07B0  03BC               	decf	___fttol@exp1,f
  3826  07B1  2FA8               	goto	l3378
  3827  07B2                     l4823:	
  3828  07B2  0837               	movf	___fttol@sign1,w
  3829  07B3  1903               	btfsc	3,2
  3830  07B4  2FC0               	goto	l4827
  3831  07B5  09B8               	comf	___fttol@lval,f
  3832  07B6  09B9               	comf	___fttol@lval+1,f
  3833  07B7  09BA               	comf	___fttol@lval+2,f
  3834  07B8  09BB               	comf	___fttol@lval+3,f
  3835  07B9  0AB8               	incf	___fttol@lval,f
  3836  07BA  1903               	skipnz
  3837  07BB  0AB9               	incf	___fttol@lval+1,f
  3838  07BC  1903               	skipnz
  3839  07BD  0ABA               	incf	___fttol@lval+2,f
  3840  07BE  1903               	skipnz
  3841  07BF  0ABB               	incf	___fttol@lval+3,f
  3842  07C0                     l4827:	
  3843  07C0  083B               	movf	___fttol@lval+3,w
  3844  07C1  00B3               	movwf	?___fttol+3
  3845  07C2  083A               	movf	___fttol@lval+2,w
  3846  07C3  00B2               	movwf	?___fttol+2
  3847  07C4  0839               	movf	___fttol@lval+1,w
  3848  07C5  00B1               	movwf	?___fttol+1
  3849  07C6  0838               	movf	___fttol@lval,w
  3850  07C7  00B0               	movwf	?___fttol
  3851  07C8  0008               	return
  3852  07C9                     __end_of___fttol:	
  3853  07C9                     PL3:	
  3854  07C9  0830               	movf	___fttol@f1,w
  3855  07CA  00B4               	movwf	??___fttol
  3856  07CB  0831               	movf	___fttol@f1+1,w
  3857  07CC  00B5               	movwf	??___fttol+1
  3858  07CD  0832               	movf	___fttol@f1+2,w
  3859  07CE  00B6               	movwf	??___fttol+2
  3860  07CF  0008               	return
  3861                           
  3862                           	psect	text483
  3863  07D0                     __ptext483:	
  3864 ;; =============== function _send_char ends ============
  3865                           
  3866                           
  3867 ;; *************** function _rx *****************
  3868 ;; Defined at:
  3869 ;;		line 89 in file "D:\TTVXL\Project TTVXL\BT Ôn Thi 04\BT Ôn Thi 04.c"
  3870 ;; Parameters:    Size  Location     Type
  3871 ;;		None
  3872 ;; Auto vars:     Size  Location     Type
  3873 ;;		None
  3874 ;; Return value:  Size  Location     Type
  3875 ;;		None               void
  3876 ;; Registers used:
  3877 ;;		wreg
  3878 ;; Tracked objects:
  3879 ;;		On entry : 60/0
  3880 ;;		On exit  : 60/0
  3881 ;;		Unchanged: FFF9F/0
  3882 ;; Data sizes:     COMMON   BANK0   BANK1   BANK3   BANK2
  3883 ;;      Params:         0       0       0       0       0
  3884 ;;      Locals:         0       0       0       0       0
  3885 ;;      Temps:          0       0       0       0       0
  3886 ;;      Totals:         0       0       0       0       0
  3887 ;;Total ram usage:        0 bytes
  3888 ;; Hardware stack levels used:    1
  3889 ;; Hardware stack levels required when called:    3
  3890 ;; This function calls:
  3891 ;;		Nothing
  3892 ;; This function is called by:
  3893 ;;		_main
  3894 ;; This function uses a non-reentrant model
  3895 ;;
  3896  07D0                     _rx:	
  3897                           
  3898                           ;BT Ôn Thi 04.c: 90: SYNC = 0; BRGH = 1; BRG16 = 1;
  3899                           
  3900                           ; Regs used in _rx: [wreg]
  3901  07D0  1683               	bsf	3,5	;RP0=1, select bank1
  3902  07D1  1218               	bcf	24,4
  3903  07D2  1518               	bsf	24,2
  3904  07D3  1703               	bsf	3,6	;RP1=1, select bank3
  3905  07D4  3002               	movlw	2
  3906  07D5  1587               	bsf	7,3
  3907                           
  3908                           ;BT Ôn Thi 04.c: 91: SPBRGH = 0x02;
  3909  07D6  1303               	bcf	3,6	;RP1=0, select bank1
  3910  07D7  009A               	movwf	26	;volatile
  3911                           
  3912                           ;BT Ôn Thi 04.c: 92: SPBRG = 0x08;
  3913  07D8  3008               	movlw	8
  3914  07D9  0099               	movwf	25	;volatile
  3915                           
  3916                           ;BT Ôn Thi 04.c: 93: CREN = 1; RX9 = 0; SPEN = 1;
  3917  07DA  1283               	bcf	3,5	;RP0=0, select bank0
  3918  07DB  1618               	bsf	24,4
  3919  07DC  1318               	bcf	24,6
  3920  07DD  1798               	bsf	24,7
  3921                           
  3922                           ;BT Ôn Thi 04.c: 94: RCIE=1; RCIF=0; PEIE=1; GIE=1;
  3923  07DE  1683               	bsf	3,5	;RP0=1, select bank1
  3924  07DF  168C               	bsf	12,5
  3925  07E0  1283               	bcf	3,5	;RP0=0, select bank0
  3926  07E1  128C               	bcf	12,5
  3927  07E2  170B               	bsf	11,6
  3928  07E3  178B               	bsf	11,7
  3929  07E4  0008               	return
  3930  07E5                     __end_of_rx:	
  3931                           
  3932                           	psect	text484
  3933  0050                     __ptext484:	
  3934 ;; =============== function _rx ends ============
  3935                           
  3936                           
  3937 ;; *************** function _tx *****************
  3938 ;; Defined at:
  3939 ;;		line 82 in file "D:\TTVXL\Project TTVXL\BT Ôn Thi 04\BT Ôn Thi 04.c"
  3940 ;; Parameters:    Size  Location     Type
  3941 ;;		None
  3942 ;; Auto vars:     Size  Location     Type
  3943 ;;		None
  3944 ;; Return value:  Size  Location     Type
  3945 ;;		None               void
  3946 ;; Registers used:
  3947 ;;		wreg
  3948 ;; Tracked objects:
  3949 ;;		On entry : 60/20
  3950 ;;		On exit  : 60/0
  3951 ;;		Unchanged: FFF9F/0
  3952 ;; Data sizes:     COMMON   BANK0   BANK1   BANK3   BANK2
  3953 ;;      Params:         0       0       0       0       0
  3954 ;;      Locals:         0       0       0       0       0
  3955 ;;      Temps:          0       0       0       0       0
  3956 ;;      Totals:         0       0       0       0       0
  3957 ;;Total ram usage:        0 bytes
  3958 ;; Hardware stack levels used:    1
  3959 ;; Hardware stack levels required when called:    3
  3960 ;; This function calls:
  3961 ;;		Nothing
  3962 ;; This function is called by:
  3963 ;;		_main
  3964 ;; This function uses a non-reentrant model
  3965 ;;
  3966  0050                     _tx:	
  3967                           
  3968                           ;BT Ôn Thi 04.c: 83: SYNC = 0; BRGH = 1; BRG16 = 1;
  3969                           
  3970                           ; Regs used in _tx: [wreg]
  3971  0050  1218               	bcf	24,4
  3972  0051  1518               	bsf	24,2
  3973  0052  1703               	bsf	3,6	;RP1=1, select bank3
  3974  0053  3002               	movlw	2
  3975  0054  1587               	bsf	7,3
  3976                           
  3977                           ;BT Ôn Thi 04.c: 84: SPBRGH = 0x02;
  3978  0055  1303               	bcf	3,6	;RP1=0, select bank1
  3979  0056  009A               	movwf	26	;volatile
  3980                           
  3981                           ;BT Ôn Thi 04.c: 85: SPBRG = 0x08;
  3982  0057  3008               	movlw	8
  3983  0058  0099               	movwf	25	;volatile
  3984                           
  3985                           ;BT Ôn Thi 04.c: 86: TXEN = 1; TX9 = 0; SPEN = 1;
  3986  0059  1698               	bsf	24,5
  3987  005A  1318               	bcf	24,6
  3988  005B  1283               	bcf	3,5	;RP0=0, select bank0
  3989  005C  1798               	bsf	24,7
  3990  005D  0008               	return
  3991  005E                     __end_of_tx:	
  3992                           
  3993                           	psect	text485
  3994  0EE5                     __ptext485:	
  3995 ;; =============== function _tx ends ============
  3996                           
  3997                           
  3998 ;; *************** function _ngat *****************
  3999 ;; Defined at:
  4000 ;;		line 65 in file "D:\TTVXL\Project TTVXL\BT Ôn Thi 04\BT Ôn Thi 04.c"
  4001 ;; Parameters:    Size  Location     Type
  4002 ;;		None
  4003 ;; Auto vars:     Size  Location     Type
  4004 ;;		None
  4005 ;; Return value:  Size  Location     Type
  4006 ;;		None               void
  4007 ;; Registers used:
  4008 ;;		wreg, status,2, status,0, pclath, cstack
  4009 ;; Tracked objects:
  4010 ;;		On entry : 0/0
  4011 ;;		On exit  : 60/0
  4012 ;;		Unchanged: FFF9F/0
  4013 ;; Data sizes:     COMMON   BANK0   BANK1   BANK3   BANK2
  4014 ;;      Params:         0       0       0       0       0
  4015 ;;      Locals:         0       0       0       0       0
  4016 ;;      Temps:          0       2       0       0       0
  4017 ;;      Totals:         0       2       0       0       0
  4018 ;;Total ram usage:        2 bytes
  4019 ;; Hardware stack levels used:    1
  4020 ;; Hardware stack levels required when called:    2
  4021 ;; This function calls:
  4022 ;;		i1___ftadd
  4023 ;; This function is called by:
  4024 ;;		Interrupt level 1
  4025 ;; This function uses a non-reentrant model
  4026 ;;
  4027  0EE5                     _ngat:	
  4028                           
  4029                           ;BT Ôn Thi 04.c: 66: if(T0IF)
  4030  0EE5  1D0B               	btfss	11,2
  4031  0EE6  2EF9               	goto	i1l4671
  4032                           
  4033                           ;BT Ôn Thi 04.c: 67: {
  4034                           ;BT Ôn Thi 04.c: 68: dem++;
  4035  0EE7  3080               	movlw	128
  4036  0EE8  01F8               	clrf	?i1___ftadd
  4037  0EE9  00F9               	movwf	?i1___ftadd+1
  4038  0EEA  303F               	movlw	63
  4039  0EEB  00FA               	movwf	?i1___ftadd+2
  4040  0EEC  0862               	movf	_dem,w
  4041  0EED  00FB               	movwf	?i1___ftadd+3
  4042  0EEE  0863               	movf	_dem+1,w
  4043  0EEF  00FC               	movwf	?i1___ftadd+4
  4044  0EF0  0864               	movf	_dem+2,w
  4045  0EF1  00FD               	movwf	?i1___ftadd+5
  4046  0EF2  2702               	fcall	i1___ftadd
  4047  0EF3  0878               	movf	?i1___ftadd,w
  4048  0EF4  00E2               	movwf	_dem
  4049  0EF5  0879               	movf	?i1___ftadd+1,w
  4050  0EF6  00E3               	movwf	_dem+1
  4051  0EF7  087A               	movf	?i1___ftadd+2,w
  4052  0EF8  00E4               	movwf	_dem+2
  4053  0EF9                     i1l4671:	
  4054                           
  4055                           ;BT Ôn Thi 04.c: 69: }
  4056                           ;BT Ôn Thi 04.c: 70: TMR0 = 0;
  4057  0EF9  0181               	clrf	1	;volatile
  4058                           
  4059                           ;BT Ôn Thi 04.c: 71: T0IF = 0;
  4060  0EFA  110B               	bcf	11,2
  4061  0EFB  0827               	movf	??_ngat+1,w
  4062  0EFC  008A               	movwf	10
  4063  0EFD  0E26               	swapf	??_ngat^0,w
  4064  0EFE  0083               	movwf	3
  4065  0EFF  0EFE               	swapf	126,f
  4066  0F00  0E7E               	swapf	126,w
  4067  0F01  0009               	retfie
  4068  0F02                     __end_of_ngat:	
  4069  0F02                     __ptext486:	
  4070 ;; =============== function _ngat ends ============
  4071                           
  4072                           
  4073 ;; *************** function i1___ftadd *****************
  4074 ;; Defined at:
  4075 ;;		line 87 in file "C:\Program Files (x86)\HI-TECH Software\PICC\9.83\sources\ftadd.c"
  4076 ;; Parameters:    Size  Location     Type
  4077 ;;  __ftadd         3    8[COMMON] float 
  4078 ;;  __ftadd         3   11[COMMON] float 
  4079 ;; Auto vars:     Size  Location     Type
  4080 ;;  __ftadd         1    5[BANK0 ] unsigned char 
  4081 ;;  __ftadd         1    4[BANK0 ] unsigned char 
  4082 ;;  __ftadd         1    3[BANK0 ] unsigned char 
  4083 ;; Return value:  Size  Location     Type
  4084 ;;                  3    8[COMMON] float 
  4085 ;; Registers used:
  4086 ;;		wreg, status,2, status,0, pclath, cstack
  4087 ;; Tracked objects:
  4088 ;;		On entry : 60/0
  4089 ;;		On exit  : 60/0
  4090 ;;		Unchanged: FFF9F/0
  4091 ;; Data sizes:     COMMON   BANK0   BANK1   BANK3   BANK2
  4092 ;;      Params:         6       0       0       0       0
  4093 ;;      Locals:         0       3       0       0       0
  4094 ;;      Temps:          0       3       0       0       0
  4095 ;;      Totals:         6       6       0       0       0
  4096 ;;Total ram usage:       12 bytes
  4097 ;; Hardware stack levels used:    1
  4098 ;; Hardware stack levels required when called:    1
  4099 ;; This function calls:
  4100 ;;		i1___ftpack
  4101 ;; This function is called by:
  4102 ;;		_ngat
  4103 ;; This function uses a non-reentrant model
  4104 ;;
  4105  0F02                     i1___ftadd:	
  4106                           
  4107 ;; hardware stack exceeded
  4108                           ; Regs used in i1___ftadd: [wreg+status,2+status,0+pclath+cstack]
  4109  0F02  0878               	movf	i1___ftadd@f1,w
  4110  0F03  00A0               	movwf	??i1___ftadd
  4111  0F04  0879               	movf	i1___ftadd@f1+1,w
  4112  0F05  00A1               	movwf	??i1___ftadd+1
  4113  0F06  087A               	movf	i1___ftadd@f1+2,w
  4114  0F07  00A2               	movwf	??i1___ftadd+2
  4115  0F08  1003               	clrc
  4116  0F09  0D21               	rlf	??i1___ftadd+1,w
  4117  0F0A  0D22               	rlf	??i1___ftadd+2,w
  4118  0F0B  00A5               	movwf	i1___ftadd@exp1
  4119  0F0C  087B               	movf	i1___ftadd@f2,w
  4120  0F0D  00A0               	movwf	??i1___ftadd
  4121  0F0E  087C               	movf	i1___ftadd@f2+1,w
  4122  0F0F  00A1               	movwf	??i1___ftadd+1
  4123  0F10  087D               	movf	i1___ftadd@f2+2,w
  4124  0F11  00A2               	movwf	??i1___ftadd+2
  4125  0F12  1003               	clrc
  4126  0F13  0D21               	rlf	??i1___ftadd+1,w
  4127  0F14  0D22               	rlf	??i1___ftadd+2,w
  4128  0F15  00A4               	movwf	i1___ftadd@exp2
  4129  0F16  0825               	movf	i1___ftadd@exp1,w
  4130  0F17  1903               	btfsc	3,2
  4131  0F18  2F25               	goto	i1l4839
  4132  0F19  0824               	movf	i1___ftadd@exp2,w
  4133  0F1A  0225               	subwf	i1___ftadd@exp1,w
  4134  0F1B  0824               	movf	i1___ftadd@exp2,w
  4135  0F1C  1803               	skipnc
  4136  0F1D  2F2D               	goto	L7
  4137  0F1E  00A0               	movwf	??i1___ftadd
  4138  0F1F  0825               	movf	i1___ftadd@exp1,w
  4139  0F20  02A0               	subwf	??i1___ftadd,f
  4140  0F21  3019               	movlw	25
  4141  0F22  0220               	subwf	??i1___ftadd,w
  4142  0F23  1C03               	skipc
  4143  0F24  2F2C               	goto	i1l4843
  4144  0F25                     i1l4839:	
  4145  0F25  087B               	movf	i1___ftadd@f2,w
  4146  0F26  00F8               	movwf	?i1___ftadd
  4147  0F27  087C               	movf	i1___ftadd@f2+1,w
  4148  0F28  00F9               	movwf	?i1___ftadd+1
  4149  0F29  087D               	movf	i1___ftadd@f2+2,w
  4150  0F2A  00FA               	movwf	?i1___ftadd+2
  4151  0F2B  0008               	return
  4152  0F2C                     i1l4843:	
  4153  0F2C  0824               	movf	i1___ftadd@exp2,w
  4154  0F2D                     L7:	
  4155  0F2D  1903               	btfsc	3,2
  4156  0F2E  0008               	return
  4157  0F2F  0825               	movf	i1___ftadd@exp1,w
  4158  0F30  0224               	subwf	i1___ftadd@exp2,w
  4159  0F31  1803               	skipnc
  4160  0F32  2F3B               	goto	i1l4849
  4161  0F33  0825               	movf	i1___ftadd@exp1,w
  4162  0F34  00A0               	movwf	??i1___ftadd
  4163  0F35  0824               	movf	i1___ftadd@exp2,w
  4164  0F36  02A0               	subwf	??i1___ftadd,f
  4165  0F37  3019               	movlw	25
  4166  0F38  0220               	subwf	??i1___ftadd,w
  4167  0F39  1803               	btfsc	3,0
  4168  0F3A  0008               	return
  4169  0F3B                     i1l4849:	
  4170  0F3B  3006               	movlw	6
  4171  0F3C  00A3               	movwf	i1___ftadd@sign
  4172  0F3D  1BFA               	btfsc	i1___ftadd@f1+2,7
  4173  0F3E  17A3               	bsf	i1___ftadd@sign,7
  4174  0F3F  1BFD               	btfsc	i1___ftadd@f2+2,7
  4175  0F40  1723               	bsf	i1___ftadd@sign,6
  4176  0F41  17F9               	bsf	i1___ftadd@f1+1,7
  4177  0F42  01FA               	clrf	i1___ftadd@f1+2
  4178  0F43  17FC               	bsf	i1___ftadd@f2+1,7
  4179  0F44  01FD               	clrf	i1___ftadd@f2+2
  4180  0F45  0824               	movf	i1___ftadd@exp2,w
  4181  0F46  0225               	subwf	i1___ftadd@exp1,w
  4182  0F47  1803               	skipnc
  4183  0F48  2F62               	goto	i1l4871
  4184  0F49                     i1l4861:	
  4185  0F49  1003               	clrc
  4186  0F4A  0DFB               	rlf	i1___ftadd@f2,f
  4187  0F4B  0DFC               	rlf	i1___ftadd@f2+1,f
  4188  0F4C  0DFD               	rlf	i1___ftadd@f2+2,f
  4189  0F4D  03A4               	decf	i1___ftadd@exp2,f
  4190  0F4E  0824               	movf	i1___ftadd@exp2,w
  4191  0F4F  0625               	xorwf	i1___ftadd@exp1,w
  4192  0F50  1903               	skipnz
  4193  0F51  2F5D               	goto	i1l4869
  4194  0F52  03A3               	decf	i1___ftadd@sign,f
  4195  0F53  0823               	movf	i1___ftadd@sign,w
  4196  0F54  3907               	andlw	7
  4197  0F55  1903               	btfsc	3,2
  4198  0F56  2F5D               	goto	i1l4869
  4199  0F57  2F49               	goto	i1l4861
  4200  0F58                     i1l4867:	
  4201  0F58  1003               	clrc
  4202  0F59  0CFA               	rrf	i1___ftadd@f1+2,f
  4203  0F5A  0CF9               	rrf	i1___ftadd@f1+1,f
  4204  0F5B  0CF8               	rrf	i1___ftadd@f1,f
  4205  0F5C  0AA5               	incf	i1___ftadd@exp1,f
  4206  0F5D                     i1l4869:	
  4207  0F5D  0825               	movf	i1___ftadd@exp1,w
  4208  0F5E  0624               	xorwf	i1___ftadd@exp2,w
  4209  0F5F  1903               	btfsc	3,2
  4210  0F60  2F7E               	goto	i1l3322
  4211  0F61  2F58               	goto	i1l4867
  4212  0F62                     i1l4871:	
  4213  0F62  0825               	movf	i1___ftadd@exp1,w
  4214  0F63  0224               	subwf	i1___ftadd@exp2,w
  4215  0F64  1803               	skipnc
  4216  0F65  2F7E               	goto	i1l3322
  4217  0F66                     i1l4873:	
  4218  0F66  1003               	clrc
  4219  0F67  0DF8               	rlf	i1___ftadd@f1,f
  4220  0F68  0DF9               	rlf	i1___ftadd@f1+1,f
  4221  0F69  0DFA               	rlf	i1___ftadd@f1+2,f
  4222  0F6A  03A5               	decf	i1___ftadd@exp1,f
  4223  0F6B  0824               	movf	i1___ftadd@exp2,w
  4224  0F6C  0625               	xorwf	i1___ftadd@exp1,w
  4225  0F6D  1903               	skipnz
  4226  0F6E  2F7A               	goto	i1l4881
  4227  0F6F  03A3               	decf	i1___ftadd@sign,f
  4228  0F70  0823               	movf	i1___ftadd@sign,w
  4229  0F71  3907               	andlw	7
  4230  0F72  1903               	btfsc	3,2
  4231  0F73  2F7A               	goto	i1l4881
  4232  0F74  2F66               	goto	i1l4873
  4233  0F75                     i1l4879:	
  4234  0F75  1003               	clrc
  4235  0F76  0CFD               	rrf	i1___ftadd@f2+2,f
  4236  0F77  0CFC               	rrf	i1___ftadd@f2+1,f
  4237  0F78  0CFB               	rrf	i1___ftadd@f2,f
  4238  0F79  0AA4               	incf	i1___ftadd@exp2,f
  4239  0F7A                     i1l4881:	
  4240  0F7A  0825               	movf	i1___ftadd@exp1,w
  4241  0F7B  0624               	xorwf	i1___ftadd@exp2,w
  4242  0F7C  1D03               	skipz
  4243  0F7D  2F75               	goto	i1l4879
  4244  0F7E                     i1l3322:	
  4245  0F7E  1FA3               	btfss	i1___ftadd@sign,7
  4246  0F7F  2F89               	goto	i1l4887
  4247  0F80  30FF               	movlw	255
  4248  0F81  06F8               	xorwf	i1___ftadd@f1,f
  4249  0F82  06F9               	xorwf	i1___ftadd@f1+1,f
  4250  0F83  06FA               	xorwf	i1___ftadd@f1+2,f
  4251  0F84  0AF8               	incf	i1___ftadd@f1,f
  4252  0F85  1903               	skipnz
  4253  0F86  0AF9               	incf	i1___ftadd@f1+1,f
  4254  0F87  1903               	skipnz
  4255  0F88  0AFA               	incf	i1___ftadd@f1+2,f
  4256  0F89                     i1l4887:	
  4257  0F89  1F23               	btfss	i1___ftadd@sign,6
  4258  0F8A  2F94               	goto	i1l4893
  4259  0F8B  30FF               	movlw	255
  4260  0F8C  06FB               	xorwf	i1___ftadd@f2,f
  4261  0F8D  06FC               	xorwf	i1___ftadd@f2+1,f
  4262  0F8E  06FD               	xorwf	i1___ftadd@f2+2,f
  4263  0F8F  0AFB               	incf	i1___ftadd@f2,f
  4264  0F90  1903               	skipnz
  4265  0F91  0AFC               	incf	i1___ftadd@f2+1,f
  4266  0F92  1903               	skipnz
  4267  0F93  0AFD               	incf	i1___ftadd@f2+2,f
  4268  0F94                     i1l4893:	
  4269  0F94  01A3               	clrf	i1___ftadd@sign
  4270  0F95  0878               	movf	i1___ftadd@f1,w
  4271  0F96  07FB               	addwf	i1___ftadd@f2,f
  4272  0F97  0879               	movf	i1___ftadd@f1+1,w
  4273  0F98  1103               	clrz
  4274  0F99  1803               	skipnc
  4275  0F9A  0A79               	incf	i1___ftadd@f1+1,w
  4276  0F9B  1D03               	btfss	3,2
  4277  0F9C  07FC               	addwf	i1___ftadd@f2+1,f
  4278  0F9D  087A               	movf	i1___ftadd@f1+2,w
  4279  0F9E  1103               	clrz
  4280  0F9F  1803               	skipnc
  4281  0FA0  0A7A               	incf	i1___ftadd@f1+2,w
  4282  0FA1  1D03               	btfss	3,2
  4283  0FA2  07FD               	addwf	i1___ftadd@f2+2,f
  4284  0FA3  1FFD               	btfss	i1___ftadd@f2+2,7
  4285  0FA4  2FB0               	goto	i1l4905
  4286  0FA5  30FF               	movlw	255
  4287  0FA6  06FB               	xorwf	i1___ftadd@f2,f
  4288  0FA7  06FC               	xorwf	i1___ftadd@f2+1,f
  4289  0FA8  06FD               	xorwf	i1___ftadd@f2+2,f
  4290  0FA9  0AFB               	incf	i1___ftadd@f2,f
  4291  0FAA  1903               	skipnz
  4292  0FAB  0AFC               	incf	i1___ftadd@f2+1,f
  4293  0FAC  1903               	skipnz
  4294  0FAD  0AFD               	incf	i1___ftadd@f2+2,f
  4295  0FAE  01A3               	clrf	i1___ftadd@sign
  4296  0FAF  0AA3               	incf	i1___ftadd@sign,f
  4297  0FB0                     i1l4905:	
  4298  0FB0  087B               	movf	i1___ftadd@f2,w
  4299  0FB1  00F0               	movwf	?i1___ftpack
  4300  0FB2  087C               	movf	i1___ftadd@f2+1,w
  4301  0FB3  00F1               	movwf	?i1___ftpack+1
  4302  0FB4  087D               	movf	i1___ftadd@f2+2,w
  4303  0FB5  00F2               	movwf	?i1___ftpack+2
  4304  0FB6  0825               	movf	i1___ftadd@exp1,w
  4305  0FB7  00F3               	movwf	?i1___ftpack+3
  4306  0FB8  0823               	movf	i1___ftadd@sign,w
  4307  0FB9  00F4               	movwf	?i1___ftpack+4
  4308  0FBA  27C2               	fcall	i1___ftpack
  4309  0FBB  0870               	movf	?i1___ftpack,w
  4310  0FBC  00F8               	movwf	?i1___ftadd
  4311  0FBD  0871               	movf	?i1___ftpack+1,w
  4312  0FBE  00F9               	movwf	?i1___ftadd+1
  4313  0FBF  0872               	movf	?i1___ftpack+2,w
  4314  0FC0  00FA               	movwf	?i1___ftadd+2
  4315  0FC1  0008               	return
  4316  0FC2                     __end_ofi1___ftadd:	
  4317  0FC2                     __ptext487:	
  4318 ;; =============== function i1___ftadd ends ============
  4319                           
  4320                           
  4321 ;; *************** function i1___ftpack *****************
  4322 ;; Defined at:
  4323 ;;		line 63 in file "C:\Program Files (x86)\HI-TECH Software\PICC\9.83\sources\float.c"
  4324 ;; Parameters:    Size  Location     Type
  4325 ;;  __ftpack        3    0[COMMON] unsigned um
  4326 ;;  __ftpack        1    3[COMMON] unsigned char 
  4327 ;;  __ftpack        1    4[COMMON] unsigned char 
  4328 ;; Auto vars:     Size  Location     Type
  4329 ;;		None
  4330 ;; Return value:  Size  Location     Type
  4331 ;;                  3    0[COMMON] float 
  4332 ;; Registers used:
  4333 ;;		wreg, status,2, status,0
  4334 ;; Tracked objects:
  4335 ;;		On entry : 60/0
  4336 ;;		On exit  : 60/0
  4337 ;;		Unchanged: FFF9F/0
  4338 ;; Data sizes:     COMMON   BANK0   BANK1   BANK3   BANK2
  4339 ;;      Params:         5       0       0       0       0
  4340 ;;      Locals:         0       0       0       0       0
  4341 ;;      Temps:          3       0       0       0       0
  4342 ;;      Totals:         8       0       0       0       0
  4343 ;;Total ram usage:        8 bytes
  4344 ;; Hardware stack levels used:    1
  4345 ;; This function calls:
  4346 ;;		Nothing
  4347 ;; This function is called by:
  4348 ;;		i1___ftadd
  4349 ;; This function uses a non-reentrant model
  4350 ;;
  4351  0FC2                     i1___ftpack:	
  4352                           
  4353 ;; hardware stack exceeded
  4354                           ; Regs used in i1___ftpack: [wreg+status,2+status,0]
  4355  0FC2  0873               	movf	i1___ftpack@exp,w
  4356  0FC3  1903               	btfsc	3,2
  4357  0FC4  2FCA               	goto	i1l4913
  4358  0FC5  0872               	movf	i1___ftpack@arg+2,w
  4359  0FC6  0471               	iorwf	i1___ftpack@arg+1,w
  4360  0FC7  0470               	iorwf	i1___ftpack@arg,w
  4361  0FC8  1D03               	skipz
  4362  0FC9  2FD3               	goto	i1l4919
  4363  0FCA                     i1l4913:	
  4364  0FCA  01F0               	clrf	?i1___ftpack
  4365  0FCB  01F1               	clrf	?i1___ftpack+1
  4366  0FCC  01F2               	clrf	?i1___ftpack+2
  4367  0FCD  0008               	return
  4368  0FCE                     i1l4917:	
  4369  0FCE  0AF3               	incf	i1___ftpack@exp,f
  4370  0FCF  1003               	clrc
  4371  0FD0  0CF2               	rrf	i1___ftpack@arg+2,f
  4372  0FD1  0CF1               	rrf	i1___ftpack@arg+1,f
  4373  0FD2  0CF0               	rrf	i1___ftpack@arg,f
  4374  0FD3                     i1l4919:	
  4375  0FD3  30FE               	movlw	254
  4376  0FD4  0572               	andwf	i1___ftpack@arg+2,w
  4377  0FD5  1903               	btfsc	3,2
  4378  0FD6  2FE2               	goto	i1l4923
  4379  0FD7  2FCE               	goto	i1l4917
  4380  0FD8                     i1l4921:	
  4381  0FD8  0AF3               	incf	i1___ftpack@exp,f
  4382  0FD9  0AF0               	incf	i1___ftpack@arg,f
  4383  0FDA  1903               	skipnz
  4384  0FDB  0AF1               	incf	i1___ftpack@arg+1,f
  4385  0FDC  1903               	skipnz
  4386  0FDD  0AF2               	incf	i1___ftpack@arg+2,f
  4387  0FDE  1003               	clrc
  4388  0FDF  0CF2               	rrf	i1___ftpack@arg+2,f
  4389  0FE0  0CF1               	rrf	i1___ftpack@arg+1,f
  4390  0FE1  0CF0               	rrf	i1___ftpack@arg,f
  4391  0FE2                     i1l4923:	
  4392  0FE2  30FF               	movlw	255
  4393  0FE3  0572               	andwf	i1___ftpack@arg+2,w
  4394  0FE4  1903               	btfsc	3,2
  4395  0FE5  2FEC               	goto	i1l4927
  4396  0FE6  2FD8               	goto	i1l4921
  4397  0FE7                     i1l4925:	
  4398  0FE7  03F3               	decf	i1___ftpack@exp,f
  4399  0FE8  1003               	clrc
  4400  0FE9  0DF0               	rlf	i1___ftpack@arg,f
  4401  0FEA  0DF1               	rlf	i1___ftpack@arg+1,f
  4402  0FEB  0DF2               	rlf	i1___ftpack@arg+2,f
  4403  0FEC                     i1l4927:	
  4404  0FEC  1FF1               	btfss	i1___ftpack@arg+1,7
  4405  0FED  2FE7               	goto	i1l4925
  4406  0FEE  1C73               	btfss	i1___ftpack@exp,0
  4407  0FEF  13F1               	bcf	i1___ftpack@arg+1,7
  4408  0FF0  1003               	clrc
  4409  0FF1  0CF3               	rrf	i1___ftpack@exp,f
  4410  0FF2  0873               	movf	i1___ftpack@exp,w
  4411  0FF3  00F7               	movwf	??i1___ftpack+2
  4412  0FF4  01F6               	clrf	??i1___ftpack+1
  4413  0FF5  01F5               	clrf	??i1___ftpack
  4414  0FF6  0875               	movf	??i1___ftpack,w
  4415  0FF7  04F0               	iorwf	i1___ftpack@arg,f
  4416  0FF8  0876               	movf	??i1___ftpack+1,w
  4417  0FF9  04F1               	iorwf	i1___ftpack@arg+1,f
  4418  0FFA  0877               	movf	??i1___ftpack+2,w
  4419  0FFB  04F2               	iorwf	i1___ftpack@arg+2,f
  4420  0FFC  0874               	movf	i1___ftpack@sign,w
  4421  0FFD  1D03               	skipz
  4422  0FFE  17F2               	bsf	i1___ftpack@arg+2,7
  4423  0FFF  0008               	return
  4424  1000                     __end_ofi1___ftpack:	
  4425                           
  4426 ;; =============== function i1___ftpack ends ============
  4427  0002                     
  4428                           	psect	intentry
  4429  0004                     __pintentry:	
  4430 ;; hardware stack exceeded
  4431                           ; Regs used in _ngat: [wreg+status,2+status,0+pclath+cstack]
  4432                           
  4433  0004                     interrupt_function:	
  4434  007E                     saved_w	set	btemp
  4435  0004  00FE               	movwf	btemp
  4436  0005  0E03               	swapf	3,w
  4437  0006  1283               	bcf	3,5	;RP0=0, select bank0
  4438  0007  1303               	bcf	3,6	;RP1=0, select bank0
  4439  0008  00A6               	movwf	??_ngat
  4440  0009  080A               	movf	10,w
  4441  000A  00A7               	movwf	??_ngat+1
  4442  000B  120A  158A  2EE5   	ljmp	_ngat
  4443                           
  4444                           	psect	functab
  4445  0100                     __pfunctab:	
  4446  0100                     fptable:	
  4447  0100  00FF               	movwf	(btemp+1)& (0+127)
  4448  0101  3001               	movlw	high fptable
  4449  0102  008A               	movwf	10
  4450  0103  087F               	movf	(btemp+1)& (0+127),w
  4451  0104  0782               	addwf	2,f
  4452  0105                     fpbase:	
  4453  0105  2905               	goto	fpbase	; Call via a null pointer and you will get stuck here.
  4454  0106                     fp__putch:	
  4455  0106  120A  118A  2B6D   	ljmp	_putch
  4456  007E                     btemp	set	126	;btemp
  4457  007E                     wtemp0	set	126


HI-TECH Software PICC Macro Assembler V9.83 build 10920 
Symbol Table                                                                                   Sun Dec 25 10:26:28 2022

                    pc 0002             i1___ftpack 0FC2                     _rx 07D0                     _tx 0050  
                   fsr 0004    ___wmul@multiplicand 002A           ___ftadd@exp1 0057           ___ftadd@exp2 0056  
        ?_lcd_put_byte 0028           ___ftadd@sign 0055                    ?_rx 0070                    ?_tx 0070  
         i1___ftadd@f1 0078           i1___ftadd@f2 007B                    _GIE 005F                    _RD1 0041  
                  _RD2 0042                    _RD3 0043                    _RD4 0044                    _RD5 0045  
                  _RD6 0046                    _RD7 0047                    _PSA 040B                    _RX9 00C6  
                  _TX9 04C6                    _dem 0062                    fsr0 0004                    indf 0000  
          main@data_tx 0058                   ??_rx 0028                   ??_tx 0028                   l2201 0159  
                 l1074 07F4                   l1083 0000                   l1067 0000                   l1077 0000  
                 l1086 0000                   l1089 0000                   l2145 0000                   l2156 0000  
                 l2148 0000                   l2246 0000                   l3231 0000                   l3322 065A  
                 l5003 0601                   l2179 0000                   l3236 0000                   l3252 0000  
                 l5021 0000                   l5013 0617                   l5101 0000                   l3245 0000  
                 l5031 0634                   l5023 0000                   l5015 0000                   l5007 0608  
                 l5111 0000                   l5103 05A2                   l3264 0000                   l5033 0639  
                 l5025 0625                   l5009 0000                   l5121 0000                   l5113 0000  
                 l5201 0000                   l3274 0000                   l5051 0665                   l5043 0651  
                 l5027 0000                   l5035 063E                   l5123 0000                   l5115 05B8  
                 l5107 05AC                   l5211 014B                   l5203 0000                   l3284 0000  
                 l5061 0000                   l5045 0656                   l5037 0642                   l5125 0000  
                 l5109 0000                   l5141 0000                   l5133 0000                   l5301 0000  
                 l5221 015B                   l5213 0000                   l5055 0000                   l5039 0000  
                 l5119 05C2                   l5143 0000                   l5135 0000                   l5311 02A1  
                 l5303 0280                   l5231 0000                   l5223 0166                   l5215 0155  
                 l5065 0000                   l5057 0670                   l5049 0000                   l5073 0000  
                 l5129 0000                   l5161 0458                   l5153 0440                   l5145 0428  
                 l5137 0000                   l5313 0000                   l5305 028A                   l5217 0000  
                 l3378 07A8                   l3386 0000                   l5067 0000                   l5059 0000  
                 l5091 0000                   l5139 0000                   l5171 0000                   l5323 02E6  
                 l5315 02AA                   l5243 0000                   l5331 02F5                   l5227 0174  
                 l5235 019F                   l5069 068C                   l5093 0000                   l5085 0591  
                 l5165 0464                   l5157 044C                   l5149 0434                   l5181 0380  
                 l5173 0000                   l5325 0000                   l5317 02AF                   l5245 01C9  
                 l5237 01B2                   l5229 0000                   l5341 0000                   l4711 0000  
                 l4703 0000                   l5095 0000                   l5087 0000                   l5079 0580  
                 l5175 0376                   l5191 039A                   l5183 0000                   l5319 0000  
                 l5327 02EF                   l5263 01F3                   l5255 0000                   l5239 0000  
                 l5335 0000                   l5351 0000                   l4641 0000                   l4713 0000  
                 l4705 0308                   l4721 0000                   l4801 0000                   l5097 0000  
                 l5089 0000                   l5169 0470                   l5177 0377                   l5185 0389  
                 l5281 0237                   l5257 01E7                   l5249 01CB                   l5329 0126  
                 l5337 0000                   l5353 0000                   l5345 0000                   l5361 0000  
                 l4643 0000                   l4651 0000                   l4731 0000                   l4803 0000  
                 l5099 0000                   l5179 0000                   l5195 03A6                   l5187 038F  
                 l5291 0259                   l5267 0211                   l5339 0000                   l5347 0000  
                 l5371 0000                   l5363 0000                   l4645 0000                   l4661 0000  
                 l4653 0000                   l4709 0310                   l4741 0344                   l4813 079C  
                 l4805 0000                   l5189 0396                   l5277 022E                   l5293 0260  
                 l5269 0215                   l5349 0000                   l5381 0000                   l5373 0000  
                 l5365 0000                   l5357 0000                   l4647 0000                   l4639 0000  
                 l4663 0000                   l4655 0000                   l4735 0000                   l4719 0000  
                 l4823 07B2                   l4815 0000                   l4807 0000                   l5199 03AD  
                 l5295 0264                   l5287 0250                   l5279 0000                   l5391 0000  
                 l5383 0000                   l5375 0000                   l5367 0000                   l5359 0000  
                 l4665 0000                   l4657 0000                   l4649 0000                   l4681 0000  
                 l4729 032D                   l4753 0355                   l4761 0368                   l4745 0000  
                 l4825 0000                   l4817 07A4                   l5289 0000                   l5393 0000  
                 l5385 0706                   l5377 0000                   l5369 0000                   l4659 0000  
                 l4675 0000                   l4691 0000                   l4739 0000                   l4827 07C0  
                 l5299 0277                   l5395 0000                   l5387 0000                   l5379 0000  
                 l4693 0000                   l4781 06C3                   l4773 06AA                   l4765 0000  
                 l4941 0000                   l5397 0000                   l5389 0000                   l4687 0559  
                 l4679 0000                   l4759 0000                   l4791 0000                   l4783 06C8  
                 l4775 06AF                   l4767 0000                   l4943 07E6                   l4777 06B4  
                 l4769 06A6                   l4793 0000                   l4937 0000                   l4961 04AE  
                 l4953 0000                   l4945 0000                   l4699 0304                   l4787 0000  
                 l4779 06BE                   l4795 0778                   l4971 04E7                   l4963 04BE  
                 l4955 0000                   l4947 0000                   l4789 0000                   l4797 077D  
                 l4973 04F4                   l4965 0000                   l4957 0000                   l4949 0000  
                 l4981 0000                   l4799 0000                   l4975 0503                   l4967 0000  
                 l4959 049F                   l4991 0000                   l4983 0000                   l4977 0000  
                 l4969 0000                   l4985 0000                   l4979 0000                   l4987 0000  
                 l4995 0000                   l4989 0000                   l4997 0000                   l4999 0000  
                 STR_1 0021                   STR_2 0041                   STR_3 0032                   _BRGH 04C2  
                 _T0IE 005D                   _T0IF 005A                   _CREN 00C4                   _T0CS 040D  
                 _T0SE 040C                   u2300 04AB                   u2400 0500                   u2320 04BB  
                 u3107 03EE                   u2420 0510                   u2340 04C9                   u3117 0403  
                 u3207 04CE                   u3127 0412                   u2360 04E4                   u2280 049C  
                 u3217 04D5                   u3137 0421                   u2434 0513                   u2354 04CC  
                 u3227 0515                   u3147 052D                   u2380 04F1                   u3237 051C  
                 u3157 0534                   u3167 053F                   u3087 03C8                   u1920 0000  
                 u1825 035B                   u3177 0546                   u3097 03DB                   u3187 0484  
                 u1925 0781                   u3197 048B                   u1785 0336                   _PEIE 005E  
                 u2935 0202                   _RCIE 0465                   _RCIF 0065                   u2895 01E0  
                 _TMR0 0001                   _SPEN 00C7                   _TXEN 04C5                   _TXIF 0064  
                 _SYNC 04C4                   _main 06E6                   _ngat 0EE5           ___ftpack@arg 0028  
         ___ftpack@exp 002B           lcd_busy@busy 0029                   btemp 007E                   start 000E  
         ___ftmul@cntr 004A           ___ftmul@sign 004B           ___fttol@exp1 003C           ___fttol@lval 0038  
       ??_lcd_put_byte 0029                  ?_main 0070                  ?_ngat 0070        __end_of___ftadd 069E  
                _BRG16 0C3B                  _ANSEL 0188        __end_of___ftmul 05DE        __end_of___fttol 07C9  
      __end_of___lwdiv 0349        __end_of___lwmod 036D                  _SPBRG 0099         i1___ftadd@exp1 0025  
       i1___ftadd@exp2 0024        __end_of__doprnt 02F8                  _TRISD 0088                  _TXREG 0019  
       i1___ftadd@sign 0023        __end_of_isdigit 0306          ___ftpack@sign 002C                  _putch 036D  
                fpbase 0105        __end_of_isprint 055B                  pclath 000A                  status 0003  
                wtemp0 007E        __end_of_sprintf 0125     __size_ofi1___ftadd 00C0         i1___ftpack@arg 0070  
       i1___ftpack@exp 0073           __end_of_main 076E           __end_of_ngat 0F02            ?i1___ftpack 0070  
        lcd_gotoxy@col 002E          lcd_gotoxy@row 002D                 ??_main 0058          ___fttol@sign1 0037  
               ??_ngat 0026                 ?_putch 0031       __end_of___ftpack 06DC                 _ANSELH 0189  
     __end_of___lbtoft 056F                 i1l1071 0000                 i1l3322 0F7E                 i1l4901 0000  
               i1l4911 0000                 i1l4903 0000                 i1l4831 0000                 i1l4671 0EF9  
               i1l4921 0FD8                 i1l4913 0FCA                 i1l4905 0FB0                 i1l4833 0000  
               i1l4673 0000                 i1l4931 0000                 i1l4923 0FE2                 i1l4851 0000  
               i1l4843 0F2C                 i1l4835 0000                 i1l4667 0000                 i1l4933 0000  
               i1l4925 0FE7                 i1l4917 0FCE                 i1l4909 0000                 i1l4861 0F49  
               i1l4845 0000                 i1l4935 0000                 i1l4927 0FEC                 i1l4919 0FD3  
               i1l4863 0000                 i1l4871 0F62                 i1l4839 0F25                 i1l4881 0F7A  
               i1l4873 0F66                 i1l4857 0000                 i1l4849 0F3B                 i1l4891 0000  
               i1l4875 0000                 i1l4867 0F58                 i1l4859 0000                 i1l4893 0F94  
               i1l4885 0000                 i1l4869 0F5D                 i1l4895 0000                 i1l4887 0F89  
               i1l4879 0F75                 i1l4897 0000           ?_send_string 0070                 _SPBRGH 009A  
               _TRISA4 042C                 _TRISD1 0441                 _TRISE0 0448                 _TRISD2 0442  
               _TRISD3 0443                 _TRISD4 0444                 _TRISD5 0445                 _TRISD6 0446  
               _TRISD7 0447       __end_of_lcd_busy 054D       __end_of_lcd_init 0477       __end_of_lcd_putc 03B6  
               ___wmul 0306              ??___ftadd 0052              ??___ftmul 0043              ??___fttol 0034  
            ??___lwdiv 002C              ??___lwmod 0033                 _count1 0065              ??__doprnt 0036  
         __doprnt@_val 003A           __doprnt@flag 003E                 _printf 0109           __doprnt@prec 0039  
        lcd_put_byte@b 0028  ___ftmul@f3_as_product 0047      __end_ofi1___ftadd 0FC2                 fptable 0100  
               fptotal 0002              ??_isdigit 0028                 saved_w 007E              ??_isprint 0028  
               putch@c 0031              ??_sprintf 0046    __size_ofi1___ftpack 003E   __end_of_lcd_put_byte 0522  
           ___ftadd@f1 004C             ___ftadd@f2 004F        i1___ftpack@sign 0074             ___lbtoft@c 0040  
           ___ftmul@f1 003D             ___ftmul@f2 0040             ___fttol@f1 0030         __pcstackCOMMON 0070  
        __end_of_putch 036F             __end_of_rx 07E5             __end_of_tx 005E      lcd_gotoxy@address 002F  
           __doprnt@ap 0035             __doprnt@pb 0042                ??_putch 0032             __pbssBANK0 0062  
           __pmaintext 06E6                ?___wmul 0028             __pintentry 0004     __size_of_send_char 0006  
            ?___ftpack 0028              ?___lbtoft 003D                ?_printf 0043             _lcd_gotoxy 036F  
            ?_lcd_busy 0070              ?_lcd_init 0070              ?_lcd_putc 0070   __size_of_send_string 000E  
         ??i1___ftpack 0075                ___ftadd 05DE        __size_of___wmul 0019                ___ftmul 056F  
              ___fttol 076E                ___lwdiv 031F                ___lwmod 0349                __doprnt 0125  
           ??___ftpack 002D             ??___lbtoft 0040        __size_of_printf 000C                _dpowers 0017  
              _isdigit 02F8                _isprint 054D  __size_of_lcd_put_byte 00AB                _sprintf 0115  
        __doprnt@width 003F             ??_lcd_busy 0028             ??_lcd_init 002D             ??_lcd_putc 0030  
 end_of_initialization 0063         lcd_put_byte@rs 002B      __end_of_send_char 07F9     __end_ofi1___ftpack 1000  
              printf@f 0045          send_char@data 0028           _lcd_put_byte 0477            ?_lcd_gotoxy 002D  
            i1___ftadd 0F02            ___ftmul@exp 0046         __end_of___wmul 031F         __end_of_printf 0115  
  start_initialization 005E             ?i1___ftadd 0078    __size_of_lcd_gotoxy 0018               ??___wmul 002C  
             ??_printf 0045      __size_of___ftpack 003E      __size_of___lbtoft 000F          __pcstackBANK0 0020  
         _isdigit$3687 0028      __size_of_lcd_busy 002B      __size_of_lcd_init 00C1              __doprnt@c 0041  
            __doprnt@f 0034      __size_of_lcd_putc 002F       ___lwdiv@dividend 002A              __pfunctab 0100  
             ?___ftadd 004C              __ptext470 056F              __ptext462 0115              __ptext471 05DE  
            __ptext463 0109              __ptext480 02F8              __ptext472 0522              __ptext464 0125  
            __ptext481 054D              __ptext473 0477              __ptext465 036D              __ptext482 07F3  
            __ptext474 07E5              __ptext466 0387              __ptext483 07D0              __ptext475 076E  
            __ptext467 036F              __ptext484 0050              __ptext476 069E              __ptext468 03B6  
            __ptext485 0EE5              __ptext477 0349              __ptext469 0560              __ptext486 0F02  
            __ptext478 031F              __ptext487 0FC2              __ptext479 0306               ?___ftmul 003D  
             ?___fttol 0030               ?___lwdiv 0028               ?___lwmod 002F               ?__doprnt 0034  
            __pstrings 0011               ?_isdigit 0070               ?_isprint 0070            ??i1___ftadd 0020  
     ___lwdiv@quotient 002C               ?_sprintf 0043         __size_of_putch 0002          ??_send_string 0029  
          __size_of_rx 0015            __size_of_tx 000E      interrupt_function 0004         ___wmul@product 002C  
            _send_char 07F3            __stringbase 0016      ___wmul@multiplier 0028              lcd_putc@c 0030  
         ??_lcd_gotoxy 002E       lcd_put_byte@temp 002C           _isprint$3690 0028             ?_send_char 0070  
         send_string@s 0029    __end_of_send_string 07F3     __end_of_lcd_gotoxy 0387       __size_of___ftadd 00C0  
     __size_of___ftmul 006F       __size_of___fttol 005B       __size_of___lwdiv 002A       __size_of___lwmod 0024  
             ___ftpack 069E               ___lbtoft 0560       __size_of__doprnt 01D3       __size_of_isdigit 000E  
      ___lwdiv@divisor 0028        ___lwdiv@counter 002E       __size_of_isprint 000E               _lcd_busy 0522  
             _lcd_init 03B6               _lcd_putc 0387       __size_of_sprintf 0010          __size_of_main 0088  
        __size_of_ngat 001D               fp__putch 0106               isdigit@c 0029               intlevel1 0100  
            sprintf@ap 0047              sprintf@pb 0048              sprintf@wh 0046            _send_string 07E5  
     ___lwmod@dividend 0031               isprint@c 0029            ??_send_char 0028              stringcode 0011  
             printf@ap 0046               printf@pb 0047               sprintf@f 0043        ___lwmod@divisor 002F  
      ___lwmod@counter 0033               stringdir 0011               stringtab 0011  
