

HI-TECH Software PIC PRO Macro Assembler V9.83 build 10920 
                                                                                               Sun Dec 25 11:10:26 2022

HI-TECH Software Omniscient Code Generator (PRO mode) build 10920
     1                           	processor	16F887
     2                           	opt	pw 120
     3                           	opt	pm
     4                           	psect	config,global,class=CONFIG,delta=2
     5                           	psect	strings,global,class=STRING,delta=2
     6                           	psect	nvBANK0,global,class=BANK0,space=1,delta=1
     7                           	psect	cinit,global,class=CODE,delta=2
     8                           	psect	bssCOMMON,global,class=COMMON,space=1,delta=1
     9                           	psect	bssBANK0,global,class=BANK0,space=1,delta=1
    10                           	psect	cstackBANK1,global,class=BANK1,space=1,delta=1
    11                           	psect	cstackCOMMON,global,class=COMMON,space=1,delta=1
    12                           	psect	cstackBANK0,global,class=BANK0,space=1,delta=1
    13                           	psect	maintext,global,class=CODE,delta=2
    14                           	psect	text775,local,class=CODE,delta=2
    15                           	psect	text778,local,class=CODE,delta=2
    16                           	psect	text780,local,class=CODE,delta=2
    17                           	psect	text784,local,class=CODE,delta=2
    18                           	psect	text797,local,class=CODE,delta=2
    19                           	psect	text801,local,class=CODE,delta=2
    20                           	psect	text802,local,class=CODE,delta=2
    21                           	psect	text803,local,class=CODE,delta=2
    22                           	psect	intentry,global,class=CODE,delta=2
    23                           	psect	text804,local,class=CODE,delta=2
    24                           	psect	pa_nodes,global,class=CODE,delta=2
    25                           	dabs	1,0x7E,2
    26  000A                     	;#
    27                           
    28                           	psect	config
    29  2007  E3C2               	dw	58306	;#
    30                           
    31                           	psect	strings
    32  0800                     __pstrings:	
    33  0800                     stringtab:	
    34                           ;	global	stringdir,stringtab,__stringbase
    35                           
    36  0800                     stringcode:	
    37                           ;	String table - string pointers are 1 byte each
    38                           
    39  0800                     stringdir:	
    40  0800  3008               	movlw	high stringdir
    41  0801  008A               	movwf	10
    42  0802  0804               	movf	4,w
    43  0803  0A84               	incf	4,f
    44  0804  0782               	addwf	2,f
    45  0805                     __stringbase:	
    46  0805  3400               	retlw	0
    47  0806                     __npowers_:	
    48  0806  3400               	retlw	0
    49  0807  3480               	retlw	128
    50  0808  343F               	retlw	63
    51  0809  34CD               	retlw	205
    52  080A  34CC               	retlw	204
    53  080B  343D               	retlw	61
    54  080C  34D7               	retlw	215
    55  080D  3423               	retlw	35
    56  080E  343C               	retlw	60
    57  080F  3412               	retlw	18
    58  0810  3483               	retlw	131
    59  0811  343A               	retlw	58
    60  0812  34B7               	retlw	183
    61  0813  34D1               	retlw	209
    62  0814  3438               	retlw	56
    63  0815  34C6               	retlw	198
    64  0816  3427               	retlw	39
    65  0817  3437               	retlw	55
    66  0818  3438               	retlw	56
    67  0819  3486               	retlw	134
    68  081A  3435               	retlw	53
    69  081B  34C0               	retlw	192
    70  081C  34D6               	retlw	214
    71  081D  3433               	retlw	51
    72  081E  34CC               	retlw	204
    73  081F  342B               	retlw	43
    74  0820  3432               	retlw	50
    75  0821  3470               	retlw	112
    76  0822  3489               	retlw	137
    77  0823  3430               	retlw	48
    78  0824  34E7               	retlw	231
    79  0825  34DB               	retlw	219
    80  0826  342E               	retlw	46
    81  0827  34E5               	retlw	229
    82  0828  343C               	retlw	60
    83  0829  341E               	retlw	30
    84  082A  3442               	retlw	66
    85  082B  34A2               	retlw	162
    86  082C  340D               	retlw	13
    87  082D                     __powers_:	
    88  082D  3400               	retlw	0
    89  082E  3480               	retlw	128
    90  082F  343F               	retlw	63
    91  0830  3400               	retlw	0
    92  0831  3420               	retlw	32
    93  0832  3441               	retlw	65
    94  0833  3400               	retlw	0
    95  0834  34C8               	retlw	200
    96  0835  3442               	retlw	66
    97  0836  3400               	retlw	0
    98  0837  347A               	retlw	122
    99  0838  3444               	retlw	68
   100  0839  3440               	retlw	64
   101  083A  341C               	retlw	28
   102  083B  3446               	retlw	70
   103  083C  3450               	retlw	80
   104  083D  34C3               	retlw	195
   105  083E  3447               	retlw	71
   106  083F  3424               	retlw	36
   107  0840  3474               	retlw	116
   108  0841  3449               	retlw	73
   109  0842  3497               	retlw	151
   110  0843  3418               	retlw	24
   111  0844  344B               	retlw	75
   112  0845  34BC               	retlw	188
   113  0846  34BE               	retlw	190
   114  0847  344C               	retlw	76
   115  0848  346B               	retlw	107
   116  0849  346E               	retlw	110
   117  084A  344E               	retlw	78
   118  084B  3403               	retlw	3
   119  084C  3415               	retlw	21
   120  084D  3450               	retlw	80
   121  084E  3479               	retlw	121
   122  084F  34AD               	retlw	173
   123  0850  3460               	retlw	96
   124  0851  34F3               	retlw	243
   125  0852  3449               	retlw	73
   126  0853  3471               	retlw	113
   127  0854                     _dpowers:	
   128  0854  3401               	retlw	1
   129  0855  3400               	retlw	0
   130  0856  3400               	retlw	0
   131  0857  3400               	retlw	0
   132  0858  340A               	retlw	10
   133  0859  3400               	retlw	0
   134  085A  3400               	retlw	0
   135  085B  3400               	retlw	0
   136  085C  3464               	retlw	100
   137  085D  3400               	retlw	0
   138  085E  3400               	retlw	0
   139  085F  3400               	retlw	0
   140  0860  34E8               	retlw	232
   141  0861  3403               	retlw	3
   142  0862  3400               	retlw	0
   143  0863  3400               	retlw	0
   144  0864  3410               	retlw	16
   145  0865  3427               	retlw	39
   146  0866  3400               	retlw	0
   147  0867  3400               	retlw	0
   148  0868  34A0               	retlw	160
   149  0869  3486               	retlw	134
   150  086A  3401               	retlw	1
   151  086B  3400               	retlw	0
   152  086C  3440               	retlw	64
   153  086D  3442               	retlw	66
   154  086E  340F               	retlw	15
   155  086F  3400               	retlw	0
   156  0870  3480               	retlw	128
   157  0871  3496               	retlw	150
   158  0872  3498               	retlw	152
   159  0873  3400               	retlw	0
   160  0874  3400               	retlw	0
   161  0875  34E1               	retlw	225
   162  0876  34F5               	retlw	245
   163  0877  3405               	retlw	5
   164  0878  3400               	retlw	0
   165  0879  34CA               	retlw	202
   166  087A  349A               	retlw	154
   167  087B  343B               	retlw	59
   168  087C                     STR_1:	
   169  087C  3476               	retlw	118	;'v'
   170  087D  343A               	retlw	58	;':'
   171  087E  3425               	retlw	37	;'%'
   172  087F  3433               	retlw	51	;'3'
   173  0880  342E               	retlw	46	;'.'
   174  0881  3432               	retlw	50	;'2'
   175  0882  3466               	retlw	102	;'f'
   176  0883  3400               	retlw	0
   177                           
   178                           	psect	nvBANK0
   179  0063                     __pnvBANK0:	
   180  0063                     _v:	
   181  0063                     	ds	3
   182  000E                     _TMR1	set	14
   183  0001                     _TMR0	set	1
   184  0019                     _TXREG	set	25
   185  00C4                     _CREN	set	196
   186  005F                     _GIE	set	95
   187  005E                     _PEIE	set	94
   188  0065                     _RCIF	set	101
   189  0048                     _RE0	set	72
   190  00C6                     _RX9	set	198
   191  00C7                     _SPEN	set	199
   192  005D                     _T0IE	set	93
   193  005A                     _T0IF	set	90
   194  0084                     _T1CKPS0	set	132
   195  0085                     _T1CKPS1	set	133
   196  0082                     _T1SYNC	set	130
   197  0081                     _TMR1CS	set	129
   198  0086                     _TMR1GE	set	134
   199  0080                     _TMR1ON	set	128
   200  0064                     _TXIF	set	100
   201  0099                     _SPBRG	set	153
   202  009A                     _SPBRGH	set	154
   203  04C2                     _BRGH	set	1218
   204  0408                     _PS0	set	1032
   205  0409                     _PS1	set	1033
   206  040A                     _PS2	set	1034
   207  040B                     _PSA	set	1035
   208  0465                     _RCIE	set	1125
   209  04C4                     _SYNC	set	1220
   210  040D                     _T0CS	set	1037
   211  0448                     _TRISE0	set	1096
   212  04C6                     _TX9	set	1222
   213  04C5                     _TXEN	set	1221
   214  0188                     _ANSEL	set	392
   215  0189                     _ANSELH	set	393
   216  0C3B                     _BRG16	set	3131
   217                           
   218                           	psect	cinit
   219  0982                     start_initialization:	
   220                           
   221                           ; Clear objects allocated to COMMON
   222  0982  01FA               	clrf	__pbssCOMMON& (0+127)
   223  0983  01FB               	clrf	(__pbssCOMMON+1)& (0+127)
   224                           
   225                           ; Clear objects allocated to BANK0
   226  0984  01E6               	clrf	__pbssBANK0& (0+127)
   227  0985  01E7               	clrf	(__pbssBANK0+1)& (0+127)
   228  0986                     end_of_initialization:	
   229                           ;End of C runtime variable initialization code
   230                           
   231  0986  0183               	clrf	3
   232  0987  120A  158A  29AE   	ljmp	_main	;jump to C main() function
   233                           
   234                           	psect	bssCOMMON
   235  007A                     __pbssCOMMON:	
   236  007A                     _dem:	
   237  007A                     	ds	2
   238                           
   239                           	psect	bssBANK0
   240  0066                     __pbssBANK0:	
   241  0066                     _xung:	
   242  0066                     	ds	2
   243                           
   244                           	psect	cstackBANK1
   245  00A0                     __pcstackBANK1:	
   246  00A0                     _sprintf$1873:	
   247                           
   248                           ; 4 bytes @ 0x0
   249  00A0                     	ds	4
   250  00A4                     sprintf@ap:	
   251                           
   252                           ; 1 bytes @ 0x4
   253  00A4                     	ds	1
   254  00A5                     sprintf@integ:	
   255                           
   256                           ; 3 bytes @ 0x5
   257  00A5                     	ds	3
   258  00A8                     sprintf@_val:	
   259                           
   260                           ; 4 bytes @ 0x8
   261  00A8                     	ds	4
   262  00AC                     sprintf@flag:	
   263                           
   264                           ; 2 bytes @ 0xC
   265  00AC                     	ds	2
   266  00AE                     sprintf@width:	
   267                           
   268                           ; 2 bytes @ 0xE
   269  00AE                     	ds	2
   270  00B0                     sprintf@exp:	
   271                           
   272                           ; 2 bytes @ 0x10
   273  00B0                     	ds	2
   274  00B2                     sprintf@sp:	
   275                           
   276                           ; 1 bytes @ 0x12
   277  00B2                     	ds	1
   278  00B3                     sprintf@fval:	
   279                           
   280                           ; 3 bytes @ 0x13
   281  00B3                     	ds	3
   282  00B6                     sprintf@prec:	
   283                           
   284                           ; 2 bytes @ 0x16
   285  00B6                     	ds	2
   286  00B8                     sprintf@c:	
   287                           
   288                           ; 1 bytes @ 0x18
   289  00B8                     	ds	1
   290  00B9                     main@data_tx:	
   291                           
   292                           ; 10 bytes @ 0x19
   293  00B9                     	ds	10
   294                           
   295                           	psect	cstackCOMMON
   296  0070                     __pcstackCOMMON:	
   297  0070                     ?_tx:	
   298  0070                     ?_rx:	
   299                           ; 0 bytes @ 0x0
   300                           
   301  0070                     ?_send_string:	
   302                           ; 0 bytes @ 0x0
   303                           
   304  0070                     ?_isdigit:	
   305                           ; 0 bytes @ 0x0
   306                           
   307  0070                     ?_main:	
   308                           ; 1 bit 
   309                           
   310  0070                     ?_ngat:	
   311                           ; 0 bytes @ 0x0
   312                           
   313  0070                     ??_ngat:	
   314                           ; 0 bytes @ 0x0
   315                           
   316  0070                     ?_send_char:	
   317                           ; 0 bytes @ 0x0
   318                           
   319                           
   320                           ; 0 bytes @ 0x0
   321  0070                     	ds	2
   322  0072                     ??_tx:	
   323  0072                     ??_rx:	
   324                           ; 0 bytes @ 0x2
   325                           
   326  0072                     ??_isdigit:	
   327                           ; 0 bytes @ 0x2
   328                           
   329  0072                     ??_send_char:	
   330                           ; 0 bytes @ 0x2
   331                           
   332  0072                     ?___ftge:	
   333                           ; 0 bytes @ 0x2
   334                           
   335  0072                     ?___lbmod:	
   336                           ; 1 bit 
   337                           
   338  0072                     ?___wmul:	
   339                           ; 1 bytes @ 0x2
   340                           
   341  0072                     ?___awmod:	
   342                           ; 2 bytes @ 0x2
   343                           
   344  0072                     ?___ftpack:	
   345                           ; 2 bytes @ 0x2
   346                           
   347  0072                     ?___ftneg:	
   348                           ; 3 bytes @ 0x2
   349                           
   350  0072                     ?__tdiv_to_l_:	
   351                           ; 3 bytes @ 0x2
   352                           
   353  0072                     ?__div_to_l_:	
   354                           ; 4 bytes @ 0x2
   355                           
   356  0072                     ?___lldiv:	
   357                           ; 4 bytes @ 0x2
   358                           
   359  0072                     send_char@data:	
   360                           ; 4 bytes @ 0x2
   361                           
   362  0072                     _isdigit$2381:	
   363                           ; 1 bytes @ 0x2
   364                           
   365  0072                     ___lbmod@divisor:	
   366                           ; 1 bytes @ 0x2
   367                           
   368  0072                     ___wmul@multiplier:	
   369                           ; 1 bytes @ 0x2
   370                           
   371  0072                     ___awmod@divisor:	
   372                           ; 2 bytes @ 0x2
   373                           
   374  0072                     ___ftneg@f1:	
   375                           ; 2 bytes @ 0x2
   376                           
   377  0072                     ___ftge@ff1:	
   378                           ; 3 bytes @ 0x2
   379                           
   380  0072                     __tdiv_to_l_@f1:	
   381                           ; 3 bytes @ 0x2
   382                           
   383  0072                     __div_to_l_@f1:	
   384                           ; 3 bytes @ 0x2
   385                           
   386  0072                     ___ftpack@arg:	
   387                           ; 3 bytes @ 0x2
   388                           
   389  0072                     ___lldiv@divisor:	
   390                           ; 3 bytes @ 0x2
   391                           
   392                           
   393                           ; 4 bytes @ 0x2
   394  0072                     	ds	1
   395  0073                     ??_send_string:	
   396  0073                     ??___lbmod:	
   397                           ; 0 bytes @ 0x3
   398                           
   399  0073                     send_string@s:	
   400                           ; 0 bytes @ 0x3
   401                           
   402  0073                     isdigit@c:	
   403                           ; 1 bytes @ 0x3
   404                           
   405                           
   406                           ; 1 bytes @ 0x3
   407  0073                     	ds	1
   408  0074                     ___lbmod@dividend:	
   409  0074                     ___wmul@multiplicand:	
   410                           ; 1 bytes @ 0x4
   411                           
   412  0074                     ___awmod@dividend:	
   413                           ; 2 bytes @ 0x4
   414                           
   415                           
   416                           ; 2 bytes @ 0x4
   417  0074                     	ds	1
   418  0075                     ??___ftneg:	
   419  0075                     ___lbmod@counter:	
   420                           ; 0 bytes @ 0x5
   421                           
   422  0075                     ___ftpack@exp:	
   423                           ; 1 bytes @ 0x5
   424                           
   425  0075                     ___ftge@ff2:	
   426                           ; 1 bytes @ 0x5
   427                           
   428  0075                     __tdiv_to_l_@f2:	
   429                           ; 3 bytes @ 0x5
   430                           
   431  0075                     __div_to_l_@f2:	
   432                           ; 3 bytes @ 0x5
   433                           
   434                           
   435                           ; 3 bytes @ 0x5
   436  0075                     	ds	1
   437  0076                     ??___wmul:	
   438  0076                     ??___awmod:	
   439                           ; 0 bytes @ 0x6
   440                           
   441  0076                     ___lbmod@rem:	
   442                           ; 0 bytes @ 0x6
   443                           
   444  0076                     ___awmod@counter:	
   445                           ; 1 bytes @ 0x6
   446                           
   447  0076                     ___ftpack@sign:	
   448                           ; 1 bytes @ 0x6
   449                           
   450  0076                     ___wmul@product:	
   451                           ; 1 bytes @ 0x6
   452                           
   453  0076                     ___lldiv@dividend:	
   454                           ; 2 bytes @ 0x6
   455                           
   456                           
   457                           ; 4 bytes @ 0x6
   458  0076                     	ds	1
   459  0077                     ??___ftpack:	
   460  0077                     ?___lbdiv:	
   461                           ; 0 bytes @ 0x7
   462                           
   463  0077                     ___lbdiv@divisor:	
   464                           ; 1 bytes @ 0x7
   465                           
   466  0077                     ___awmod@sign:	
   467                           ; 1 bytes @ 0x7
   468                           
   469                           
   470                           ; 1 bytes @ 0x7
   471  0077                     	ds	1
   472  0078                     ??___lbdiv:	
   473  0078                     ??___awdiv:	
   474                           ; 0 bytes @ 0x8
   475                           
   476  0078                     ??___ftge:	
   477                           ; 0 bytes @ 0x8
   478                           
   479  0078                     ?___bmul:	
   480                           ; 0 bytes @ 0x8
   481                           
   482  0078                     ___bmul@multiplicand:	
   483                           ; 1 bytes @ 0x8
   484                           
   485                           
   486                           ; 1 bytes @ 0x8
   487  0078                     	ds	1
   488  0079                     ??___bmul:	
   489                           
   490                           ; 0 bytes @ 0x9
   491  0079                     	ds	1
   492  007A                     ??_main:	
   493  007A                     ??_fround:	
   494                           ; 0 bytes @ 0xA
   495                           
   496  007A                     ??___ftsub:	
   497                           ; 0 bytes @ 0xA
   498                           
   499  007A                     ??___awtoft:	
   500                           ; 0 bytes @ 0xA
   501                           
   502  007A                     ??___llmod:	
   503                           ; 0 bytes @ 0xA
   504                           
   505  007A                     ??___lldiv:	
   506                           ; 0 bytes @ 0xA
   507                           
   508  007A                     ??___lltoft:	
   509                           ; 0 bytes @ 0xA
   510                           
   511                           
   512                           	psect	cstackBANK0
   513  0020                     __pcstackBANK0:	
   514                           ; 0 bytes @ 0xA
   515                           
   516  0020                     ??__tdiv_to_l_:	
   517  0020                     ??__div_to_l_:	
   518                           ; 0 bytes @ 0x0
   519                           
   520  0020                     ?___awdiv:	
   521                           ; 0 bytes @ 0x0
   522                           
   523  0020                     ?___awtoft:	
   524                           ; 2 bytes @ 0x0
   525                           
   526  0020                     ?___lltoft:	
   527                           ; 3 bytes @ 0x0
   528                           
   529  0020                     ___lbdiv@dividend:	
   530                           ; 3 bytes @ 0x0
   531                           
   532  0020                     ___awtoft@c:	
   533                           ; 1 bytes @ 0x0
   534                           
   535  0020                     ___awdiv@divisor:	
   536                           ; 2 bytes @ 0x0
   537                           
   538  0020                     ___lldiv@quotient:	
   539                           ; 2 bytes @ 0x0
   540                           
   541  0020                     ___lltoft@c:	
   542                           ; 4 bytes @ 0x0
   543                           
   544                           
   545                           ; 4 bytes @ 0x0
   546  0020                     	ds	1
   547  0021                     ___lbdiv@counter:	
   548                           
   549                           ; 1 bytes @ 0x1
   550  0021                     	ds	1
   551  0022                     ___lbdiv@quotient:	
   552  0022                     ___awdiv@dividend:	
   553                           ; 1 bytes @ 0x2
   554                           
   555                           
   556                           ; 2 bytes @ 0x2
   557  0022                     	ds	1
   558  0023                     ___bmul@product:	
   559  0023                     ___awtoft@sign:	
   560                           ; 1 bytes @ 0x3
   561                           
   562  0023                     __tdiv_to_l_@quot:	
   563                           ; 1 bytes @ 0x3
   564                           
   565                           
   566                           ; 4 bytes @ 0x3
   567  0023                     	ds	1
   568  0024                     ?___ftdiv:	
   569  0024                     ___bmul@multiplier:	
   570                           ; 3 bytes @ 0x4
   571                           
   572  0024                     ___awdiv@counter:	
   573                           ; 1 bytes @ 0x4
   574                           
   575  0024                     ___lldiv@counter:	
   576                           ; 1 bytes @ 0x4
   577                           
   578  0024                     ___lltoft@exp:	
   579                           ; 1 bytes @ 0x4
   580                           
   581  0024                     ___ftdiv@f2:	
   582                           ; 1 bytes @ 0x4
   583                           
   584                           
   585                           ; 3 bytes @ 0x4
   586  0024                     	ds	1
   587  0025                     ?___llmod:	
   588  0025                     ___awdiv@sign:	
   589                           ; 4 bytes @ 0x5
   590                           
   591  0025                     ___llmod@divisor:	
   592                           ; 1 bytes @ 0x5
   593                           
   594                           
   595                           ; 4 bytes @ 0x5
   596  0025                     	ds	1
   597  0026                     ___awdiv@quotient:	
   598                           
   599                           ; 2 bytes @ 0x6
   600  0026                     	ds	1
   601  0027                     __tdiv_to_l_@cntr:	
   602  0027                     ___ftdiv@f1:	
   603                           ; 1 bytes @ 0x7
   604                           
   605                           
   606                           ; 3 bytes @ 0x7
   607  0027                     	ds	1
   608  0028                     ?___fttol:	
   609  0028                     __tdiv_to_l_@exp1:	
   610                           ; 4 bytes @ 0x8
   611                           
   612  0028                     ___fttol@f1:	
   613                           ; 1 bytes @ 0x8
   614                           
   615  0028                     __div_to_l_@quot:	
   616                           ; 3 bytes @ 0x8
   617                           
   618                           
   619                           ; 4 bytes @ 0x8
   620  0028                     	ds	1
   621  0029                     ___llmod@dividend:	
   622                           
   623                           ; 4 bytes @ 0x9
   624  0029                     	ds	1
   625  002A                     ??___ftdiv:	
   626                           
   627                           ; 0 bytes @ 0xA
   628  002A                     	ds	2
   629  002C                     ??___fttol:	
   630  002C                     __div_to_l_@cntr:	
   631                           ; 0 bytes @ 0xC
   632                           
   633                           
   634                           ; 1 bytes @ 0xC
   635  002C                     	ds	1
   636  002D                     ___ftdiv@cntr:	
   637  002D                     ___llmod@counter:	
   638                           ; 1 bytes @ 0xD
   639                           
   640  002D                     __div_to_l_@exp1:	
   641                           ; 1 bytes @ 0xD
   642                           
   643                           
   644                           ; 1 bytes @ 0xD
   645  002D                     	ds	1
   646  002E                     ___ftdiv@f3:	
   647                           
   648                           ; 3 bytes @ 0xE
   649  002E                     	ds	1
   650  002F                     ___fttol@sign1:	
   651                           
   652                           ; 1 bytes @ 0xF
   653  002F                     	ds	1
   654  0030                     ___fttol@lval:	
   655                           
   656                           ; 4 bytes @ 0x10
   657  0030                     	ds	1
   658  0031                     ___ftdiv@exp:	
   659                           
   660                           ; 1 bytes @ 0x11
   661  0031                     	ds	1
   662  0032                     ___ftdiv@sign:	
   663                           
   664                           ; 1 bytes @ 0x12
   665  0032                     	ds	2
   666  0034                     ___fttol@exp1:	
   667                           
   668                           ; 1 bytes @ 0x14
   669  0034                     	ds	1
   670  0035                     ?___ftmul:	
   671  0035                     ___ftmul@f1:	
   672                           ; 3 bytes @ 0x15
   673                           
   674                           
   675                           ; 3 bytes @ 0x15
   676  0035                     	ds	3
   677  0038                     ___ftmul@f2:	
   678                           
   679                           ; 3 bytes @ 0x18
   680  0038                     	ds	3
   681  003B                     ??___ftmul:	
   682                           
   683                           ; 0 bytes @ 0x1B
   684  003B                     	ds	3
   685  003E                     ___ftmul@exp:	
   686                           
   687                           ; 1 bytes @ 0x1E
   688  003E                     	ds	1
   689  003F                     ___ftmul@f3_as_product:	
   690                           
   691                           ; 3 bytes @ 0x1F
   692  003F                     	ds	3
   693  0042                     ___ftmul@cntr:	
   694                           
   695                           ; 1 bytes @ 0x22
   696  0042                     	ds	1
   697  0043                     ___ftmul@sign:	
   698                           
   699                           ; 1 bytes @ 0x23
   700  0043                     	ds	1
   701  0044                     ?_scale:	
   702  0044                     ?___ftadd:	
   703                           ; 3 bytes @ 0x24
   704                           
   705  0044                     ___ftadd@f1:	
   706                           ; 3 bytes @ 0x24
   707                           
   708                           
   709                           ; 3 bytes @ 0x24
   710  0044                     	ds	3
   711  0047                     ??_scale:	
   712  0047                     ___ftadd@f2:	
   713                           ; 0 bytes @ 0x27
   714                           
   715                           
   716                           ; 3 bytes @ 0x27
   717  0047                     	ds	3
   718  004A                     ??___ftadd:	
   719                           
   720                           ; 0 bytes @ 0x2A
   721  004A                     	ds	1
   722  004B                     _scale$2808:	
   723                           
   724                           ; 3 bytes @ 0x2B
   725  004B                     	ds	2
   726  004D                     ___ftadd@sign:	
   727                           
   728                           ; 1 bytes @ 0x2D
   729  004D                     	ds	1
   730  004E                     scale@scl:	
   731  004E                     ___ftadd@exp2:	
   732                           ; 1 bytes @ 0x2E
   733                           
   734                           
   735                           ; 1 bytes @ 0x2E
   736  004E                     	ds	1
   737  004F                     ___ftadd@exp1:	
   738                           
   739                           ; 1 bytes @ 0x2F
   740  004F                     	ds	1
   741  0050                     ?_fround:	
   742  0050                     ?___ftsub:	
   743                           ; 3 bytes @ 0x30
   744                           
   745  0050                     ___ftsub@f2:	
   746                           ; 3 bytes @ 0x30
   747                           
   748                           
   749                           ; 3 bytes @ 0x30
   750  0050                     	ds	3
   751  0053                     ___ftsub@f1:	
   752  0053                     _fround$2807:	
   753                           ; 3 bytes @ 0x33
   754                           
   755                           
   756                           ; 3 bytes @ 0x33
   757  0053                     	ds	3
   758  0056                     _fround$2806:	
   759                           
   760                           ; 3 bytes @ 0x36
   761  0056                     	ds	3
   762  0059                     fround@prec:	
   763                           
   764                           ; 1 bytes @ 0x39
   765  0059                     	ds	1
   766  005A                     ?_sprintf:	
   767  005A                     sprintf@f:	
   768                           ; 2 bytes @ 0x3A
   769                           
   770                           
   771                           ; 1 bytes @ 0x3A
   772  005A                     	ds	4
   773  005E                     ??_sprintf:	
   774                           
   775                           ; 0 bytes @ 0x3E
   776  005E                     	ds	5
   777                           
   778                           	psect	maintext
   779  09AE                     __pmaintext:	
   780 ;;Data sizes: Strings 8, constant 118, data 0, bss 4, persistent 3 stack 0
   781 ;;Auto spaces:   Size  Autos    Used
   782 ;; COMMON          14     10      12
   783 ;; BANK0           80     67      72
   784 ;; BANK1           80     35      35
   785 ;; BANK3           96      0       0
   786 ;; BANK2           96      0       0
   787 ;;
   788 ;; Pointer list with targets:
   789 ;; ?___ftpack	float  size(1) Largest target is 0
   790 ;;
   791 ;; ?___lldiv	unsigned long  size(1) Largest target is 0
   792 ;;
   793 ;; ?___llmod	unsigned long  size(1) Largest target is 0
   794 ;;
   795 ;; ?___ftsub	float  size(1) Largest target is 0
   796 ;;
   797 ;; ?___lltoft	float  size(1) Largest target is 0
   798 ;;
   799 ;; ?__tdiv_to_l_	unsigned long  size(1) Largest target is 0
   800 ;;
   801 ;; ?__div_to_l_	unsigned long  size(1) Largest target is 0
   802 ;;
   803 ;; ?___fttol	long  size(1) Largest target is 0
   804 ;;
   805 ;; ?___ftadd	float  size(1) Largest target is 0
   806 ;;
   807 ;; ?___ftneg	float  size(1) Largest target is 0
   808 ;;
   809 ;; ?___awmod	int  size(1) Largest target is 40
   810 ;;		 -> dpowers(CODE[40]), 
   811 ;;
   812 ;; ?___awdiv	int  size(1) Largest target is 0
   813 ;;
   814 ;; ?_scale	int  size(1) Largest target is 0
   815 ;;
   816 ;; ?___wmul	unsigned int  size(1) Largest target is 0
   817 ;;
   818 ;; ?_fround	unsigned int  size(1) Largest target is 0
   819 ;;
   820 ;; ?___ftdiv	float  size(1) Largest target is 0
   821 ;;
   822 ;; ?___awtoft	float  size(1) Largest target is 0
   823 ;;
   824 ;; ?___ftmul	float  size(1) Largest target is 0
   825 ;;
   826 ;; sprintf@f	PTR const unsigned char  size(1) Largest target is 8
   827 ;;		 -> STR_1(CODE[8]), 
   828 ;;
   829 ;; sprintf@sp	PTR unsigned char  size(1) Largest target is 10
   830 ;;		 -> main@data_tx(BANK1[10]), 
   831 ;;
   832 ;; ?_sprintf	int  size(1) Largest target is 0
   833 ;;
   834 ;; sprintf@ap	PTR void [1] size(1) Largest target is 2
   835 ;;		 -> ?_sprintf(BANK0[2]), 
   836 ;;
   837 ;; S1862$_cp	PTR const unsigned char  size(1) Largest target is 0
   838 ;;
   839 ;; _val._str._cp	PTR const unsigned char  size(1) Largest target is 0
   840 ;;
   841 ;; send_string@s	PTR const unsigned char  size(1) Largest target is 10
   842 ;;		 -> main@data_tx(BANK1[10]), 
   843 ;;
   844 ;;
   845 ;; Critical Paths under _main in COMMON
   846 ;;
   847 ;;   _sprintf->___lldiv
   848 ;;   ___lltoft->___ftpack
   849 ;;   ___awtoft->___ftpack
   850 ;;   ___ftmul->___ftpack
   851 ;;   ___ftdiv->___ftpack
   852 ;;   ___ftadd->___ftpack
   853 ;;   _send_string->_send_char
   854 ;;   ___llmod->___lldiv
   855 ;;   ___awdiv->___awmod
   856 ;;   ___fttol->___ftpack
   857 ;;   ___lbdiv->___lbmod
   858 ;;   ___bmul->___lbdiv
   859 ;;
   860 ;; Critical Paths under _ngat in COMMON
   861 ;;
   862 ;;   None.
   863 ;;
   864 ;; Critical Paths under _main in BANK0
   865 ;;
   866 ;;   _main->_sprintf
   867 ;;   _sprintf->_fround
   868 ;;   ___ftsub->___ftadd
   869 ;;   _scale->___ftmul
   870 ;;   _fround->___ftadd
   871 ;;   ___ftmul->___fttol
   872 ;;   ___ftdiv->___awtoft
   873 ;;   ___ftadd->___ftmul
   874 ;;   ___llmod->___lldiv
   875 ;;   ___fttol->___awdiv
   876 ;;   ___bmul->___lbdiv
   877 ;;
   878 ;; Critical Paths under _ngat in BANK0
   879 ;;
   880 ;;   None.
   881 ;;
   882 ;; Critical Paths under _main in BANK1
   883 ;;
   884 ;;   _main->_sprintf
   885 ;;
   886 ;; Critical Paths under _ngat in BANK1
   887 ;;
   888 ;;   None.
   889 ;;
   890 ;; Critical Paths under _main in BANK3
   891 ;;
   892 ;;   None.
   893 ;;
   894 ;; Critical Paths under _ngat in BANK3
   895 ;;
   896 ;;   None.
   897 ;;
   898 ;; Critical Paths under _main in BANK2
   899 ;;
   900 ;;   None.
   901 ;;
   902 ;; Critical Paths under _ngat in BANK2
   903 ;;
   904 ;;   None.
   905 ;;
   906 ;;Main: autosize = 0, tempsize = 0, incstack = 0, save=0
   907 ;;
   908 ;;
   909 ;;Call Graph Tables:
   910 ;;
   911 ;; ---------------------------------------------------------------------------------
   912 ;; (Depth) Function   	        Calls       Base Space   Used Autos Params    Refs
   913 ;; ---------------------------------------------------------------------------------
   914 ;; (0) _main                                                13    13      0   17146
   915 ;;                                             25 BANK1     10    10      0
   916 ;;                                 _tx
   917 ;;                                 _rx
   918 ;;                           ___awtoft
   919 ;;                            ___ftdiv
   920 ;;                            ___ftmul
   921 ;;                            _sprintf
   922 ;;                        _send_string
   923 ;; ---------------------------------------------------------------------------------
   924 ;; (1) _sprintf                                             38    34      4   14939
   925 ;;                                             58 BANK0      9     5      4
   926 ;;                                              0 BANK1     25    25      0
   927 ;;                            _isdigit
   928 ;;                             ___wmul
   929 ;;                             ___ftge
   930 ;;                            ___ftneg
   931 ;;                            ___awdiv
   932 ;;                              _scale
   933 ;;                            ___ftmul
   934 ;;                             _fround
   935 ;;                            ___ftadd
   936 ;;                            ___fttol
   937 ;;                         __div_to_l_
   938 ;;                        __tdiv_to_l_
   939 ;;                           ___lltoft
   940 ;;                            ___ftsub
   941 ;;                            ___lldiv
   942 ;;                            ___llmod
   943 ;; ---------------------------------------------------------------------------------
   944 ;; (2) ___ftsub                                              6     0      6    1602
   945 ;;                                             48 BANK0      6     0      6
   946 ;;                            ___ftadd
   947 ;;                           ___lltoft (ARG)
   948 ;; ---------------------------------------------------------------------------------
   949 ;; (2) _scale                                               14    11      3    2483
   950 ;;                                             36 BANK0     11     8      3
   951 ;;                            ___awmod
   952 ;;                            ___awdiv
   953 ;;                            ___ftmul
   954 ;;                             ___bmul
   955 ;;                            ___fttol (ARG)
   956 ;; ---------------------------------------------------------------------------------
   957 ;; (2) _fround                                              13    10      3    1799
   958 ;;                                             48 BANK0     10     7      3
   959 ;;                            ___lbmod
   960 ;;                             ___bmul
   961 ;;                            ___lbdiv
   962 ;;                            ___ftmul
   963 ;;                            ___ftadd (ARG)
   964 ;; ---------------------------------------------------------------------------------
   965 ;; (2) ___lltoft                                             5     1      4     414
   966 ;;                                              0 BANK0      5     1      4
   967 ;;                           ___ftpack
   968 ;; ---------------------------------------------------------------------------------
   969 ;; (1) ___awtoft                                             4     1      3     445
   970 ;;                                              0 BANK0      4     1      3
   971 ;;                           ___ftpack
   972 ;; ---------------------------------------------------------------------------------
   973 ;; (3) ___ftmul                                             15     9      6     800
   974 ;;                                             21 BANK0     15     9      6
   975 ;;                           ___ftpack
   976 ;;                            ___ftdiv (ARG)
   977 ;;                           ___awtoft (ARG)
   978 ;;                            ___fttol (ARG)
   979 ;;                            ___awdiv (ARG)
   980 ;;                            ___awmod (ARG)
   981 ;;                             ___bmul (ARG)
   982 ;;                            ___lbdiv (ARG)
   983 ;;                            ___lbmod (ARG)
   984 ;; ---------------------------------------------------------------------------------
   985 ;; (1) ___ftdiv                                             15     9      6     732
   986 ;;                                              4 BANK0     15     9      6
   987 ;;                           ___ftpack
   988 ;;                           ___awtoft (ARG)
   989 ;; ---------------------------------------------------------------------------------
   990 ;; (3) ___ftadd                                             12     6      6    1537
   991 ;;                                             36 BANK0     12     6      6
   992 ;;                           ___ftpack
   993 ;;                            ___lbmod (ARG)
   994 ;;                             ___bmul (ARG)
   995 ;;                            ___lbdiv (ARG)
   996 ;;                            ___ftmul (ARG)
   997 ;; ---------------------------------------------------------------------------------
   998 ;; (1) _send_string                                          1     1      0      96
   999 ;;                                              3 COMMON     1     1      0
  1000 ;;                          _send_char
  1001 ;; ---------------------------------------------------------------------------------
  1002 ;; (3) ___awmod                                              6     2      4     433
  1003 ;;                                              2 COMMON     6     2      4
  1004 ;; ---------------------------------------------------------------------------------
  1005 ;; (2) ___lldiv                                             13     5      8     241
  1006 ;;                                              2 COMMON     8     0      8
  1007 ;;                                              0 BANK0      5     5      0
  1008 ;; ---------------------------------------------------------------------------------
  1009 ;; (2) ___ftge                                               6     0      6     198
  1010 ;;                                              2 COMMON     6     0      6
  1011 ;; ---------------------------------------------------------------------------------
  1012 ;; (2) ___ftneg                                              3     0      3      65
  1013 ;;                                              2 COMMON     3     0      3
  1014 ;; ---------------------------------------------------------------------------------
  1015 ;; (2) ___llmod                                              9     1      8     232
  1016 ;;                                              5 BANK0      9     1      8
  1017 ;;                            ___lldiv (ARG)
  1018 ;; ---------------------------------------------------------------------------------
  1019 ;; (3) ___awdiv                                              8     4      4     445
  1020 ;;                                              0 BANK0      8     4      4
  1021 ;;                            ___awmod (ARG)
  1022 ;; ---------------------------------------------------------------------------------
  1023 ;; (2) ___fttol                                             13     9      4     371
  1024 ;;                                              8 BANK0     13     9      4
  1025 ;;                           ___ftpack (ARG)
  1026 ;;                            ___awmod (ARG)
  1027 ;;                            ___awdiv (ARG)
  1028 ;;                             ___bmul (ARG)
  1029 ;; ---------------------------------------------------------------------------------
  1030 ;; (4) ___ftpack                                             8     3      5     312
  1031 ;;                                              2 COMMON     8     3      5
  1032 ;; ---------------------------------------------------------------------------------
  1033 ;; (3) ___lbmod                                              5     4      1     232
  1034 ;;                                              2 COMMON     5     4      1
  1035 ;; ---------------------------------------------------------------------------------
  1036 ;; (3) ___lbdiv                                              4     3      1     241
  1037 ;;                                              7 COMMON     1     0      1
  1038 ;;                                              0 BANK0      3     3      0
  1039 ;;                            ___lbmod (ARG)
  1040 ;; ---------------------------------------------------------------------------------
  1041 ;; (2) ___wmul                                               6     2      4     136
  1042 ;;                                              2 COMMON     6     2      4
  1043 ;; ---------------------------------------------------------------------------------
  1044 ;; (3) ___bmul                                               3     2      1     108
  1045 ;;                                              8 COMMON     1     0      1
  1046 ;;                                              3 BANK0      2     2      0
  1047 ;;                            ___lbmod (ARG)
  1048 ;;                            ___lbdiv (ARG)
  1049 ;; ---------------------------------------------------------------------------------
  1050 ;; (2) __div_to_l_                                          20    14      6     673
  1051 ;;                                              2 COMMON     6     0      6
  1052 ;;                                              0 BANK0     14    14      0
  1053 ;; ---------------------------------------------------------------------------------
  1054 ;; (2) __tdiv_to_l_                                         15     9      6     454
  1055 ;;                                              2 COMMON     6     0      6
  1056 ;;                                              0 BANK0      9     9      0
  1057 ;; ---------------------------------------------------------------------------------
  1058 ;; (2) _isdigit                                              2     2      0      99
  1059 ;;                                              2 COMMON     2     2      0
  1060 ;; ---------------------------------------------------------------------------------
  1061 ;; (2) _send_char                                            1     1      0      31
  1062 ;;                                              2 COMMON     1     1      0
  1063 ;; ---------------------------------------------------------------------------------
  1064 ;; (1) _rx                                                   0     0      0       0
  1065 ;; ---------------------------------------------------------------------------------
  1066 ;; (1) _tx                                                   0     0      0       0
  1067 ;; ---------------------------------------------------------------------------------
  1068 ;; Estimated maximum stack depth 4
  1069 ;; ---------------------------------------------------------------------------------
  1070 ;; (Depth) Function   	        Calls       Base Space   Used Autos Params    Refs
  1071 ;; ---------------------------------------------------------------------------------
  1072 ;; (5) _ngat                                                 2     2      0       0
  1073 ;;                                              0 COMMON     2     2      0
  1074 ;; ---------------------------------------------------------------------------------
  1075 ;; Estimated maximum stack depth 5
  1076 ;; ---------------------------------------------------------------------------------
  1077 ;; Call Graph Graphs:
  1078 ;; _main (ROOT)
  1079 ;;   _tx
  1080 ;;   _rx
  1081 ;;   ___awtoft
  1082 ;;     ___ftpack
  1083 ;;   ___ftdiv
  1084 ;;     ___ftpack
  1085 ;;     ___awtoft (ARG)
  1086 ;;       ___ftpack
  1087 ;;   ___ftmul
  1088 ;;     ___ftpack
  1089 ;;     ___ftdiv (ARG)
  1090 ;;       ___ftpack
  1091 ;;       ___awtoft (ARG)
  1092 ;;         ___ftpack
  1093 ;;     ___awtoft (ARG)
  1094 ;;       ___ftpack
  1095 ;;     ___fttol (ARG)
  1096 ;;       ___ftpack (ARG)
  1097 ;;       ___awmod (ARG)
  1098 ;;       ___awdiv (ARG)
  1099 ;;         ___awmod (ARG)
  1100 ;;       ___bmul (ARG)
  1101 ;;         ___lbmod (ARG)
  1102 ;;         ___lbdiv (ARG)
  1103 ;;           ___lbmod (ARG)
  1104 ;;     ___awdiv (ARG)
  1105 ;;       ___awmod (ARG)
  1106 ;;     ___awmod (ARG)
  1107 ;;     ___bmul (ARG)
  1108 ;;       ___lbmod (ARG)
  1109 ;;       ___lbdiv (ARG)
  1110 ;;         ___lbmod (ARG)
  1111 ;;     ___lbdiv (ARG)
  1112 ;;       ___lbmod (ARG)
  1113 ;;     ___lbmod (ARG)
  1114 ;;   _sprintf
  1115 ;;     _isdigit
  1116 ;;     ___wmul
  1117 ;;     ___ftge
  1118 ;;     ___ftneg
  1119 ;;     ___awdiv
  1120 ;;       ___awmod (ARG)
  1121 ;;     _scale
  1122 ;;       ___awmod
  1123 ;;       ___awdiv
  1124 ;;         ___awmod (ARG)
  1125 ;;       ___ftmul
  1126 ;;         ___ftpack
  1127 ;;         ___ftdiv (ARG)
  1128 ;;           ___ftpack
  1129 ;;           ___awtoft (ARG)
  1130 ;;             ___ftpack
  1131 ;;         ___awtoft (ARG)
  1132 ;;           ___ftpack
  1133 ;;         ___fttol (ARG)
  1134 ;;           ___ftpack (ARG)
  1135 ;;           ___awmod (ARG)
  1136 ;;           ___awdiv (ARG)
  1137 ;;             ___awmod (ARG)
  1138 ;;           ___bmul (ARG)
  1139 ;;             ___lbmod (ARG)
  1140 ;;             ___lbdiv (ARG)
  1141 ;;               ___lbmod (ARG)
  1142 ;;         ___awdiv (ARG)
  1143 ;;           ___awmod (ARG)
  1144 ;;         ___awmod (ARG)
  1145 ;;         ___bmul (ARG)
  1146 ;;           ___lbmod (ARG)
  1147 ;;           ___lbdiv (ARG)
  1148 ;;             ___lbmod (ARG)
  1149 ;;         ___lbdiv (ARG)
  1150 ;;           ___lbmod (ARG)
  1151 ;;         ___lbmod (ARG)
  1152 ;;       ___bmul
  1153 ;;         ___lbmod (ARG)
  1154 ;;         ___lbdiv (ARG)
  1155 ;;           ___lbmod (ARG)
  1156 ;;       ___fttol (ARG)
  1157 ;;         ___ftpack (ARG)
  1158 ;;         ___awmod (ARG)
  1159 ;;         ___awdiv (ARG)
  1160 ;;           ___awmod (ARG)
  1161 ;;         ___bmul (ARG)
  1162 ;;           ___lbmod (ARG)
  1163 ;;           ___lbdiv (ARG)
  1164 ;;             ___lbmod (ARG)
  1165 ;;     ___ftmul
  1166 ;;       ___ftpack
  1167 ;;       ___ftdiv (ARG)
  1168 ;;         ___ftpack
  1169 ;;         ___awtoft (ARG)
  1170 ;;           ___ftpack
  1171 ;;       ___awtoft (ARG)
  1172 ;;         ___ftpack
  1173 ;;       ___fttol (ARG)
  1174 ;;         ___ftpack (ARG)
  1175 ;;         ___awmod (ARG)
  1176 ;;         ___awdiv (ARG)
  1177 ;;           ___awmod (ARG)
  1178 ;;         ___bmul (ARG)
  1179 ;;           ___lbmod (ARG)
  1180 ;;           ___lbdiv (ARG)
  1181 ;;             ___lbmod (ARG)
  1182 ;;       ___awdiv (ARG)
  1183 ;;         ___awmod (ARG)
  1184 ;;       ___awmod (ARG)
  1185 ;;       ___bmul (ARG)
  1186 ;;         ___lbmod (ARG)
  1187 ;;         ___lbdiv (ARG)
  1188 ;;           ___lbmod (ARG)
  1189 ;;       ___lbdiv (ARG)
  1190 ;;         ___lbmod (ARG)
  1191 ;;       ___lbmod (ARG)
  1192 ;;     _fround
  1193 ;;       ___lbmod
  1194 ;;       ___bmul
  1195 ;;         ___lbmod (ARG)
  1196 ;;         ___lbdiv (ARG)
  1197 ;;           ___lbmod (ARG)
  1198 ;;       ___lbdiv
  1199 ;;         ___lbmod (ARG)
  1200 ;;       ___ftmul
  1201 ;;         ___ftpack
  1202 ;;         ___ftdiv (ARG)
  1203 ;;           ___ftpack
  1204 ;;           ___awtoft (ARG)
  1205 ;;             ___ftpack
  1206 ;;         ___awtoft (ARG)
  1207 ;;           ___ftpack
  1208 ;;         ___fttol (ARG)
  1209 ;;           ___ftpack (ARG)
  1210 ;;           ___awmod (ARG)
  1211 ;;           ___awdiv (ARG)
  1212 ;;             ___awmod (ARG)
  1213 ;;           ___bmul (ARG)
  1214 ;;             ___lbmod (ARG)
  1215 ;;             ___lbdiv (ARG)
  1216 ;;               ___lbmod (ARG)
  1217 ;;         ___awdiv (ARG)
  1218 ;;           ___awmod (ARG)
  1219 ;;         ___awmod (ARG)
  1220 ;;         ___bmul (ARG)
  1221 ;;           ___lbmod (ARG)
  1222 ;;           ___lbdiv (ARG)
  1223 ;;             ___lbmod (ARG)
  1224 ;;         ___lbdiv (ARG)
  1225 ;;           ___lbmod (ARG)
  1226 ;;         ___lbmod (ARG)
  1227 ;;       ___ftadd (ARG)
  1228 ;;         ___ftpack
  1229 ;;         ___lbmod (ARG)
  1230 ;;         ___bmul (ARG)
  1231 ;;           ___lbmod (ARG)
  1232 ;;           ___lbdiv (ARG)
  1233 ;;             ___lbmod (ARG)
  1234 ;;         ___lbdiv (ARG)
  1235 ;;           ___lbmod (ARG)
  1236 ;;         ___ftmul (ARG)
  1237 ;;           ___ftpack
  1238 ;;           ___ftdiv (ARG)
  1239 ;;             ___ftpack
  1240 ;;             ___awtoft (ARG)
  1241 ;;               ___ftpack
  1242 ;;           ___awtoft (ARG)
  1243 ;;             ___ftpack
  1244 ;;           ___fttol (ARG)
  1245 ;;             ___ftpack (ARG)
  1246 ;;             ___awmod (ARG)
  1247 ;;             ___awdiv (ARG)
  1248 ;;               ___awmod (ARG)
  1249 ;;             ___bmul (ARG)
  1250 ;;               ___lbmod (ARG)
  1251 ;;               ___lbdiv (ARG)
  1252 ;;                 ___lbmod (ARG)
  1253 ;;           ___awdiv (ARG)
  1254 ;;             ___awmod (ARG)
  1255 ;;           ___awmod (ARG)
  1256 ;;           ___bmul (ARG)
  1257 ;;             ___lbmod (ARG)
  1258 ;;             ___lbdiv (ARG)
  1259 ;;               ___lbmod (ARG)
  1260 ;;           ___lbdiv (ARG)
  1261 ;;             ___lbmod (ARG)
  1262 ;;           ___lbmod (ARG)
  1263 ;;     ___ftadd
  1264 ;;       ___ftpack
  1265 ;;       ___lbmod (ARG)
  1266 ;;       ___bmul (ARG)
  1267 ;;         ___lbmod (ARG)
  1268 ;;         ___lbdiv (ARG)
  1269 ;;           ___lbmod (ARG)
  1270 ;;       ___lbdiv (ARG)
  1271 ;;         ___lbmod (ARG)
  1272 ;;       ___ftmul (ARG)
  1273 ;;         ___ftpack
  1274 ;;         ___ftdiv (ARG)
  1275 ;;           ___ftpack
  1276 ;;           ___awtoft (ARG)
  1277 ;;             ___ftpack
  1278 ;;         ___awtoft (ARG)
  1279 ;;           ___ftpack
  1280 ;;         ___fttol (ARG)
  1281 ;;           ___ftpack (ARG)
  1282 ;;           ___awmod (ARG)
  1283 ;;           ___awdiv (ARG)
  1284 ;;             ___awmod (ARG)
  1285 ;;           ___bmul (ARG)
  1286 ;;             ___lbmod (ARG)
  1287 ;;             ___lbdiv (ARG)
  1288 ;;               ___lbmod (ARG)
  1289 ;;         ___awdiv (ARG)
  1290 ;;           ___awmod (ARG)
  1291 ;;         ___awmod (ARG)
  1292 ;;         ___bmul (ARG)
  1293 ;;           ___lbmod (ARG)
  1294 ;;           ___lbdiv (ARG)
  1295 ;;             ___lbmod (ARG)
  1296 ;;         ___lbdiv (ARG)
  1297 ;;           ___lbmod (ARG)
  1298 ;;         ___lbmod (ARG)
  1299 ;;     ___fttol
  1300 ;;       ___ftpack (ARG)
  1301 ;;       ___awmod (ARG)
  1302 ;;       ___awdiv (ARG)
  1303 ;;         ___awmod (ARG)
  1304 ;;       ___bmul (ARG)
  1305 ;;         ___lbmod (ARG)
  1306 ;;         ___lbdiv (ARG)
  1307 ;;           ___lbmod (ARG)
  1308 ;;     __div_to_l_
  1309 ;;     __tdiv_to_l_
  1310 ;;     ___lltoft
  1311 ;;       ___ftpack
  1312 ;;     ___ftsub
  1313 ;;       ___ftadd
  1314 ;;         ___ftpack
  1315 ;;         ___lbmod (ARG)
  1316 ;;         ___bmul (ARG)
  1317 ;;           ___lbmod (ARG)
  1318 ;;           ___lbdiv (ARG)
  1319 ;;             ___lbmod (ARG)
  1320 ;;         ___lbdiv (ARG)
  1321 ;;           ___lbmod (ARG)
  1322 ;;         ___ftmul (ARG)
  1323 ;;           ___ftpack
  1324 ;;           ___ftdiv (ARG)
  1325 ;;             ___ftpack
  1326 ;;             ___awtoft (ARG)
  1327 ;;               ___ftpack
  1328 ;;           ___awtoft (ARG)
  1329 ;;             ___ftpack
  1330 ;;           ___fttol (ARG)
  1331 ;;             ___ftpack (ARG)
  1332 ;;             ___awmod (ARG)
  1333 ;;             ___awdiv (ARG)
  1334 ;;               ___awmod (ARG)
  1335 ;;             ___bmul (ARG)
  1336 ;;               ___lbmod (ARG)
  1337 ;;               ___lbdiv (ARG)
  1338 ;;                 ___lbmod (ARG)
  1339 ;;           ___awdiv (ARG)
  1340 ;;             ___awmod (ARG)
  1341 ;;           ___awmod (ARG)
  1342 ;;           ___bmul (ARG)
  1343 ;;             ___lbmod (ARG)
  1344 ;;             ___lbdiv (ARG)
  1345 ;;               ___lbmod (ARG)
  1346 ;;           ___lbdiv (ARG)
  1347 ;;             ___lbmod (ARG)
  1348 ;;           ___lbmod (ARG)
  1349 ;;       ___lltoft (ARG)
  1350 ;;         ___ftpack
  1351 ;;     ___lldiv
  1352 ;;     ___llmod
  1353 ;;       ___lldiv (ARG)
  1354 ;;   _send_string
  1355 ;;     _send_char
  1356 ;;
  1357 ;; _ngat (ROOT)
  1358 ;;
  1359 ;; Address spaces:
  1360 ;;Name               Size   Autos  Total    Cost      Usage
  1361 ;;BITCOMMON            E      0       0       0        0.0%
  1362 ;;EEDATA             100      0       0       0        0.0%
  1363 ;;NULL                 0      0       0       0        0.0%
  1364 ;;CODE                 0      0       0       0        0.0%
  1365 ;;COMMON               E      A       C       1       85.7%
  1366 ;;BITSFR0              0      0       0       1        0.0%
  1367 ;;SFR0                 0      0       0       1        0.0%
  1368 ;;BITSFR1              0      0       0       2        0.0%
  1369 ;;SFR1                 0      0       0       2        0.0%
  1370 ;;STACK                0      0       4       2        0.0%
  1371 ;;ABS                  0      0      77       3        0.0%
  1372 ;;BITBANK0            50      0       0       4        0.0%
  1373 ;;BITSFR3              0      0       0       4        0.0%
  1374 ;;SFR3                 0      0       0       4        0.0%
  1375 ;;BANK0               50     43      48       5       90.0%
  1376 ;;BITSFR2              0      0       0       5        0.0%
  1377 ;;SFR2                 0      0       0       5        0.0%
  1378 ;;BITBANK1            50      0       0       6        0.0%
  1379 ;;BANK1               50     23      23       7       43.8%
  1380 ;;BITBANK3            60      0       0       8        0.0%
  1381 ;;BANK3               60      0       0       9        0.0%
  1382 ;;BITBANK2            60      0       0      10        0.0%
  1383 ;;BANK2               60      0       0      11        0.0%
  1384 ;;DATA                 0      0      7B      12        0.0%
  1385                           
  1386                           
  1387 ;; *************** function _main *****************
  1388 ;; Defined at:
  1389 ;;		line 20 in file "D:\TTVXL\Project TTVXL\BT n Thi 02\BT n Thi 02.c"
  1390 ;; Parameters:    Size  Location     Type
  1391 ;;		None
  1392 ;; Auto vars:     Size  Location     Type
  1393 ;;  data_tx        10   25[BANK1 ] unsigned char [10]
  1394 ;;  gocquay_star    3    0        unsigned char [3]
  1395 ;; Return value:  Size  Location     Type
  1396 ;;		None               void
  1397 ;; Registers used:
  1398 ;;		wreg, fsr0l, fsr0h, status,2, status,0, btemp+1, pclath, cstack
  1399 ;; Tracked objects:
  1400 ;;		On entry : 17F/0
  1401 ;;		On exit  : 140/0
  1402 ;;		Unchanged: FFE00/0
  1403 ;; Data sizes:     COMMON   BANK0   BANK1   BANK3   BANK2
  1404 ;;      Params:         0       0       0       0       0
  1405 ;;      Locals:         0       0      10       0       0
  1406 ;;      Temps:          0       0       0       0       0
  1407 ;;      Totals:         0       0      10       0       0
  1408 ;;Total ram usage:       10 bytes
  1409 ;; Hardware stack levels required when called:    5
  1410 ;; This function calls:
  1411 ;;		_tx
  1412 ;;		_rx
  1413 ;;		___awtoft
  1414 ;;		___ftdiv
  1415 ;;		___ftmul
  1416 ;;		_sprintf
  1417 ;;		_send_string
  1418 ;; This function is called by:
  1419 ;;		Startup code after reset
  1420 ;; This function uses a non-reentrant model
  1421 ;;
  1422  09AE                     _main:	
  1423                           
  1424                           ;BT n Thi 02.c: 21: ANSEL = ANSELH = 0;
  1425                           
  1426                           ; Regs used in _main: [wreg-fsr0h+status,2+status,0+btemp+1+pclath+cstack]
  1427  09AE  1683               	bsf	3,5	;RP0=1, select bank3
  1428  09AF  1703               	bsf	3,6	;RP1=1, select bank3
  1429  09B0  0189               	clrf	9	;volatile
  1430  09B1  0188               	clrf	8	;volatile
  1431                           
  1432                           ;BT n Thi 02.c: 22: TRISE0 = 0; RE0 = 1;
  1433  09B2  1303               	bcf	3,6	;RP1=0, select bank1
  1434  09B3  1009               	bcf	9,0
  1435  09B4  1283               	bcf	3,5	;RP0=0, select bank0
  1436  09B5  1409               	bsf	9,0
  1437                           
  1438                           ;BT n Thi 02.c: 25: T0CS = 0;
  1439  09B6  1683               	bsf	3,5	;RP0=1, select bank1
  1440  09B7  3006               	movlw	6
  1441  09B8  1281               	bcf	1,5
  1442                           
  1443                           ;BT n Thi 02.c: 26: PSA = 0;
  1444  09B9  1181               	bcf	1,3
  1445                           
  1446                           ;BT n Thi 02.c: 27: PS2 = 0; PS1 = 1;PS0 = 0;
  1447  09BA  1101               	bcf	1,2
  1448  09BB  1481               	bsf	1,1
  1449  09BC  1001               	bcf	1,0
  1450                           
  1451                           ;BT n Thi 02.c: 28: TMR0 = 6;
  1452  09BD  1283               	bcf	3,5	;RP0=0, select bank0
  1453  09BE  0081               	movwf	1	;volatile
  1454                           
  1455                           ;BT n Thi 02.c: 29: T0IE = 1; T0IF = 0; GIE = 1; PEIE =1;
  1456  09BF  168B               	bsf	11,5
  1457  09C0  110B               	bcf	11,2
  1458  09C1  178B               	bsf	11,7
  1459  09C2  170B               	bsf	11,6
  1460                           
  1461                           ;BT n Thi 02.c: 32: TMR1CS = 1;
  1462  09C3  1490               	bsf	16,1
  1463                           
  1464                           ;BT n Thi 02.c: 33: T1CKPS1 = 0;T1CKPS0 = 0;
  1465  09C4  1290               	bcf	16,5
  1466  09C5  1210               	bcf	16,4
  1467                           
  1468                           ;BT n Thi 02.c: 34: T1SYNC = 1;
  1469  09C6  1510               	bsf	16,2
  1470                           
  1471                           ;BT n Thi 02.c: 35: TMR1 = 0;
  1472  09C7  018E               	clrf	14	;volatile
  1473  09C8  018F               	clrf	15	;volatile
  1474                           
  1475                           ;BT n Thi 02.c: 36: TMR1GE = 0; TMR1ON = 1;
  1476  09C9  1310               	bcf	16,6
  1477  09CA  1410               	bsf	16,0
  1478                           
  1479                           ;BT n Thi 02.c: 40: tx();
  1480  09CB  120A  158A  218A   	fcall	_tx
      +       120A  158A         
  1481                           
  1482                           ;BT n Thi 02.c: 41: rx();
  1483  09D0  120A  158A  2199   	fcall	_rx
      +       120A  158A         
  1484  09D5                     l6861:	
  1485                           
  1486                           ;BT n Thi 02.c: 46: {
  1487                           ;BT n Thi 02.c: 47: v = (xung/374.0)*10.0*60.0;
  1488  09D5  1283               	bcf	3,5	;RP0=0, select bank0
  1489  09D6  3016               	movlw	22
  1490  09D7  01B5               	clrf	?___ftmul
  1491  09D8  00B6               	movwf	?___ftmul+1
  1492  09D9  3044               	movlw	68
  1493  09DA  00B7               	movwf	?___ftmul+2
  1494  09DB  30BB               	movlw	187
  1495  09DC  01A4               	clrf	?___ftdiv
  1496  09DD  00A5               	movwf	?___ftdiv+1
  1497  09DE  3043               	movlw	67
  1498  09DF  00A6               	movwf	?___ftdiv+2
  1499  09E0  0867               	movf	_xung+1,w
  1500  09E1  00A1               	movwf	?___awtoft+1
  1501  09E2  0866               	movf	_xung,w
  1502  09E3  00A0               	movwf	?___awtoft
  1503  09E4  120A  158A  2437   	fcall	___awtoft
      +       120A  158A         
  1504  09E9  0820               	movf	?___awtoft,w
  1505  09EA  00A7               	movwf	?___ftdiv+3
  1506  09EB  0821               	movf	?___awtoft+1,w
  1507  09EC  00A8               	movwf	?___ftdiv+4
  1508  09ED  0822               	movf	?___awtoft+2,w
  1509  09EE  00A9               	movwf	?___ftdiv+5
  1510  09EF  120A  158A  2470   	fcall	___ftdiv
      +       120A  158A         
  1511  09F4  0824               	movf	?___ftdiv,w
  1512  09F5  00B8               	movwf	?___ftmul+3
  1513  09F6  0825               	movf	?___ftdiv+1,w
  1514  09F7  00B9               	movwf	?___ftmul+4
  1515  09F8  0826               	movf	?___ftdiv+2,w
  1516  09F9  00BA               	movwf	?___ftmul+5
  1517  09FA  120A  158A  26EC   	fcall	___ftmul
      +       120A  158A         
  1518  09FF  0835               	movf	?___ftmul,w
  1519  0A00  00E3               	movwf	_v
  1520  0A01  0836               	movf	?___ftmul+1,w
  1521  0A02  00E4               	movwf	_v+1
  1522  0A03  0837               	movf	?___ftmul+2,w
  1523  0A04  00E5               	movwf	_v+2
  1524                           
  1525                           ;BT n Thi 02.c: 48: sprintf(data_tx,"v:%3.2f",v);
  1526  0A05  3077               	movlw	(STR_1-__stringbase)& (0+255)
  1527  0A06  00DA               	movwf	?_sprintf
  1528  0A07  0863               	movf	_v,w
  1529  0A08  00DB               	movwf	?_sprintf+1
  1530  0A09  0864               	movf	_v+1,w
  1531  0A0A  00DC               	movwf	?_sprintf+2
  1532  0A0B  0865               	movf	_v+2,w
  1533  0A0C  00DD               	movwf	?_sprintf+3
  1534  0A0D  30B9               	movlw	main@data_tx& (0+255)
  1535  0A0E  120A  118A  200F   	fcall	_sprintf
      +       120A  158A         
  1536                           
  1537                           ;BT n Thi 02.c: 49: send_string(data_tx);
  1538  0A13  30B9               	movlw	main@data_tx& (0+255)
  1539  0A14  120A  118A  27E6   	fcall	_send_string
      +       120A  158A         
  1540  0A19  29D5               	goto	l6861
  1541  0A1A                     __end_of_main:	
  1542                           
  1543                           	psect	text775
  1544  000F                     __ptext775:	
  1545 ;; =============== function _main ends ============
  1546                           
  1547                           
  1548 ;; *************** function _sprintf *****************
  1549 ;; Defined at:
  1550 ;;		line 488 in file "C:\Program Files (x86)\HI-TECH Software\PICC\9.83\lib\doprnt.c"
  1551 ;; Parameters:    Size  Location     Type
  1552 ;;  sp              1    wreg     PTR unsigned char 
  1553 ;;		 -> main@data_tx(10), 
  1554 ;;  f               1   58[BANK0 ] PTR const unsigned char 
  1555 ;;		 -> STR_1(8), 
  1556 ;; Auto vars:     Size  Location     Type
  1557 ;;  sp              1   18[BANK1 ] PTR unsigned char 
  1558 ;;		 -> main@data_tx(10), 
  1559 ;;  _val            4    8[BANK1 ] struct .
  1560 ;;  fval            3   19[BANK1 ] struct .
  1561 ;;  integ           3    5[BANK1 ] struct .
  1562 ;;  ival            3    0        struct .
  1563 ;;  prec            2   22[BANK1 ] int 
  1564 ;;  exp             2   16[BANK1 ] int 
  1565 ;;  width           2   14[BANK1 ] int 
  1566 ;;  flag            2   12[BANK1 ] unsigned short 
  1567 ;;  c               1   24[BANK1 ] char 
  1568 ;;  ap              1    4[BANK1 ] PTR void [1]
  1569 ;;		 -> ?_sprintf(2), 
  1570 ;;  d               1    0        unsigned char 
  1571 ;; Return value:  Size  Location     Type
  1572 ;;                  2   58[BANK0 ] int 
  1573 ;; Registers used:
  1574 ;;		wreg, fsr0l, fsr0h, status,2, status,0, btemp+1, pclath, cstack
  1575 ;; Tracked objects:
  1576 ;;		On entry : 160/0
  1577 ;;		On exit  : 160/20
  1578 ;;		Unchanged: FFE00/0
  1579 ;; Data sizes:     COMMON   BANK0   BANK1   BANK3   BANK2
  1580 ;;      Params:         0       4       0       0       0
  1581 ;;      Locals:         0       0      25       0       0
  1582 ;;      Temps:          0       5       0       0       0
  1583 ;;      Totals:         0       9      25       0       0
  1584 ;;Total ram usage:       34 bytes
  1585 ;; Hardware stack levels used:    1
  1586 ;; Hardware stack levels required when called:    4
  1587 ;; This function calls:
  1588 ;;		_isdigit
  1589 ;;		___wmul
  1590 ;;		___ftge
  1591 ;;		___ftneg
  1592 ;;		___awdiv
  1593 ;;		_scale
  1594 ;;		___ftmul
  1595 ;;		_fround
  1596 ;;		___ftadd
  1597 ;;		___fttol
  1598 ;;		__div_to_l_
  1599 ;;		__tdiv_to_l_
  1600 ;;		___lltoft
  1601 ;;		___ftsub
  1602 ;;		___lldiv
  1603 ;;		___llmod
  1604 ;; This function is called by:
  1605 ;;		_main
  1606 ;; This function uses a non-reentrant model
  1607 ;;
  1608  000F                     _sprintf:	
  1609                           
  1610                           ; Regs used in _sprintf: [wreg-fsr0h+status,2+status,0+btemp+1+pclath+cstack]
  1611                           ;sprintf@sp stored from wreg
  1612  000F  1683               	bsf	3,5	;RP0=1, select bank1
  1613  0010  00B2               	movwf	sprintf@sp^(0+128)
  1614  0011  305B               	movlw	(?_sprintf+1)& (0+255)
  1615  0012  00A4               	movwf	sprintf@ap^(0+128)
  1616  0013                     l6811:	
  1617  0013  1283               	bcf	3,5	;RP0=0, select bank0
  1618  0014  085A               	movf	sprintf@f,w
  1619  0015  0ADA               	incf	sprintf@f,f
  1620  0016  0084               	movwf	4
  1621  0017  120A  158A  2000   	fcall	stringdir
      +       120A  118A         
  1622  001C  1683               	bsf	3,5	;RP0=1, select bank1
  1623  001D  00B8               	movwf	sprintf@c^(0+128)
  1624  001E  08B8               	movf	sprintf@c^(0+128),f
  1625  001F  1903               	btfsc	3,2
  1626  0020  2C99               	goto	l6813
  1627  0021  0838               	movf	sprintf@c^(0+128),w
  1628  0022  3A25               	xorlw	37
  1629  0023  1903               	skipnz
  1630  0024  2829               	goto	l6569
  1631  0025  0832               	movf	sprintf@sp^(0+128),w
  1632  0026  0084               	movwf	4
  1633  0027  0838               	movf	sprintf@c^(0+128),w
  1634  0028  2C95               	goto	L4
  1635  0029                     l6569:	
  1636  0029  01AE               	clrf	sprintf@width^(0+128)
  1637  002A  01AF               	clrf	(sprintf@width+1)^(0+128)
  1638  002B  01AC               	clrf	sprintf@flag^(0+128)
  1639  002C  01AD               	clrf	(sprintf@flag+1)^(0+128)
  1640  002D  1283               	bcf	3,5	;RP0=0, select bank0
  1641  002E  085A               	movf	sprintf@f,w
  1642  002F  0084               	movwf	4
  1643  0030  120A  158A  2000   	fcall	stringdir
      +       120A  118A         
  1644  0035  24CA  120A  118A   	fcall	_isdigit
  1645  0038  1C03               	btfss	3,0
  1646  0039  2862               	goto	l6581
  1647  003A  1683               	bsf	3,5	;RP0=1, select bank1
  1648  003B  01AE               	clrf	sprintf@width^(0+128)
  1649  003C  01AF               	clrf	(sprintf@width+1)^(0+128)
  1650  003D                     l6575:	
  1651  003D  1683               	bsf	3,5	;RP0=1, select bank1
  1652  003E  082F               	movf	(sprintf@width+1)^(0+128),w
  1653  003F  00F3               	movwf	?___wmul+1
  1654  0040  082E               	movf	sprintf@width^(0+128),w
  1655  0041  00F2               	movwf	?___wmul
  1656  0042  300A               	movlw	10
  1657  0043  00F4               	movwf	?___wmul+2
  1658  0044  01F5               	clrf	?___wmul+3
  1659  0045  24D8               	fcall	___wmul
  1660  0046  1283               	bcf	3,5	;RP0=0, select bank0
  1661  0047  085A               	movf	sprintf@f,w
  1662  0048  0084               	movwf	4
  1663  0049  120A  158A  2000   	fcall	stringdir
      +       120A  118A         
  1664  004E  2758  120A  118A   	fcall	PL12	;call to abstracted procedure
  1665  0051  00AE               	movwf	sprintf@width^(0+128)
  1666  0052  27B7               	fcall	PL30	;call to abstracted procedure
  1667  0053  00AF               	movwf	(sprintf@width+1)^(0+128)
  1668  0054  1283               	bcf	3,5	;RP0=0, select bank0
  1669  0055  0ADA               	incf	sprintf@f,f
  1670  0056  085A               	movf	sprintf@f,w
  1671  0057  0084               	movwf	4
  1672  0058  120A  158A  2000   	fcall	stringdir
      +       120A  118A         
  1673  005D  24CA  120A  118A   	fcall	_isdigit
  1674  0060  1803               	btfsc	3,0
  1675  0061  283D               	goto	l6575
  1676  0062                     l6581:	
  1677  0062  085A               	movf	sprintf@f,w
  1678  0063  0084               	movwf	4
  1679  0064  120A  158A  2000   	fcall	stringdir
      +       120A  118A         
  1680  0069  3A2E               	xorlw	46
  1681  006A  1D03               	skipz
  1682  006B  289C               	goto	l6595
  1683  006C  1683               	bsf	3,5	;RP0=1, select bank1
  1684  006D  172D               	bsf	(sprintf@flag^(0+128)+1),6
  1685  006E  1283               	bcf	3,5	;RP0=0, select bank0
  1686  006F  0ADA               	incf	sprintf@f,f
  1687  0070  1683               	bsf	3,5	;RP0=1, select bank1
  1688  0071  01B6               	clrf	sprintf@prec^(0+128)
  1689  0072  01B7               	clrf	(sprintf@prec+1)^(0+128)
  1690  0073                     l6593:	
  1691  0073  1283               	bcf	3,5	;RP0=0, select bank0
  1692  0074  085A               	movf	sprintf@f,w
  1693  0075  0084               	movwf	4
  1694  0076  120A  158A  2000   	fcall	stringdir
      +       120A  118A         
  1695  007B  24CA  120A  118A   	fcall	_isdigit
  1696  007E  1C03               	btfss	3,0
  1697  007F  28A3               	goto	l6601
  1698  0080  1683               	bsf	3,5	;RP0=1, select bank1
  1699  0081  0837               	movf	(sprintf@prec+1)^(0+128),w
  1700  0082  00F3               	movwf	?___wmul+1
  1701  0083  0836               	movf	sprintf@prec^(0+128),w
  1702  0084  00F2               	movwf	?___wmul
  1703  0085  300A               	movlw	10
  1704  0086  00F4               	movwf	?___wmul+2
  1705  0087  01F5               	clrf	?___wmul+3
  1706  0088  24D8               	fcall	___wmul
  1707  0089  1283               	bcf	3,5	;RP0=0, select bank0
  1708  008A  085A               	movf	sprintf@f,w
  1709  008B  0084               	movwf	4
  1710  008C  120A  158A  2000   	fcall	stringdir
      +       120A  118A         
  1711  0091  2758  120A  118A   	fcall	PL12	;call to abstracted procedure
  1712  0094  00B6               	movwf	sprintf@prec^(0+128)
  1713  0095  27B7  120A  118A   	fcall	PL30	;call to abstracted procedure
  1714  0098  00B7               	movwf	(sprintf@prec+1)^(0+128)
  1715  0099  1283               	bcf	3,5	;RP0=0, select bank0
  1716  009A  0ADA               	incf	sprintf@f,f
  1717  009B  2873               	goto	l6593
  1718  009C                     l6595:	
  1719  009C  1683               	bsf	3,5	;RP0=1, select bank1
  1720  009D  01B6               	clrf	sprintf@prec^(0+128)
  1721  009E  01B7               	clrf	(sprintf@prec+1)^(0+128)
  1722  009F  162D               	bsf	(sprintf@flag^(0+128)+1),4
  1723  00A0  28A3               	goto	l6601
  1724  00A1                     l1122:	
  1725  00A1  152D               	bsf	(sprintf@flag^(0+128)+1),2
  1726  00A2  28B5               	goto	l6603
  1727  00A3                     l6601:	
  1728  00A3  1283               	bcf	3,5	;RP0=0, select bank0
  1729  00A4  085A               	movf	sprintf@f,w
  1730  00A5  0ADA               	incf	sprintf@f,f
  1731  00A6  0084               	movwf	4
  1732  00A7  120A  158A  2000   	fcall	stringdir
      +       120A  118A         
  1733  00AC  1683               	bsf	3,5	;RP0=1, select bank1
  1734  00AD  00B8               	movwf	sprintf@c^(0+128)
  1735                           
  1736                           ; Switch size 1, requested type "space"
  1737                           ; Number of cases is 2, Range of values is 0 to 102
  1738                           ; switch strategies available:
  1739                           ; Name         Instructions Cycles
  1740                           ; simple_byte            7     4 (average)
  1741                           ; jumptable            260     6 (fixed)
  1742                           ; rangetable           107     6 (fixed)
  1743                           ; spacedrange          212     9 (fixed)
  1744                           ; locatedrange         103     3 (fixed)
  1745                           ;	Chosen strategy is simple_byte
  1746  00AE  3A00               	xorlw	0	; case 0
  1747  00AF  1903               	skipnz
  1748  00B0  2C99               	goto	l6813
  1749  00B1  3A66               	xorlw	102	; case 102
  1750  00B2  1903               	skipnz
  1751  00B3  28A1               	goto	l1122
  1752  00B4  2813               	goto	l6811
  1753  00B5                     l6603:	
  1754  00B5  1283               	bcf	3,5	;RP0=0, select bank0
  1755  00B6  3007               	movlw	7
  1756  00B7  01DE               	clrf	??_sprintf
  1757  00B8  1683               	bsf	3,5	;RP0=1, select bank1
  1758  00B9  052D               	andwf	(sprintf@flag+1)^(0+128),w
  1759  00BA  1283               	bcf	3,5	;RP0=0, select bank0
  1760  00BB  00DF               	movwf	??_sprintf+1
  1761  00BC  045E               	iorwf	??_sprintf,w
  1762  00BD  1903               	skipnz
  1763  00BE  2BFA               	goto	l6763
  1764  00BF  1683               	bsf	3,5	;RP0=1, select bank1
  1765  00C0  1E2D               	btfss	(sprintf@flag+1)^(0+128),4
  1766  00C1  28C5               	goto	l6609
  1767  00C2  3006               	movlw	6
  1768  00C3  00B6               	movwf	sprintf@prec^(0+128)
  1769  00C4  01B7               	clrf	(sprintf@prec+1)^(0+128)
  1770  00C5                     l6609:	
  1771  00C5  0824               	movf	sprintf@ap^(0+128),w
  1772  00C6  0084               	movwf	4
  1773  00C7  1383               	bcf	3,7	;select IRP bank0
  1774  00C8  0800               	movf	0,w
  1775  00C9  00B3               	movwf	sprintf@fval^(0+128)
  1776  00CA  0A84               	incf	4,f
  1777  00CB  0800               	movf	0,w
  1778  00CC  00B4               	movwf	(sprintf@fval+1)^(0+128)
  1779  00CD  0A84               	incf	4,f
  1780  00CE  0800               	movf	0,w
  1781  00CF  00B5               	movwf	(sprintf@fval+2)^(0+128)
  1782  00D0  3003               	movlw	3
  1783  00D1  07A4               	addwf	sprintf@ap^(0+128),f
  1784  00D2  0833               	movf	sprintf@fval^(0+128),w
  1785  00D3  00F2               	movwf	?___ftge
  1786  00D4  0834               	movf	(sprintf@fval+1)^(0+128),w
  1787  00D5  00F3               	movwf	?___ftge+1
  1788  00D6  0835               	movf	(sprintf@fval+2)^(0+128),w
  1789  00D7  00F4               	movwf	?___ftge+2
  1790  00D8  01F5               	clrf	?___ftge+3
  1791  00D9  01F6               	clrf	?___ftge+4
  1792  00DA  01F7               	clrf	?___ftge+5
  1793  00DB  249E  120A  118A   	fcall	___ftge
  1794  00DE  1803               	btfsc	3,0
  1795  00DF  28F1               	goto	l6619
  1796  00E0  0833               	movf	sprintf@fval^(0+128),w
  1797  00E1  00F2               	movwf	?___ftneg
  1798  00E2  0834               	movf	(sprintf@fval+1)^(0+128),w
  1799  00E3  00F3               	movwf	?___ftneg+1
  1800  00E4  0835               	movf	(sprintf@fval+2)^(0+128),w
  1801  00E5  00F4               	movwf	?___ftneg+2
  1802  00E6  264B  120A  118A   	fcall	___ftneg
  1803  00E9  0872               	movf	?___ftneg,w
  1804  00EA  00B3               	movwf	sprintf@fval^(0+128)
  1805  00EB  0873               	movf	?___ftneg+1,w
  1806  00EC  00B4               	movwf	(sprintf@fval+1)^(0+128)
  1807  00ED  0874               	movf	?___ftneg+2,w
  1808  00EE  00B5               	movwf	(sprintf@fval+2)^(0+128)
  1809  00EF  3003               	movlw	3
  1810  00F0  04AC               	iorwf	sprintf@flag^(0+128),f
  1811  00F1                     l6619:	
  1812  00F1  01B0               	clrf	sprintf@exp^(0+128)
  1813  00F2  01B1               	clrf	(sprintf@exp+1)^(0+128)
  1814  00F3  0835               	movf	(sprintf@fval+2)^(0+128),w
  1815  00F4  0434               	iorwf	(sprintf@fval+1)^(0+128),w
  1816  00F5  0433               	iorwf	sprintf@fval^(0+128),w
  1817  00F6  1903               	skipnz
  1818  00F7  2992               	goto	l6651
  1819  00F8  30B3               	movlw	low sprintf@fval
  1820  00F9  0084               	movwf	4
  1821  00FA  0800               	movf	0,w
  1822  00FB  1283               	bcf	3,5	;RP0=0, select bank0
  1823  00FC  00DE               	movwf	??_sprintf
  1824  00FD  0A84               	incf	4,f
  1825  00FE  0800               	movf	0,w
  1826  00FF  00DF               	movwf	??_sprintf+1
  1827  0100  0A84               	incf	4,f
  1828  0101  0800               	movf	0,w
  1829  0102  00E0               	movwf	??_sprintf+2
  1830  0103  0A84               	incf	4,f
  1831  0104  0800               	movf	0,w
  1832  0105  00E1               	movwf	??_sprintf+3
  1833  0106  300F               	movlw	15
  1834  0107                     u4475:	
  1835  0107  1003               	clrc
  1836  0108  0CE1               	rrf	??_sprintf+3,f
  1837  0109  0CE0               	rrf	??_sprintf+2,f
  1838  010A  0CDF               	rrf	??_sprintf+1,f
  1839  010B  0CDE               	rrf	??_sprintf,f
  1840  010C  3EFF               	addlw	-1
  1841  010D  1D03               	skipz
  1842  010E  2907               	goto	u4475
  1843  010F  085F               	movf	??_sprintf+1,w
  1844  0110  1683               	bsf	3,5	;RP0=1, select bank1
  1845  0111  00B1               	movwf	(sprintf@exp+1)^(0+128)
  1846  0112  1283               	bcf	3,5	;RP0=0, select bank0
  1847  0113  085E               	movf	??_sprintf,w
  1848  0114  1683               	bsf	3,5	;RP0=1, select bank1
  1849  0115  00B0               	movwf	sprintf@exp^(0+128)
  1850  0116  3082               	movlw	-126
  1851  0117  01B1               	clrf	(sprintf@exp+1)^(0+128)
  1852  0118  07B0               	addwf	sprintf@exp^(0+128),f
  1853  0119  1C03               	skipc
  1854  011A  03B1               	decf	(sprintf@exp+1)^(0+128),f
  1855  011B  30FF               	movlw	-1
  1856  011C  07B0               	addwf	sprintf@exp^(0+128),f
  1857  011D  1C03               	skipc
  1858  011E  03B1               	decf	(sprintf@exp+1)^(0+128),f
  1859  011F  3003               	movlw	3
  1860  0120  00F2               	movwf	?___wmul
  1861  0121  01F3               	clrf	?___wmul+1
  1862  0122  0831               	movf	(sprintf@exp+1)^(0+128),w
  1863  0123  00F5               	movwf	?___wmul+3
  1864  0124  0830               	movf	sprintf@exp^(0+128),w
  1865  0125  00F4               	movwf	?___wmul+2
  1866  0126  24D8               	fcall	___wmul
  1867  0127  0873               	movf	?___wmul+1,w
  1868  0128  00B1               	movwf	(sprintf@exp+1)^(0+128)
  1869  0129  0872               	movf	?___wmul,w
  1870  012A  00B0               	movwf	sprintf@exp^(0+128)
  1871  012B  300A               	movlw	10
  1872  012C  1283               	bcf	3,5	;RP0=0, select bank0
  1873  012D  00A0               	movwf	?___awdiv
  1874  012E  01A1               	clrf	?___awdiv+1
  1875  012F  1683               	bsf	3,5	;RP0=1, select bank1
  1876  0130  0831               	movf	(sprintf@exp+1)^(0+128),w
  1877  0131  1283               	bcf	3,5	;RP0=0, select bank0
  1878  0132  00A3               	movwf	?___awdiv+3
  1879  0133  1683               	bsf	3,5	;RP0=1, select bank1
  1880  0134  0830               	movf	sprintf@exp^(0+128),w
  1881  0135  1283               	bcf	3,5	;RP0=0, select bank0
  1882  0136  00A2               	movwf	?___awdiv+2
  1883  0137  120A  158A  266A   	fcall	___awdiv
      +       120A  118A         
  1884  013C  0821               	movf	?___awdiv+1,w
  1885  013D  1683               	bsf	3,5	;RP0=1, select bank1
  1886  013E  00B1               	movwf	(sprintf@exp+1)^(0+128)
  1887  013F  1283               	bcf	3,5	;RP0=0, select bank0
  1888  0140  0820               	movf	?___awdiv,w
  1889  0141  1683               	bsf	3,5	;RP0=1, select bank1
  1890  0142  00B0               	movwf	sprintf@exp^(0+128)
  1891  0143  1FB1               	btfss	(sprintf@exp+1)^(0+128),7
  1892  0144  2949               	goto	l6639
  1893  0145  30FF               	movlw	-1
  1894  0146  07B0               	addwf	sprintf@exp^(0+128),f
  1895  0147  1C03               	skipc
  1896  0148  03B1               	decf	(sprintf@exp+1)^(0+128),f
  1897  0149                     l6639:	
  1898  0149  0330               	decf	sprintf@exp^(0+128),w
  1899  014A  3AFF               	xorlw	255
  1900  014B  120A  158A  24D8   	fcall	_scale
      +       120A  118A         
  1901  0150  274B  120A  118A   	fcall	PL10	;call to abstracted procedure
  1902  0153  276E               	fcall	PL14	;call to abstracted procedure
  1903  0154  1683               	bsf	3,5	;RP0=1, select bank1
  1904  0155  0825               	movf	sprintf@integ^(0+128),w
  1905  0156  1283               	bcf	3,5	;RP0=0, select bank0
  1906  0157  00B8               	movwf	?___ftmul+3
  1907  0158  1683               	bsf	3,5	;RP0=1, select bank1
  1908  0159  0826               	movf	(sprintf@integ+1)^(0+128),w
  1909  015A  1283               	bcf	3,5	;RP0=0, select bank0
  1910  015B  00B9               	movwf	?___ftmul+4
  1911  015C  1683               	bsf	3,5	;RP0=1, select bank1
  1912  015D  0827               	movf	(sprintf@integ+2)^(0+128),w
  1913  015E  1283               	bcf	3,5	;RP0=0, select bank0
  1914  015F  00BA               	movwf	?___ftmul+5
  1915  0160  120A  158A  26EC   	fcall	___ftmul
      +       120A  118A         
  1916  0165  0835               	movf	?___ftmul,w
  1917  0166  1683               	bsf	3,5	;RP0=1, select bank1
  1918  0167  00A5               	movwf	sprintf@integ^(0+128)
  1919  0168  1283               	bcf	3,5	;RP0=0, select bank0
  1920  0169  0836               	movf	?___ftmul+1,w
  1921  016A  1683               	bsf	3,5	;RP0=1, select bank1
  1922  016B  00A6               	movwf	(sprintf@integ+1)^(0+128)
  1923  016C  1283               	bcf	3,5	;RP0=0, select bank0
  1924  016D  0837               	movf	?___ftmul+2,w
  1925  016E  1683               	bsf	3,5	;RP0=1, select bank1
  1926  016F  00A7               	movwf	(sprintf@integ+2)^(0+128)
  1927  0170  27A9  120A  118A   	fcall	PL22	;call to abstracted procedure
  1928  0173  3080               	movlw	128
  1929  0174  01F5               	clrf	?___ftge+3
  1930  0175  00F6               	movwf	?___ftge+4
  1931  0176  303F               	movlw	63
  1932  0177  00F7               	movwf	?___ftge+5
  1933  0178  249E  120A  118A   	fcall	___ftge
  1934  017B  1803               	btfsc	3,0
  1935  017C  2982               	goto	l6647
  1936  017D  30FF               	movlw	-1
  1937  017E  07B0               	addwf	sprintf@exp^(0+128),f
  1938  017F  1C03               	skipc
  1939  0180  03B1               	decf	(sprintf@exp+1)^(0+128),f
  1940  0181  2992               	goto	l6651
  1941  0182                     l6647:	
  1942  0182  27A9  120A  118A   	fcall	PL22	;call to abstracted procedure
  1943  0185  3020               	movlw	32
  1944  0186  01F5               	clrf	?___ftge+3
  1945  0187  00F6               	movwf	?___ftge+4
  1946  0188  3041               	movlw	65
  1947  0189  00F7               	movwf	?___ftge+5
  1948  018A  249E  120A  118A   	fcall	___ftge
  1949  018D  1C03               	btfss	3,0
  1950  018E  2992               	goto	l6651
  1951  018F  0AB0               	incf	sprintf@exp^(0+128),f
  1952  0190  1903               	skipnz
  1953  0191  0AB1               	incf	(sprintf@exp+1)^(0+128),f
  1954  0192                     l6651:	
  1955  0192  0837               	movf	(sprintf@prec+1)^(0+128),w
  1956  0193  3A80               	xorlw	128
  1957  0194  00FF               	movwf	127
  1958  0195  3080               	movlw	128
  1959  0196  027F               	subwf	127,w
  1960  0197  1D03               	skipz
  1961  0198  299B               	goto	u4515
  1962  0199  300D               	movlw	13
  1963  019A  0236               	subwf	sprintf@prec^(0+128),w
  1964  019B                     u4515:	
  1965  019B  1803               	skipnc
  1966  019C  29C4               	goto	l6655
  1967  019D  27C5               	call	PL32	;select bank 1
  1968  019E  0836               	movf	sprintf@prec^(0+128),w
  1969  019F  120A  158A  22E5   	fcall	_fround
      +       120A  118A         
  1970  01A4  0850               	movf	?_fround,w
  1971  01A5  00C4               	movwf	?___ftadd
  1972  01A6  0851               	movf	?_fround+1,w
  1973  01A7  00C5               	movwf	?___ftadd+1
  1974  01A8  0852               	movf	?_fround+2,w
  1975  01A9  00C6               	movwf	?___ftadd+2
  1976  01AA  1683               	bsf	3,5	;RP0=1, select bank1
  1977  01AB  0833               	movf	sprintf@fval^(0+128),w
  1978  01AC  1283               	bcf	3,5	;RP0=0, select bank0
  1979  01AD  00C7               	movwf	?___ftadd+3
  1980  01AE  1683               	bsf	3,5	;RP0=1, select bank1
  1981  01AF  0834               	movf	(sprintf@fval+1)^(0+128),w
  1982  01B0  1283               	bcf	3,5	;RP0=0, select bank0
  1983  01B1  00C8               	movwf	?___ftadd+4
  1984  01B2  1683               	bsf	3,5	;RP0=1, select bank1
  1985  01B3  0835               	movf	(sprintf@fval+2)^(0+128),w
  1986  01B4  1283               	bcf	3,5	;RP0=0, select bank0
  1987  01B5  00C9               	movwf	?___ftadd+5
  1988  01B6  2653  120A  118A   	fcall	___ftadd
  1989  01B9  0844               	movf	?___ftadd,w
  1990  01BA  1683               	bsf	3,5	;RP0=1, select bank1
  1991  01BB  00B3               	movwf	sprintf@fval^(0+128)
  1992  01BC  1283               	bcf	3,5	;RP0=0, select bank0
  1993  01BD  0845               	movf	?___ftadd+1,w
  1994  01BE  1683               	bsf	3,5	;RP0=1, select bank1
  1995  01BF  00B4               	movwf	(sprintf@fval+1)^(0+128)
  1996  01C0  1283               	bcf	3,5	;RP0=0, select bank0
  1997  01C1  0846               	movf	?___ftadd+2,w
  1998  01C2  1683               	bsf	3,5	;RP0=1, select bank1
  1999  01C3  00B5               	movwf	(sprintf@fval+2)^(0+128)
  2000  01C4                     l6655:	
  2001  01C4  27C5               	call	PL32	;select bank 1
  2002  01C5  0831               	movf	(sprintf@exp+1)^(0+128),w
  2003  01C6  3A80               	xorlw	128
  2004  01C7  00FF               	movwf	127
  2005  01C8  3080               	movlw	128
  2006  01C9  027F               	subwf	127,w
  2007  01CA  1D03               	skipz
  2008  01CB  29CE               	goto	u4525
  2009  01CC  300A               	movlw	10
  2010  01CD  0230               	subwf	sprintf@exp^(0+128),w
  2011  01CE                     u4525:	
  2012  01CE  1803               	skipnc
  2013  01CF  29EF               	goto	l6663
  2014  01D0  27C5               	call	PL32	;select bank 1
  2015  01D1  0835               	movf	(sprintf@fval+2)^(0+128),w
  2016  01D2  0434               	iorwf	(sprintf@fval+1)^(0+128),w
  2017  01D3  0433               	iorwf	sprintf@fval^(0+128),w
  2018  01D4  1903               	skipnz
  2019  01D5  2A30               	goto	l6679
  2020  01D6  0833               	movf	sprintf@fval^(0+128),w
  2021  01D7  2763  120A  118A   	fcall	PL13	;call to abstracted procedure
  2022  01DA  24F1  120A  118A   	fcall	___fttol
  2023  01DD  082B               	movf	?___fttol+3,w
  2024  01DE  042A               	iorwf	?___fttol+2,w
  2025  01DF  0429               	iorwf	?___fttol+1,w
  2026  01E0  0428               	iorwf	?___fttol,w
  2027  01E1  1D03               	skipz
  2028  01E2  2A30               	goto	l6679
  2029  01E3  1683               	bsf	3,5	;RP0=1, select bank1
  2030  01E4  0831               	movf	(sprintf@exp+1)^(0+128),w
  2031  01E5  3A80               	xorlw	128
  2032  01E6  00FF               	movwf	127
  2033  01E7  3080               	movlw	128
  2034  01E8  027F               	subwf	127,w
  2035  01E9  1D03               	skipz
  2036  01EA  29ED               	goto	u4555
  2037  01EB  3002               	movlw	2
  2038  01EC  0230               	subwf	sprintf@exp^(0+128),w
  2039  01ED                     u4555:	
  2040  01ED  1C03               	skipc
  2041  01EE  2A30               	goto	l6679
  2042  01EF                     l6663:	
  2043  01EF  27C5               	call	PL32	;select bank 1
  2044  01F0  27A9  120A  118A   	fcall	PL22	;call to abstracted procedure
  2045  01F3  3070               	movlw	112
  2046  01F4  00F5               	movwf	?___ftge+3
  2047  01F5  3089               	movlw	137
  2048  01F6  00F6               	movwf	?___ftge+4
  2049  01F7  3040               	movlw	64
  2050  01F8  00F7               	movwf	?___ftge+5
  2051  01F9  249E  120A  118A   	fcall	___ftge
  2052  01FC  1803               	btfsc	3,0
  2053  01FD  2A00               	goto	l6667
  2054  01FE  30F7               	movlw	-9
  2055  01FF  2A01               	goto	L1
  2056  0200                     l6667:	
  2057  0200  30F8               	movlw	-8
  2058  0201                     L1:	
  2059  0201  07B0               	addwf	sprintf@exp^(0+128),f
  2060  0202  1C03               	skipc
  2061  0203  03B1               	decf	(sprintf@exp+1)^(0+128),f
  2062  0204  0830               	movf	sprintf@exp^(0+128),w
  2063  0205  120A  158A  24D8   	fcall	_scale
      +       120A  118A         
  2064  020A  274B  120A  118A   	fcall	PL10	;call to abstracted procedure
  2065  020D  00F2               	movwf	?__tdiv_to_l_
  2066  020E  0834               	movf	(sprintf@fval+1)^(0+128),w
  2067  020F  00F3               	movwf	?__tdiv_to_l_+1
  2068  0210  0835               	movf	(sprintf@fval+2)^(0+128),w
  2069  0211  00F4               	movwf	?__tdiv_to_l_+2
  2070  0212  0825               	movf	sprintf@integ^(0+128),w
  2071  0213  00F5               	movwf	?__tdiv_to_l_+3
  2072  0214  0826               	movf	(sprintf@integ+1)^(0+128),w
  2073  0215  00F6               	movwf	?__tdiv_to_l_+4
  2074  0216  0827               	movf	(sprintf@integ+2)^(0+128),w
  2075  0217  00F7               	movwf	?__tdiv_to_l_+5
  2076  0218  25D3  120A  118A   	fcall	__tdiv_to_l_
  2077  021B  0875               	movf	?__tdiv_to_l_+3,w
  2078  021C  1683               	bsf	3,5	;RP0=1, select bank1
  2079  021D  00A3               	movwf	(_sprintf$1873+3)^(0+128)
  2080  021E  0874               	movf	?__tdiv_to_l_+2,w
  2081  021F  00A2               	movwf	(_sprintf$1873+2)^(0+128)
  2082  0220  0873               	movf	?__tdiv_to_l_+1,w
  2083  0221  00A1               	movwf	(_sprintf$1873+1)^(0+128)
  2084  0222  0872               	movf	?__tdiv_to_l_,w
  2085  0223  00A0               	movwf	_sprintf$1873^(0+128)
  2086  0224  0823               	movf	(_sprintf$1873+3)^(0+128),w
  2087  0225  00AB               	movwf	(sprintf@_val+3)^(0+128)
  2088  0226  0822               	movf	(_sprintf$1873+2)^(0+128),w
  2089  0227  00AA               	movwf	(sprintf@_val+2)^(0+128)
  2090  0228  0821               	movf	(_sprintf$1873+1)^(0+128),w
  2091  0229  00A9               	movwf	(sprintf@_val+1)^(0+128)
  2092  022A  0820               	movf	_sprintf$1873^(0+128),w
  2093  022B  00A8               	movwf	sprintf@_val^(0+128)
  2094  022C  01B3               	clrf	sprintf@fval^(0+128)
  2095  022D  01B4               	clrf	(sprintf@fval+1)^(0+128)
  2096  022E  01B5               	clrf	(sprintf@fval+2)^(0+128)
  2097  022F  2A71               	goto	l6683
  2098  0230                     l6679:	
  2099  0230  27C5               	call	PL32	;select bank 1
  2100  0231  0833               	movf	sprintf@fval^(0+128),w
  2101  0232  2763  120A  118A   	fcall	PL13	;call to abstracted procedure
  2102  0235  24F1  120A  118A   	fcall	___fttol
  2103  0238  273D               	fcall	PL5	;call to abstracted procedure
  2104  0239  1683               	bsf	3,5	;RP0=1, select bank1
  2105  023A  00A8               	movwf	sprintf@_val^(0+128)
  2106  023B  082B               	movf	(sprintf@_val+3)^(0+128),w
  2107  023C  1283               	bcf	3,5	;RP0=0, select bank0
  2108  023D  00A3               	movwf	?___lltoft+3
  2109  023E  1683               	bsf	3,5	;RP0=1, select bank1
  2110  023F  082A               	movf	(sprintf@_val+2)^(0+128),w
  2111  0240  1283               	bcf	3,5	;RP0=0, select bank0
  2112  0241  00A2               	movwf	?___lltoft+2
  2113  0242  1683               	bsf	3,5	;RP0=1, select bank1
  2114  0243  0829               	movf	(sprintf@_val+1)^(0+128),w
  2115  0244  1283               	bcf	3,5	;RP0=0, select bank0
  2116  0245  00A1               	movwf	?___lltoft+1
  2117  0246  1683               	bsf	3,5	;RP0=1, select bank1
  2118  0247  0828               	movf	sprintf@_val^(0+128),w
  2119  0248  1283               	bcf	3,5	;RP0=0, select bank0
  2120  0249  00A0               	movwf	?___lltoft
  2121  024A  120A  158A  2452   	fcall	___lltoft
      +       120A  118A         
  2122  024F  0820               	movf	?___lltoft,w
  2123  0250  00D0               	movwf	?___ftsub
  2124  0251  0821               	movf	?___lltoft+1,w
  2125  0252  00D1               	movwf	?___ftsub+1
  2126  0253  0822               	movf	?___lltoft+2,w
  2127  0254  00D2               	movwf	?___ftsub+2
  2128  0255  1683               	bsf	3,5	;RP0=1, select bank1
  2129  0256  0833               	movf	sprintf@fval^(0+128),w
  2130  0257  1283               	bcf	3,5	;RP0=0, select bank0
  2131  0258  00D3               	movwf	?___ftsub+3
  2132  0259  1683               	bsf	3,5	;RP0=1, select bank1
  2133  025A  0834               	movf	(sprintf@fval+1)^(0+128),w
  2134  025B  1283               	bcf	3,5	;RP0=0, select bank0
  2135  025C  00D4               	movwf	?___ftsub+4
  2136  025D  1683               	bsf	3,5	;RP0=1, select bank1
  2137  025E  0835               	movf	(sprintf@fval+2)^(0+128),w
  2138  025F  1283               	bcf	3,5	;RP0=0, select bank0
  2139  0260  00D5               	movwf	?___ftsub+5
  2140  0261  2715  120A  118A   	fcall	___ftsub
  2141  0264  0850               	movf	?___ftsub,w
  2142  0265  1683               	bsf	3,5	;RP0=1, select bank1
  2143  0266  00B3               	movwf	sprintf@fval^(0+128)
  2144  0267  1283               	bcf	3,5	;RP0=0, select bank0
  2145  0268  0851               	movf	?___ftsub+1,w
  2146  0269  1683               	bsf	3,5	;RP0=1, select bank1
  2147  026A  00B4               	movwf	(sprintf@fval+1)^(0+128)
  2148  026B  1283               	bcf	3,5	;RP0=0, select bank0
  2149  026C  0852               	movf	?___ftsub+2,w
  2150  026D  1683               	bsf	3,5	;RP0=1, select bank1
  2151  026E  00B5               	movwf	(sprintf@fval+2)^(0+128)
  2152  026F  01B0               	clrf	sprintf@exp^(0+128)
  2153  0270  01B1               	clrf	(sprintf@exp+1)^(0+128)
  2154  0271                     l6683:	
  2155  0271  01B8               	clrf	sprintf@c^(0+128)
  2156  0272  0AB8               	incf	sprintf@c^(0+128),f
  2157  0273                     l6689:	
  2158  0273  272B               	fcall	PL3	;call to abstracted procedure
  2159  0274  120A  158A  2000   	fcall	stringdir
      +       120A  118A         
  2160  0279  00DF               	movwf	??_sprintf+1
  2161  027A  120A  158A  2000   	fcall	stringdir
      +       120A  118A         
  2162  027F  00E0               	movwf	??_sprintf+2
  2163  0280  120A  158A  2000   	fcall	stringdir
      +       120A  118A         
  2164  0285  00E1               	movwf	??_sprintf+3
  2165  0286  120A  158A  2000   	fcall	stringdir
      +       120A  118A         
  2166  028B  00E2               	movwf	??_sprintf+4
  2167  028C  1683               	bsf	3,5	;RP0=1, select bank1
  2168  028D  022B               	subwf	(sprintf@_val+3)^(0+128),w
  2169  028E  1D03               	skipz
  2170  028F  2AA0               	goto	u4575
  2171  0290  1283               	bcf	3,5	;RP0=0, select bank0
  2172  0291  0861               	movf	??_sprintf+3,w
  2173  0292  1683               	bsf	3,5	;RP0=1, select bank1
  2174  0293  022A               	subwf	(sprintf@_val+2)^(0+128),w
  2175  0294  1D03               	skipz
  2176  0295  2AA0               	goto	u4575
  2177  0296  1283               	bcf	3,5	;RP0=0, select bank0
  2178  0297  0860               	movf	??_sprintf+2,w
  2179  0298  1683               	bsf	3,5	;RP0=1, select bank1
  2180  0299  0229               	subwf	(sprintf@_val+1)^(0+128),w
  2181  029A  1D03               	skipz
  2182  029B  2AA0               	goto	u4575
  2183  029C  1283               	bcf	3,5	;RP0=0, select bank0
  2184  029D  085F               	movf	??_sprintf+1,w
  2185  029E  1683               	bsf	3,5	;RP0=1, select bank1
  2186  029F  0228               	subwf	sprintf@_val^(0+128),w
  2187  02A0                     u4575:	
  2188  02A0  1C03               	btfss	3,0
  2189  02A1  2AA7               	goto	l6697
  2190  02A2  0AB8               	incf	sprintf@c^(0+128),f
  2191  02A3  0838               	movf	sprintf@c^(0+128),w
  2192  02A4  3A0A               	xorlw	10
  2193  02A5  1D03               	skipz
  2194  02A6  2A73               	goto	l6689
  2195  02A7                     l6697:	
  2196  02A7  0836               	movf	sprintf@prec^(0+128),w
  2197  02A8  0738               	addwf	sprintf@c^(0+128),w
  2198  02A9  1283               	bcf	3,5	;RP0=0, select bank0
  2199  02AA  00DE               	movwf	??_sprintf
  2200  02AB  1683               	bsf	3,5	;RP0=1, select bank1
  2201  02AC  0837               	movf	(sprintf@prec+1)^(0+128),w
  2202  02AD  1803               	skipnc
  2203  02AE  0A37               	incf	(sprintf@prec+1)^(0+128),w
  2204  02AF  1BB8               	btfsc	sprintf@c^(0+128),7
  2205  02B0  3EFF               	addlw	255
  2206  02B1  1283               	bcf	3,5	;RP0=0, select bank0
  2207  02B2  00DF               	movwf	??_sprintf+1
  2208  02B3  1683               	bsf	3,5	;RP0=1, select bank1
  2209  02B4  0830               	movf	sprintf@exp^(0+128),w
  2210  02B5  1283               	bcf	3,5	;RP0=0, select bank0
  2211  02B6  075E               	addwf	??_sprintf,w
  2212  02B7  00E0               	movwf	??_sprintf+2
  2213  02B8  1683               	bsf	3,5	;RP0=1, select bank1
  2214  02B9  0831               	movf	(sprintf@exp+1)^(0+128),w
  2215  02BA  1803               	skipnc
  2216  02BB  0A31               	incf	(sprintf@exp+1)^(0+128),w
  2217  02BC  1283               	bcf	3,5	;RP0=0, select bank0
  2218  02BD  075F               	addwf	??_sprintf+1,w
  2219  02BE  00E1               	movwf	??_sprintf+3
  2220  02BF  0860               	movf	??_sprintf+2,w
  2221  02C0  1683               	bsf	3,5	;RP0=1, select bank1
  2222  02C1  02AE               	subwf	sprintf@width^(0+128),f
  2223  02C2  1283               	bcf	3,5	;RP0=0, select bank0
  2224  02C3  0861               	movf	??_sprintf+3,w
  2225  02C4  1683               	bsf	3,5	;RP0=1, select bank1
  2226  02C5  1C03               	skipc
  2227  02C6  03AF               	decf	(sprintf@width+1)^(0+128),f
  2228  02C7  02AF               	subwf	(sprintf@width+1)^(0+128),f
  2229  02C8  0837               	movf	(sprintf@prec+1)^(0+128),w
  2230  02C9  0436               	iorwf	sprintf@prec^(0+128),w
  2231  02CA  1903               	skipnz
  2232  02CB  2AD0               	goto	l6703
  2233  02CC  30FF               	movlw	-1
  2234  02CD  07AE               	addwf	sprintf@width^(0+128),f
  2235  02CE  1C03               	skipc
  2236  02CF  03AF               	decf	(sprintf@width+1)^(0+128),f
  2237  02D0                     l6703:	
  2238  02D0  082C               	movf	sprintf@flag^(0+128),w
  2239  02D1  3903               	andlw	3
  2240  02D2  1D03               	btfss	3,2
  2241  02D3  2AE6               	goto	l6705
  2242  02D4                     l6713:	
  2243  02D4  082F               	movf	(sprintf@width+1)^(0+128),w
  2244  02D5  3A80               	xorlw	128
  2245  02D6  00FF               	movwf	127
  2246  02D7  3080               	movlw	128
  2247  02D8  027F               	subwf	127,w
  2248  02D9  1D03               	skipz
  2249  02DA  2ADD               	goto	u4615
  2250  02DB  3001               	movlw	1
  2251  02DC  022E               	subwf	sprintf@width^(0+128),w
  2252  02DD                     u4615:	
  2253  02DD  1C03               	btfss	3,0
  2254  02DE  2AEB               	goto	l6715
  2255  02DF  27C5               	call	PL32	;select bank 1
  2256  02E0  0832               	movf	sprintf@sp^(0+128),w
  2257  02E1  0084               	movwf	4
  2258  02E2  3020               	movlw	32
  2259  02E3  1383               	bcf	3,7	;select IRP bank0
  2260  02E4  0080               	movwf	0
  2261  02E5  0AB2               	incf	sprintf@sp^(0+128),f
  2262  02E6                     l6705:	
  2263  02E6  30FF               	movlw	-1
  2264  02E7  07AE               	addwf	sprintf@width^(0+128),f
  2265  02E8  1C03               	skipc
  2266  02E9  03AF               	decf	(sprintf@width+1)^(0+128),f
  2267  02EA  2AD4               	goto	l6713
  2268  02EB                     l6715:	
  2269  02EB  27C5               	call	PL32	;select bank 1
  2270  02EC  082C               	movf	sprintf@flag^(0+128),w
  2271  02ED  3903               	andlw	3
  2272  02EE  1903               	btfsc	3,2
  2273  02EF  2B22               	goto	l6725
  2274  02F0  0832               	movf	sprintf@sp^(0+128),w
  2275  02F1  0084               	movwf	4
  2276  02F2  302D               	movlw	45
  2277  02F3  2B1E               	goto	L5
  2278  02F4                     l6721:	
  2279  02F4  2735  120A  118A   	fcall	PL4	;call to abstracted procedure
  2280  02F7  272B               	fcall	PL3	;call to abstracted procedure
  2281  02F8  120A  158A  2000   	fcall	stringdir
      +       120A  118A         
  2282  02FD  00F2               	movwf	?___lldiv
  2283  02FE  120A  158A  2000   	fcall	stringdir
      +       120A  118A         
  2284  0303  00F3               	movwf	?___lldiv+1
  2285  0304  120A  158A  2000   	fcall	stringdir
      +       120A  118A         
  2286  0309  00F4               	movwf	?___lldiv+2
  2287  030A  120A  158A  2000   	fcall	stringdir
      +       120A  118A         
  2288  030F  2779  120A  118A   	fcall	PL15	;call to abstracted procedure
  2289  0312  258A  120A  118A   	fcall	___lldiv
  2290  0315  278E  120A  118A   	fcall	PL19	;call to abstracted procedure
  2291  0318  254C  120A  118A   	fcall	___llmod
  2292  031B  2797  120A  118A   	fcall	PL20	;call to abstracted procedure
  2293  031E                     L5:	
  2294  031E  1383               	bcf	3,7	;select IRP bank0
  2295  031F  0080               	movwf	0
  2296  0320  1683               	bsf	3,5	;RP0=1, select bank1
  2297  0321  0AB2               	incf	sprintf@sp^(0+128),f
  2298  0322                     l6725:	
  2299  0322  03B8               	decf	sprintf@c^(0+128),f
  2300  0323  0F38               	incfsz	sprintf@c^(0+128),w
  2301  0324  2AF4               	goto	l6721
  2302  0325                     l6733:	
  2303  0325  0831               	movf	(sprintf@exp+1)^(0+128),w
  2304  0326  3A80               	xorlw	128
  2305  0327  00FF               	movwf	127
  2306  0328  3080               	movlw	128
  2307  0329  027F               	subwf	127,w
  2308  032A  1D03               	skipz
  2309  032B  2B2E               	goto	u4645
  2310  032C  3001               	movlw	1
  2311  032D  0230               	subwf	sprintf@exp^(0+128),w
  2312  032E                     u4645:	
  2313  032E  1C03               	btfss	3,0
  2314  032F  2B39               	goto	l6735
  2315  0330  27C5               	call	PL32	;select bank 1
  2316  0331  0832               	movf	sprintf@sp^(0+128),w
  2317  0332  27B0  120A  118A   	fcall	PL28	;call to abstracted procedure
  2318  0335  07B0               	addwf	sprintf@exp^(0+128),f
  2319  0336  1C03               	skipc
  2320  0337  03B1               	decf	(sprintf@exp+1)^(0+128),f
  2321  0338  2B25               	goto	l6733
  2322  0339                     l6735:	
  2323  0339  27C5               	call	PL32	;select bank 1
  2324  033A  0837               	movf	(sprintf@prec+1)^(0+128),w
  2325  033B  3A80               	xorlw	128
  2326  033C  00FF               	movwf	127
  2327  033D  3080               	movlw	128
  2328  033E  027F               	subwf	127,w
  2329  033F  1D03               	skipz
  2330  0340  2B43               	goto	u4655
  2331  0341  3009               	movlw	9
  2332  0342  0236               	subwf	sprintf@prec^(0+128),w
  2333  0343                     u4655:	
  2334  0343  1C03               	skipc
  2335  0344  2B48               	goto	l6739
  2336  0345  3008               	movlw	8
  2337  0346  27C5               	call	PL32	;select bank 1
  2338  0347  2B4A               	goto	L2
  2339  0348                     l6739:	
  2340  0348  27C5               	call	PL32	;select bank 1
  2341  0349  0836               	movf	sprintf@prec^(0+128),w
  2342  034A                     L2:	
  2343  034A  00B8               	movwf	sprintf@c^(0+128)
  2344  034B  1283               	bcf	3,5	;RP0=0, select bank0
  2345  034C  00DE               	movwf	??_sprintf
  2346  034D  01DF               	clrf	??_sprintf+1
  2347  034E  1BDE               	btfsc	??_sprintf,7
  2348  034F  03DF               	decf	??_sprintf+1,f
  2349  0350  1683               	bsf	3,5	;RP0=1, select bank1
  2350  0351  02B6               	subwf	sprintf@prec^(0+128),f
  2351  0352  1283               	bcf	3,5	;RP0=0, select bank0
  2352  0353  085F               	movf	??_sprintf+1,w
  2353  0354  1683               	bsf	3,5	;RP0=1, select bank1
  2354  0355  1C03               	skipc
  2355  0356  03B7               	decf	(sprintf@prec+1)^(0+128),f
  2356  0357  02B7               	subwf	(sprintf@prec+1)^(0+128),f
  2357  0358  0838               	movf	sprintf@c^(0+128),w
  2358  0359  1903               	btfsc	3,2
  2359  035A  2B61               	goto	l6745
  2360  035B  0832               	movf	sprintf@sp^(0+128),w
  2361  035C  0084               	movwf	4
  2362  035D  302E               	movlw	46
  2363  035E  1383               	bcf	3,7	;select IRP bank0
  2364  035F  0080               	movwf	0
  2365  0360  0AB2               	incf	sprintf@sp^(0+128),f
  2366  0361                     l6745:	
  2367  0361  0838               	movf	sprintf@c^(0+128),w
  2368  0362  120A  158A  24D8   	fcall	_scale
      +       120A  118A         
  2369  0367  0844               	movf	?_scale,w
  2370  0368  00B8               	movwf	?___ftmul+3
  2371  0369  0845               	movf	?_scale+1,w
  2372  036A  00B9               	movwf	?___ftmul+4
  2373  036B  0846               	movf	?_scale+2,w
  2374  036C  00BA               	movwf	?___ftmul+5
  2375  036D  1683               	bsf	3,5	;RP0=1, select bank1
  2376  036E  0833               	movf	sprintf@fval^(0+128),w
  2377  036F  276E               	fcall	PL14	;call to abstracted procedure
  2378  0370  120A  158A  26EC   	fcall	___ftmul
      +       120A  118A         
  2379  0375  0835               	movf	?___ftmul,w
  2380  0376  00A8               	movwf	?___fttol
  2381  0377  0836               	movf	?___ftmul+1,w
  2382  0378  00A9               	movwf	?___fttol+1
  2383  0379  0837               	movf	?___ftmul+2,w
  2384  037A  00AA               	movwf	?___fttol+2
  2385  037B  24F1  120A  118A   	fcall	___fttol
  2386  037E  273D  120A  118A   	fcall	PL5	;call to abstracted procedure
  2387  0381  2BE9               	goto	L3
  2388  0382                     l6747:	
  2389  0382  2735  120A  118A   	fcall	PL4	;call to abstracted procedure
  2390  0385  272B               	fcall	PL3	;call to abstracted procedure
  2391  0386  120A  158A  2000   	fcall	stringdir
      +       120A  118A         
  2392  038B  00F2               	movwf	?___lldiv
  2393  038C  120A  158A  2000   	fcall	stringdir
      +       120A  118A         
  2394  0391  00F3               	movwf	?___lldiv+1
  2395  0392  120A  158A  2000   	fcall	stringdir
      +       120A  118A         
  2396  0397  00F4               	movwf	?___lldiv+2
  2397  0398  120A  158A  2000   	fcall	stringdir
      +       120A  118A         
  2398  039D  2779  120A  118A   	fcall	PL15	;call to abstracted procedure
  2399  03A0  258A  120A  118A   	fcall	___lldiv
  2400  03A3  278E  120A  118A   	fcall	PL19	;call to abstracted procedure
  2401  03A6  254C  120A  118A   	fcall	___llmod
  2402  03A9  2797  120A  118A   	fcall	PL20	;call to abstracted procedure
  2403  03AC  1383               	bcf	3,7	;select IRP bank0
  2404  03AD  0080               	movwf	0
  2405  03AE  1683               	bsf	3,5	;RP0=1, select bank1
  2406  03AF  0AB2               	incf	sprintf@sp^(0+128),f
  2407  03B0  272B               	fcall	PL3	;call to abstracted procedure
  2408  03B1  120A  158A  2000   	fcall	stringdir
      +       120A  118A         
  2409  03B6  00A5               	movwf	?___llmod
  2410  03B7  120A  158A  2000   	fcall	stringdir
      +       120A  118A         
  2411  03BC  00A6               	movwf	?___llmod+1
  2412  03BD  120A  158A  2000   	fcall	stringdir
      +       120A  118A         
  2413  03C2  00A7               	movwf	?___llmod+2
  2414  03C3  120A  158A  2000   	fcall	stringdir
      +       120A  118A         
  2415  03C8  00A8               	movwf	?___llmod+3
  2416  03C9  1683               	bsf	3,5	;RP0=1, select bank1
  2417  03CA  082B               	movf	(sprintf@_val+3)^(0+128),w
  2418  03CB  1283               	bcf	3,5	;RP0=0, select bank0
  2419  03CC  00AC               	movwf	?___llmod+7
  2420  03CD  1683               	bsf	3,5	;RP0=1, select bank1
  2421  03CE  082A               	movf	(sprintf@_val+2)^(0+128),w
  2422  03CF  1283               	bcf	3,5	;RP0=0, select bank0
  2423  03D0  00AB               	movwf	?___llmod+6
  2424  03D1  1683               	bsf	3,5	;RP0=1, select bank1
  2425  03D2  0829               	movf	(sprintf@_val+1)^(0+128),w
  2426  03D3  1283               	bcf	3,5	;RP0=0, select bank0
  2427  03D4  00AA               	movwf	?___llmod+5
  2428  03D5  1683               	bsf	3,5	;RP0=1, select bank1
  2429  03D6  0828               	movf	sprintf@_val^(0+128),w
  2430  03D7  1283               	bcf	3,5	;RP0=0, select bank0
  2431  03D8  00A9               	movwf	?___llmod+4
  2432  03D9  254C  120A  118A   	fcall	___llmod
  2433  03DC  0828               	movf	?___llmod+3,w
  2434  03DD  1683               	bsf	3,5	;RP0=1, select bank1
  2435  03DE  00AB               	movwf	(sprintf@_val+3)^(0+128)
  2436  03DF  1283               	bcf	3,5	;RP0=0, select bank0
  2437  03E0  0827               	movf	?___llmod+2,w
  2438  03E1  1683               	bsf	3,5	;RP0=1, select bank1
  2439  03E2  00AA               	movwf	(sprintf@_val+2)^(0+128)
  2440  03E3  1283               	bcf	3,5	;RP0=0, select bank0
  2441  03E4  0826               	movf	?___llmod+1,w
  2442  03E5  1683               	bsf	3,5	;RP0=1, select bank1
  2443  03E6  00A9               	movwf	(sprintf@_val+1)^(0+128)
  2444  03E7  1283               	bcf	3,5	;RP0=0, select bank0
  2445  03E8  0825               	movf	?___llmod,w
  2446  03E9                     L3:	
  2447  03E9  1683               	bsf	3,5	;RP0=1, select bank1
  2448  03EA  00A8               	movwf	sprintf@_val^(0+128)
  2449  03EB  03B8               	decf	sprintf@c^(0+128),f
  2450  03EC  0F38               	incfsz	sprintf@c^(0+128),w
  2451  03ED  2B82               	goto	l6747
  2452  03EE                     l6761:	
  2453  03EE  0837               	movf	(sprintf@prec+1)^(0+128),w
  2454  03EF  0436               	iorwf	sprintf@prec^(0+128),w
  2455  03F0  1903               	btfsc	3,2
  2456  03F1  2813               	goto	l6811
  2457  03F2  0832               	movf	sprintf@sp^(0+128),w
  2458  03F3  27B0  120A  118A   	fcall	PL28	;call to abstracted procedure
  2459  03F6  07B6               	addwf	sprintf@prec^(0+128),f
  2460  03F7  1C03               	skipc
  2461  03F8  03B7               	decf	(sprintf@prec+1)^(0+128),f
  2462  03F9  2BEE               	goto	l6761
  2463  03FA                     l6763:	
  2464  03FA  1683               	bsf	3,5	;RP0=1, select bank1
  2465  03FB  0837               	movf	(sprintf@prec+1)^(0+128),w
  2466  03FC  0436               	iorwf	sprintf@prec^(0+128),w
  2467  03FD  1D03               	skipz
  2468  03FE  2C07               	goto	l6769
  2469  03FF  082B               	movf	(sprintf@_val+3)^(0+128),w
  2470  0400  042A               	iorwf	(sprintf@_val+2)^(0+128),w
  2471  0401  0429               	iorwf	(sprintf@_val+1)^(0+128),w
  2472  0402  0428               	iorwf	sprintf@_val^(0+128),w
  2473  0403  1903               	btfsc	3,2
  2474  0404  0AB6               	incf	sprintf@prec^(0+128),f
  2475  0405  1903               	skipnz
  2476  0406  0AB7               	incf	(sprintf@prec+1)^(0+128),f
  2477  0407                     l6769:	
  2478  0407  0838               	movf	sprintf@c^(0+128),w
  2479  0408  2784  120A  118A   	fcall	PL17	;call to abstracted procedure
  2480  040B  0837               	movf	(sprintf@prec+1)^(0+128),w
  2481  040C  3A80               	xorlw	128
  2482  040D  1283               	bcf	3,5	;RP0=0, select bank0
  2483  040E  0260               	subwf	??_sprintf+2,w
  2484  040F  1D03               	skipz
  2485  0410  2C15               	goto	u4715
  2486  0411  1683               	bsf	3,5	;RP0=1, select bank1
  2487  0412  0836               	movf	sprintf@prec^(0+128),w
  2488  0413  1283               	bcf	3,5	;RP0=0, select bank0
  2489  0414  025E               	subwf	??_sprintf,w
  2490  0415                     u4715:	
  2491  0415  1803               	skipnc
  2492  0416  2C1B               	goto	l6773
  2493  0417  27C5               	call	PL32	;select bank 1
  2494  0418  0836               	movf	sprintf@prec^(0+128),w
  2495  0419  00B8               	movwf	sprintf@c^(0+128)
  2496  041A  2C33               	goto	l6777
  2497  041B                     l6773:	
  2498  041B  1683               	bsf	3,5	;RP0=1, select bank1
  2499  041C  27A0  120A  118A   	fcall	PL21	;call to abstracted procedure
  2500  041F  0837               	movf	(sprintf@prec+1)^(0+128),w
  2501  0420  3A80               	xorlw	128
  2502  0421  1283               	bcf	3,5	;RP0=0, select bank0
  2503  0422  00E0               	movwf	??_sprintf+2
  2504  0423  085F               	movf	??_sprintf+1,w
  2505  0424  3A80               	xorlw	128
  2506  0425  0260               	subwf	??_sprintf+2,w
  2507  0426  1D03               	skipz
  2508  0427  2C2B               	goto	u4725
  2509  0428  085E               	movf	??_sprintf,w
  2510  0429  1683               	bsf	3,5	;RP0=1, select bank1
  2511  042A  0236               	subwf	sprintf@prec^(0+128),w
  2512  042B                     u4725:	
  2513  042B  1803               	skipnc
  2514  042C  2C33               	goto	l6777
  2515  042D  27C5               	call	PL32	;select bank 1
  2516  042E  0838               	movf	sprintf@c^(0+128),w
  2517  042F  00B6               	movwf	sprintf@prec^(0+128)
  2518  0430  01B7               	clrf	(sprintf@prec+1)^(0+128)
  2519  0431  1BB6               	btfsc	sprintf@prec^(0+128),7
  2520  0432  03B7               	decf	(sprintf@prec+1)^(0+128),f
  2521  0433                     l6777:	
  2522  0433  27C5               	call	PL32	;select bank 1
  2523  0434  082F               	movf	(sprintf@width+1)^(0+128),w
  2524  0435  042E               	iorwf	sprintf@width^(0+128),w
  2525  0436  1903               	skipnz
  2526  0437  2C40               	goto	l6783
  2527  0438  082C               	movf	sprintf@flag^(0+128),w
  2528  0439  3903               	andlw	3
  2529  043A  1903               	btfsc	3,2
  2530  043B  2C40               	goto	l6783
  2531  043C  30FF               	movlw	-1
  2532  043D  07AE               	addwf	sprintf@width^(0+128),f
  2533  043E  1C03               	skipc
  2534  043F  03AF               	decf	(sprintf@width+1)^(0+128),f
  2535  0440                     l6783:	
  2536  0440  1F2D               	btfss	(sprintf@flag+1)^(0+128),6
  2537  0441  2C5D               	goto	l6791
  2538  0442  0837               	movf	(sprintf@prec+1)^(0+128),w
  2539  0443  3A80               	xorlw	128
  2540  0444  1283               	bcf	3,5	;RP0=0, select bank0
  2541  0445  00DE               	movwf	??_sprintf
  2542  0446  1683               	bsf	3,5	;RP0=1, select bank1
  2543  0447  082F               	movf	(sprintf@width+1)^(0+128),w
  2544  0448  3A80               	xorlw	128
  2545  0449  1283               	bcf	3,5	;RP0=0, select bank0
  2546  044A  025E               	subwf	??_sprintf,w
  2547  044B  1D03               	skipz
  2548  044C  2C50               	goto	u4765
  2549  044D  1683               	bsf	3,5	;RP0=1, select bank1
  2550  044E  082E               	movf	sprintf@width^(0+128),w
  2551  044F  0236               	subwf	sprintf@prec^(0+128),w
  2552  0450                     u4765:	
  2553  0450  1803               	skipnc
  2554  0451  2C5A               	goto	l6789
  2555  0452  27C5               	call	PL32	;select bank 1
  2556  0453  0836               	movf	sprintf@prec^(0+128),w
  2557  0454  02AE               	subwf	sprintf@width^(0+128),f
  2558  0455  0837               	movf	(sprintf@prec+1)^(0+128),w
  2559  0456  1C03               	skipc
  2560  0457  03AF               	decf	(sprintf@width+1)^(0+128),f
  2561  0458  02AF               	subwf	(sprintf@width+1)^(0+128),f
  2562  0459  2C5D               	goto	l6791
  2563  045A                     l6789:	
  2564  045A  27C5               	call	PL32	;select bank 1
  2565  045B  01AE               	clrf	sprintf@width^(0+128)
  2566  045C  01AF               	clrf	(sprintf@width+1)^(0+128)
  2567  045D                     l6791:	
  2568  045D  0838               	movf	sprintf@c^(0+128),w
  2569  045E  2784  120A  118A   	fcall	PL17	;call to abstracted procedure
  2570  0461  082F               	movf	(sprintf@width+1)^(0+128),w
  2571  0462  3A80               	xorlw	128
  2572  0463  1283               	bcf	3,5	;RP0=0, select bank0
  2573  0464  0260               	subwf	??_sprintf+2,w
  2574  0465  1D03               	skipz
  2575  0466  2C6B               	goto	u4775
  2576  0467  1683               	bsf	3,5	;RP0=1, select bank1
  2577  0468  082E               	movf	sprintf@width^(0+128),w
  2578  0469  1283               	bcf	3,5	;RP0=0, select bank0
  2579  046A  025E               	subwf	??_sprintf,w
  2580  046B                     u4775:	
  2581  046B  1803               	skipnc
  2582  046C  2C79               	goto	l6795
  2583  046D  1683               	bsf	3,5	;RP0=1, select bank1
  2584  046E  27A0  120A  118A   	fcall	PL21	;call to abstracted procedure
  2585  0471  02AE               	subwf	sprintf@width^(0+128),f
  2586  0472  1283               	bcf	3,5	;RP0=0, select bank0
  2587  0473  085F               	movf	??_sprintf+1,w
  2588  0474  1683               	bsf	3,5	;RP0=1, select bank1
  2589  0475  1C03               	skipc
  2590  0476  03AF               	decf	(sprintf@width+1)^(0+128),f
  2591  0477  02AF               	subwf	(sprintf@width+1)^(0+128),f
  2592  0478  2C7C               	goto	l6797
  2593  0479                     l6795:	
  2594  0479  27C5               	call	PL32	;select bank 1
  2595  047A  01AE               	clrf	sprintf@width^(0+128)
  2596  047B  01AF               	clrf	(sprintf@width+1)^(0+128)
  2597  047C                     l6797:	
  2598  047C  082F               	movf	(sprintf@width+1)^(0+128),w
  2599  047D  042E               	iorwf	sprintf@width^(0+128),w
  2600  047E  1903               	skipnz
  2601  047F  2C8E               	goto	l6805
  2602  0480                     l6799:	
  2603  0480  0832               	movf	sprintf@sp^(0+128),w
  2604  0481  0084               	movwf	4
  2605  0482  3020               	movlw	32
  2606  0483  1383               	bcf	3,7	;select IRP bank0
  2607  0484  0080               	movwf	0
  2608  0485  30FF               	movlw	-1
  2609  0486  0AB2               	incf	sprintf@sp^(0+128),f
  2610  0487  07AE               	addwf	sprintf@width^(0+128),f
  2611  0488  1C03               	skipc
  2612  0489  03AF               	decf	(sprintf@width+1)^(0+128),f
  2613  048A  082F               	movf	(sprintf@width+1)^(0+128),w
  2614  048B  042E               	iorwf	sprintf@width^(0+128),w
  2615  048C  1D03               	skipz
  2616  048D  2C80               	goto	l6799
  2617  048E                     l6805:	
  2618  048E  082C               	movf	sprintf@flag^(0+128),w
  2619  048F  3903               	andlw	3
  2620  0490  1903               	btfsc	3,2
  2621  0491  2813               	goto	l6811
  2622  0492  0832               	movf	sprintf@sp^(0+128),w
  2623  0493  0084               	movwf	4
  2624  0494  302D               	movlw	45
  2625  0495                     L4:	
  2626  0495  1383               	bcf	3,7	;select IRP bank0
  2627  0496  0080               	movwf	0
  2628  0497  0AB2               	incf	sprintf@sp^(0+128),f
  2629  0498  2813               	goto	l6811
  2630  0499                     l6813:	
  2631  0499  0832               	movf	sprintf@sp^(0+128),w
  2632  049A  0084               	movwf	4
  2633  049B  1383               	bcf	3,7	;select IRP bank0
  2634  049C  0180               	clrf	0
  2635  049D  0008               	return
  2636  049E                     __end_of_sprintf:	
  2637  049E                     __ptext787:	
  2638 ;; =============== function ___lldiv ends ============
  2639                           
  2640                           
  2641 ;; *************** function ___ftge *****************
  2642 ;; Defined at:
  2643 ;;		line 5 in file "C:\Program Files (x86)\HI-TECH Software\PICC\9.83\sources\ftge.c"
  2644 ;; Parameters:    Size  Location     Type
  2645 ;;  ff1             3    2[COMMON] float 
  2646 ;;  ff2             3    5[COMMON] float 
  2647 ;; Auto vars:     Size  Location     Type
  2648 ;;		None
  2649 ;; Return value:  Size  Location     Type
  2650 ;;		None               void
  2651 ;; Registers used:
  2652 ;;		wreg, status,2, status,0
  2653 ;; Tracked objects:
  2654 ;;		On entry : 60/20
  2655 ;;		On exit  : 60/20
  2656 ;;		Unchanged: FFF9F/0
  2657 ;; Data sizes:     COMMON   BANK0   BANK1   BANK3   BANK2
  2658 ;;      Params:         6       0       0       0       0
  2659 ;;      Locals:         0       0       0       0       0
  2660 ;;      Temps:          0       0       0       0       0
  2661 ;;      Totals:         6       0       0       0       0
  2662 ;;Total ram usage:        6 bytes
  2663 ;; Hardware stack levels used:    1
  2664 ;; Hardware stack levels required when called:    1
  2665 ;; This function calls:
  2666 ;;		Nothing
  2667 ;; This function is called by:
  2668 ;;		_sprintf
  2669 ;; This function uses a non-reentrant model
  2670 ;;
  2671  049E                     ___ftge:	
  2672                           
  2673                           ; Regs used in ___ftge: [wreg+status,2+status,0]
  2674  049E  1FF4               	btfss	___ftge@ff1+2,7
  2675  049F  2CAD               	goto	l6207
  2676  04A0  0872               	movf	___ftge@ff1,w
  2677  04A1  3C00               	sublw	0
  2678  04A2  00F2               	movwf	___ftge@ff1
  2679  04A3  0873               	movf	___ftge@ff1+1,w
  2680  04A4  1C03               	skipc
  2681  04A5  0F73               	incfsz	___ftge@ff1+1,w
  2682  04A6  3C00               	sublw	0
  2683  04A7  00F3               	movwf	___ftge@ff1+1
  2684  04A8  0874               	movf	___ftge@ff1+2,w
  2685  04A9  1C03               	skipc
  2686  04AA  0F74               	incfsz	___ftge@ff1+2,w
  2687  04AB  3C80               	sublw	128
  2688  04AC  00F4               	movwf	___ftge@ff1+2
  2689  04AD                     l6207:	
  2690  04AD  1FF7               	btfss	___ftge@ff2+2,7
  2691  04AE  2CBC               	goto	l6211
  2692  04AF  0875               	movf	___ftge@ff2,w
  2693  04B0  3C00               	sublw	0
  2694  04B1  00F5               	movwf	___ftge@ff2
  2695  04B2  0876               	movf	___ftge@ff2+1,w
  2696  04B3  1C03               	skipc
  2697  04B4  0F76               	incfsz	___ftge@ff2+1,w
  2698  04B5  3C00               	sublw	0
  2699  04B6  00F6               	movwf	___ftge@ff2+1
  2700  04B7  0877               	movf	___ftge@ff2+2,w
  2701  04B8  1C03               	skipc
  2702  04B9  0F77               	incfsz	___ftge@ff2+2,w
  2703  04BA  3C80               	sublw	128
  2704  04BB  00F7               	movwf	___ftge@ff2+2
  2705  04BC                     l6211:	
  2706  04BC  3080               	movlw	128
  2707  04BD  06F4               	xorwf	___ftge@ff1+2,f
  2708  04BE  06F7               	xorwf	___ftge@ff2+2,f
  2709  04BF  0877               	movf	___ftge@ff2+2,w
  2710  04C0  0274               	subwf	___ftge@ff1+2,w
  2711  04C1  1D03               	skipz
  2712  04C2  0008               	return
  2713  04C3  0876               	movf	___ftge@ff2+1,w
  2714  04C4  0273               	subwf	___ftge@ff1+1,w
  2715  04C5  1D03               	skipz
  2716  04C6  0008               	return
  2717  04C7  0875               	movf	___ftge@ff2,w
  2718  04C8  0272               	subwf	___ftge@ff1,w
  2719  04C9  0008               	return
  2720  04CA                     __end_of___ftge:	
  2721  04CA                     __ptext799:	
  2722 ;; =============== function __tdiv_to_l_ ends ============
  2723                           
  2724                           
  2725 ;; *************** function _isdigit *****************
  2726 ;; Defined at:
  2727 ;;		line 13 in file "C:\Program Files (x86)\HI-TECH Software\PICC\9.83\sources\isdigit.c"
  2728 ;; Parameters:    Size  Location     Type
  2729 ;;  c               1    wreg     unsigned char 
  2730 ;; Auto vars:     Size  Location     Type
  2731 ;;  c               1    3[COMMON] unsigned char 
  2732 ;; Return value:  Size  Location     Type
  2733 ;;		None               void
  2734 ;; Registers used:
  2735 ;;		wreg, status,2, status,0
  2736 ;; Tracked objects:
  2737 ;;		On entry : 60/0
  2738 ;;		On exit  : 60/0
  2739 ;;		Unchanged: FFF9F/0
  2740 ;; Data sizes:     COMMON   BANK0   BANK1   BANK3   BANK2
  2741 ;;      Params:         0       0       0       0       0
  2742 ;;      Locals:         2       0       0       0       0
  2743 ;;      Temps:          0       0       0       0       0
  2744 ;;      Totals:         2       0       0       0       0
  2745 ;;Total ram usage:        2 bytes
  2746 ;; Hardware stack levels used:    1
  2747 ;; Hardware stack levels required when called:    1
  2748 ;; This function calls:
  2749 ;;		Nothing
  2750 ;; This function is called by:
  2751 ;;		_sprintf
  2752 ;; This function uses a non-reentrant model
  2753 ;;
  2754  04CA                     _isdigit:	
  2755                           
  2756                           ; Regs used in _isdigit: [wreg+status,2+status,0]
  2757                           ;isdigit@c stored from wreg
  2758  04CA  00F3               	movwf	isdigit@c
  2759  04CB  303A               	movlw	58
  2760  04CC  01F2               	clrf	_isdigit$2381
  2761  04CD  0273               	subwf	isdigit@c,w
  2762  04CE  1803               	skipnc
  2763  04CF  2CD6               	goto	l5893
  2764  04D0  3030               	movlw	48
  2765  04D1  0273               	subwf	isdigit@c,w
  2766  04D2  1C03               	skipc
  2767  04D3  2CD6               	goto	l5893
  2768  04D4  01F2               	clrf	_isdigit$2381
  2769  04D5  0AF2               	incf	_isdigit$2381,f
  2770  04D6                     l5893:	
  2771  04D6  0C72               	rrf	_isdigit$2381,w
  2772  04D7  0008               	return
  2773  04D8                     __end_of_isdigit:	
  2774  04D8                     __ptext795:	
  2775 ;; =============== function ___lbdiv ends ============
  2776                           
  2777                           
  2778 ;; *************** function ___wmul *****************
  2779 ;; Defined at:
  2780 ;;		line 3 in file "C:\Program Files (x86)\HI-TECH Software\PICC\9.83\sources\wmul.c"
  2781 ;; Parameters:    Size  Location     Type
  2782 ;;  multiplier      2    2[COMMON] unsigned int 
  2783 ;;  multiplicand    2    4[COMMON] unsigned int 
  2784 ;; Auto vars:     Size  Location     Type
  2785 ;;  product         2    6[COMMON] unsigned int 
  2786 ;; Return value:  Size  Location     Type
  2787 ;;                  2    2[COMMON] unsigned int 
  2788 ;; Registers used:
  2789 ;;		wreg, status,2, status,0
  2790 ;; Tracked objects:
  2791 ;;		On entry : 60/20
  2792 ;;		On exit  : 60/20
  2793 ;;		Unchanged: FFF9F/0
  2794 ;; Data sizes:     COMMON   BANK0   BANK1   BANK3   BANK2
  2795 ;;      Params:         4       0       0       0       0
  2796 ;;      Locals:         2       0       0       0       0
  2797 ;;      Temps:          0       0       0       0       0
  2798 ;;      Totals:         6       0       0       0       0
  2799 ;;Total ram usage:        6 bytes
  2800 ;; Hardware stack levels used:    1
  2801 ;; Hardware stack levels required when called:    1
  2802 ;; This function calls:
  2803 ;;		Nothing
  2804 ;; This function is called by:
  2805 ;;		_fround
  2806 ;;		_scale
  2807 ;;		_sprintf
  2808 ;; This function uses a non-reentrant model
  2809 ;;
  2810  04D8                     ___wmul:	
  2811                           
  2812                           ; Regs used in ___wmul: [wreg+status,2+status,0]
  2813  04D8  01F6               	clrf	___wmul@product
  2814  04D9  01F7               	clrf	___wmul@product+1
  2815  04DA                     l6009:	
  2816  04DA  1C72               	btfss	___wmul@multiplier,0
  2817  04DB  2CE2               	goto	l6013
  2818  04DC  0874               	movf	___wmul@multiplicand,w
  2819  04DD  07F6               	addwf	___wmul@product,f
  2820  04DE  1803               	skipnc
  2821  04DF  0AF7               	incf	___wmul@product+1,f
  2822  04E0  0875               	movf	___wmul@multiplicand+1,w
  2823  04E1  07F7               	addwf	___wmul@product+1,f
  2824  04E2                     l6013:	
  2825  04E2  1003               	clrc
  2826  04E3  0DF4               	rlf	___wmul@multiplicand,f
  2827  04E4  0DF5               	rlf	___wmul@multiplicand+1,f
  2828  04E5  1003               	clrc
  2829  04E6  0CF3               	rrf	___wmul@multiplier+1,f
  2830  04E7  0CF2               	rrf	___wmul@multiplier,f
  2831  04E8  0873               	movf	___wmul@multiplier+1,w
  2832  04E9  0472               	iorwf	___wmul@multiplier,w
  2833  04EA  1D03               	skipz
  2834  04EB  2CDA               	goto	l6009
  2835  04EC  0877               	movf	___wmul@product+1,w
  2836  04ED  00F3               	movwf	?___wmul+1
  2837  04EE  0876               	movf	___wmul@product,w
  2838  04EF  00F2               	movwf	?___wmul
  2839  04F0  0008               	return
  2840  04F1                     __end_of___wmul:	
  2841  04F1                     __ptext791:	
  2842 ;; =============== function ___awdiv ends ============
  2843                           
  2844                           
  2845 ;; *************** function ___fttol *****************
  2846 ;; Defined at:
  2847 ;;		line 45 in file "C:\Program Files (x86)\HI-TECH Software\PICC\9.83\sources\fttol.c"
  2848 ;; Parameters:    Size  Location     Type
  2849 ;;  f1              3    8[BANK0 ] float 
  2850 ;; Auto vars:     Size  Location     Type
  2851 ;;  lval            4   16[BANK0 ] unsigned long 
  2852 ;;  exp1            1   20[BANK0 ] unsigned char 
  2853 ;;  sign1           1   15[BANK0 ] unsigned char 
  2854 ;; Return value:  Size  Location     Type
  2855 ;;                  4    8[BANK0 ] long 
  2856 ;; Registers used:
  2857 ;;		wreg, status,2, status,0
  2858 ;; Tracked objects:
  2859 ;;		On entry : 60/0
  2860 ;;		On exit  : 60/0
  2861 ;;		Unchanged: FFF9F/0
  2862 ;; Data sizes:     COMMON   BANK0   BANK1   BANK3   BANK2
  2863 ;;      Params:         0       4       0       0       0
  2864 ;;      Locals:         0       6       0       0       0
  2865 ;;      Temps:          0       3       0       0       0
  2866 ;;      Totals:         0      13       0       0       0
  2867 ;;Total ram usage:       13 bytes
  2868 ;; Hardware stack levels used:    1
  2869 ;; Hardware stack levels required when called:    1
  2870 ;; This function calls:
  2871 ;;		Nothing
  2872 ;; This function is called by:
  2873 ;;		_sprintf
  2874 ;; This function uses a non-reentrant model
  2875 ;;
  2876  04F1                     ___fttol:	
  2877                           
  2878                           ; Regs used in ___fttol: [wreg+status,2+status,0]
  2879  04F1  27BE  120A  118A   	fcall	PL31	;call to abstracted procedure
  2880  04F4  1003               	clrc
  2881  04F5  0D2D               	rlf	??___fttol+1,w
  2882  04F6  0D2E               	rlf	??___fttol+2,w
  2883  04F7  00B4               	movwf	___fttol@exp1
  2884  04F8  08B4               	movf	___fttol@exp1,f
  2885  04F9  1D03               	skipz
  2886  04FA  2D00               	goto	l6097
  2887  04FB                     l6095:	
  2888  04FB  01A8               	clrf	?___fttol
  2889  04FC  01A9               	clrf	?___fttol+1
  2890  04FD  01AA               	clrf	?___fttol+2
  2891  04FE  01AB               	clrf	?___fttol+3
  2892  04FF  0008               	return
  2893  0500                     l6097:	
  2894  0500  27BE  120A  118A   	fcall	PL31	;call to abstracted procedure
  2895  0503  3017               	movlw	23
  2896  0504                     u3635:	
  2897  0504  1003               	clrc
  2898  0505  0CAE               	rrf	??___fttol+2,f
  2899  0506  0CAD               	rrf	??___fttol+1,f
  2900  0507  0CAC               	rrf	??___fttol,f
  2901  0508  3EFF               	addlw	-1
  2902  0509  1D03               	skipz
  2903  050A  2D04               	goto	u3635
  2904  050B  082C               	movf	??___fttol,w
  2905  050C  00AF               	movwf	___fttol@sign1
  2906  050D  17A9               	bsf	___fttol@f1+1,7
  2907  050E  01AA               	clrf	___fttol@f1+2
  2908  050F  0828               	movf	___fttol@f1,w
  2909  0510  00B0               	movwf	___fttol@lval
  2910  0511  0829               	movf	___fttol@f1+1,w
  2911  0512  00B1               	movwf	___fttol@lval+1
  2912  0513  082A               	movf	___fttol@f1+2,w
  2913  0514  00B2               	movwf	___fttol@lval+2
  2914  0515  308E               	movlw	142
  2915  0516  01B3               	clrf	___fttol@lval+3
  2916  0517  02B4               	subwf	___fttol@exp1,f
  2917  0518  1FB4               	btfss	___fttol@exp1,7
  2918  0519  2D27               	goto	l6117
  2919  051A  0834               	movf	___fttol@exp1,w
  2920  051B  3A80               	xorlw	128
  2921  051C  3E8F               	addlw	143
  2922  051D  1C03               	btfss	3,0
  2923  051E  2CFB               	goto	l6095
  2924  051F                     l6113:	
  2925  051F  1003               	clrc
  2926  0520  0CB3               	rrf	___fttol@lval+3,f
  2927  0521  0CB2               	rrf	___fttol@lval+2,f
  2928  0522  0CB1               	rrf	___fttol@lval+1,f
  2929  0523  0CB0               	rrf	___fttol@lval,f
  2930  0524  0FB4               	incfsz	___fttol@exp1,f
  2931  0525  2D1F               	goto	l6113
  2932  0526  2D35               	goto	l6123
  2933  0527                     l6117:	
  2934  0527  3018               	movlw	24
  2935  0528  0234               	subwf	___fttol@exp1,w
  2936  0529  1803               	btfsc	3,0
  2937  052A  2CFB               	goto	l6095
  2938  052B                     l2298:	
  2939  052B  08B4               	movf	___fttol@exp1,f
  2940  052C  1903               	btfsc	3,2
  2941  052D  2D35               	goto	l6123
  2942  052E  1003               	clrc
  2943  052F  0DB0               	rlf	___fttol@lval,f
  2944  0530  0DB1               	rlf	___fttol@lval+1,f
  2945  0531  0DB2               	rlf	___fttol@lval+2,f
  2946  0532  0DB3               	rlf	___fttol@lval+3,f
  2947  0533  03B4               	decf	___fttol@exp1,f
  2948  0534  2D2B               	goto	l2298
  2949  0535                     l6123:	
  2950  0535  082F               	movf	___fttol@sign1,w
  2951  0536  1903               	btfsc	3,2
  2952  0537  2D43               	goto	l6127
  2953  0538  09B0               	comf	___fttol@lval,f
  2954  0539  09B1               	comf	___fttol@lval+1,f
  2955  053A  09B2               	comf	___fttol@lval+2,f
  2956  053B  09B3               	comf	___fttol@lval+3,f
  2957  053C  0AB0               	incf	___fttol@lval,f
  2958  053D  1903               	skipnz
  2959  053E  0AB1               	incf	___fttol@lval+1,f
  2960  053F  1903               	skipnz
  2961  0540  0AB2               	incf	___fttol@lval+2,f
  2962  0541  1903               	skipnz
  2963  0542  0AB3               	incf	___fttol@lval+3,f
  2964  0543                     l6127:	
  2965  0543  0833               	movf	___fttol@lval+3,w
  2966  0544  00AB               	movwf	?___fttol+3
  2967  0545  0832               	movf	___fttol@lval+2,w
  2968  0546  00AA               	movwf	?___fttol+2
  2969  0547  0831               	movf	___fttol@lval+1,w
  2970  0548  00A9               	movwf	?___fttol+1
  2971  0549  0830               	movf	___fttol@lval,w
  2972  054A  00A8               	movwf	?___fttol
  2973  054B  0008               	return
  2974  054C                     __end_of___fttol:	
  2975  054C                     __ptext789:	
  2976 ;; =============== function ___ftneg ends ============
  2977                           
  2978                           
  2979 ;; *************** function ___llmod *****************
  2980 ;; Defined at:
  2981 ;;		line 5 in file "C:\Program Files (x86)\HI-TECH Software\PICC\9.83\sources\llmod.c"
  2982 ;; Parameters:    Size  Location     Type
  2983 ;;  divisor         4    5[BANK0 ] unsigned long 
  2984 ;;  dividend        4    9[BANK0 ] unsigned long 
  2985 ;; Auto vars:     Size  Location     Type
  2986 ;;  counter         1   13[BANK0 ] unsigned char 
  2987 ;; Return value:  Size  Location     Type
  2988 ;;                  4    5[BANK0 ] unsigned long 
  2989 ;; Registers used:
  2990 ;;		wreg, status,2, status,0
  2991 ;; Tracked objects:
  2992 ;;		On entry : 60/0
  2993 ;;		On exit  : 60/0
  2994 ;;		Unchanged: FFF9F/0
  2995 ;; Data sizes:     COMMON   BANK0   BANK1   BANK3   BANK2
  2996 ;;      Params:         0       8       0       0       0
  2997 ;;      Locals:         0       1       0       0       0
  2998 ;;      Temps:          0       0       0       0       0
  2999 ;;      Totals:         0       9       0       0       0
  3000 ;;Total ram usage:        9 bytes
  3001 ;; Hardware stack levels used:    1
  3002 ;; Hardware stack levels required when called:    1
  3003 ;; This function calls:
  3004 ;;		Nothing
  3005 ;; This function is called by:
  3006 ;;		_sprintf
  3007 ;; This function uses a non-reentrant model
  3008 ;;
  3009  054C                     ___llmod:	
  3010                           
  3011                           ; Regs used in ___llmod: [wreg+status,2+status,0]
  3012  054C  0828               	movf	___llmod@divisor+3,w
  3013  054D  0427               	iorwf	___llmod@divisor+2,w
  3014  054E  0426               	iorwf	___llmod@divisor+1,w
  3015  054F  0425               	iorwf	___llmod@divisor,w
  3016  0550  1903               	skipnz
  3017  0551  2D81               	goto	l6191
  3018  0552  01AD               	clrf	___llmod@counter
  3019  0553                     L13:	
  3020  0553  0AAD               	incf	___llmod@counter,f
  3021  0554  1BA8               	btfsc	___llmod@divisor+3,7
  3022  0555  2D5C               	goto	l6183
  3023  0556  1003               	clrc
  3024  0557  0DA5               	rlf	___llmod@divisor,f
  3025  0558  0DA6               	rlf	___llmod@divisor+1,f
  3026  0559  0DA7               	rlf	___llmod@divisor+2,f
  3027  055A  0DA8               	rlf	___llmod@divisor+3,f
  3028  055B  2D53               	goto	L13
  3029  055C                     l6183:	
  3030  055C  0828               	movf	___llmod@divisor+3,w
  3031  055D  022C               	subwf	___llmod@dividend+3,w
  3032  055E  1D03               	skipz
  3033  055F  2D6A               	goto	u3795
  3034  0560  0827               	movf	___llmod@divisor+2,w
  3035  0561  022B               	subwf	___llmod@dividend+2,w
  3036  0562  1D03               	skipz
  3037  0563  2D6A               	goto	u3795
  3038  0564  0826               	movf	___llmod@divisor+1,w
  3039  0565  022A               	subwf	___llmod@dividend+1,w
  3040  0566  1D03               	skipz
  3041  0567  2D6A               	goto	u3795
  3042  0568  0825               	movf	___llmod@divisor,w
  3043  0569  0229               	subwf	___llmod@dividend,w
  3044  056A                     u3795:	
  3045  056A  1C03               	skipc
  3046  056B  2D7B               	goto	L14
  3047  056C  0825               	movf	___llmod@divisor,w
  3048  056D  02A9               	subwf	___llmod@dividend,f
  3049  056E  0826               	movf	___llmod@divisor+1,w
  3050  056F  1C03               	skipc
  3051  0570  0F26               	incfsz	___llmod@divisor+1,w
  3052  0571  02AA               	subwf	___llmod@dividend+1,f
  3053  0572  0827               	movf	___llmod@divisor+2,w
  3054  0573  1C03               	skipc
  3055  0574  0F27               	incfsz	___llmod@divisor+2,w
  3056  0575  02AB               	subwf	___llmod@dividend+2,f
  3057  0576  0828               	movf	___llmod@divisor+3,w
  3058  0577  1C03               	skipc
  3059  0578  0F28               	incfsz	___llmod@divisor+3,w
  3060  0579  02AC               	subwf	___llmod@dividend+3,f
  3061  057A  1003               	clrc
  3062  057B                     L14:	
  3063  057B  0CA8               	rrf	___llmod@divisor+3,f
  3064  057C  0CA7               	rrf	___llmod@divisor+2,f
  3065  057D  0CA6               	rrf	___llmod@divisor+1,f
  3066  057E  0CA5               	rrf	___llmod@divisor,f
  3067  057F  0BAD               	decfsz	___llmod@counter,f
  3068  0580  2D5C               	goto	l6183
  3069  0581                     l6191:	
  3070  0581  082C               	movf	___llmod@dividend+3,w
  3071  0582  00A8               	movwf	?___llmod+3
  3072  0583  082B               	movf	___llmod@dividend+2,w
  3073  0584  00A7               	movwf	?___llmod+2
  3074  0585  082A               	movf	___llmod@dividend+1,w
  3075  0586  00A6               	movwf	?___llmod+1
  3076  0587  0829               	movf	___llmod@dividend,w
  3077  0588  00A5               	movwf	?___llmod
  3078  0589  0008               	return
  3079  058A                     __end_of___llmod:	
  3080  058A                     __ptext786:	
  3081 ;; =============== function ___awmod ends ============
  3082                           
  3083                           
  3084 ;; *************** function ___lldiv *****************
  3085 ;; Defined at:
  3086 ;;		line 5 in file "C:\Program Files (x86)\HI-TECH Software\PICC\9.83\sources\lldiv.c"
  3087 ;; Parameters:    Size  Location     Type
  3088 ;;  divisor         4    2[COMMON] unsigned long 
  3089 ;;  dividend        4    6[COMMON] unsigned long 
  3090 ;; Auto vars:     Size  Location     Type
  3091 ;;  quotient        4    0[BANK0 ] unsigned long 
  3092 ;;  counter         1    4[BANK0 ] unsigned char 
  3093 ;; Return value:  Size  Location     Type
  3094 ;;                  4    2[COMMON] unsigned long 
  3095 ;; Registers used:
  3096 ;;		wreg, status,2, status,0
  3097 ;; Tracked objects:
  3098 ;;		On entry : 60/20
  3099 ;;		On exit  : 60/0
  3100 ;;		Unchanged: FFF9F/0
  3101 ;; Data sizes:     COMMON   BANK0   BANK1   BANK3   BANK2
  3102 ;;      Params:         8       0       0       0       0
  3103 ;;      Locals:         0       5       0       0       0
  3104 ;;      Temps:          0       0       0       0       0
  3105 ;;      Totals:         8       5       0       0       0
  3106 ;;Total ram usage:       13 bytes
  3107 ;; Hardware stack levels used:    1
  3108 ;; Hardware stack levels required when called:    1
  3109 ;; This function calls:
  3110 ;;		Nothing
  3111 ;; This function is called by:
  3112 ;;		_sprintf
  3113 ;; This function uses a non-reentrant model
  3114 ;;
  3115  058A                     ___lldiv:	
  3116                           
  3117                           ; Regs used in ___lldiv: [wreg+status,2+status,0]
  3118  058A  1283               	bcf	3,5	;RP0=0, select bank0
  3119  058B  01A0               	clrf	___lldiv@quotient
  3120  058C  01A1               	clrf	___lldiv@quotient+1
  3121  058D  01A2               	clrf	___lldiv@quotient+2
  3122  058E  01A3               	clrf	___lldiv@quotient+3
  3123  058F  0875               	movf	___lldiv@divisor+3,w
  3124  0590  0474               	iorwf	___lldiv@divisor+2,w
  3125  0591  0473               	iorwf	___lldiv@divisor+1,w
  3126  0592  0472               	iorwf	___lldiv@divisor,w
  3127  0593  1903               	skipnz
  3128  0594  2DCA               	goto	l6245
  3129  0595  01A4               	clrf	___lldiv@counter
  3130  0596                     L10:	
  3131  0596  0AA4               	incf	___lldiv@counter,f
  3132  0597  1BF5               	btfsc	___lldiv@divisor+3,7
  3133  0598  2D9F               	goto	l6233
  3134  0599  1003               	clrc
  3135  059A  0DF2               	rlf	___lldiv@divisor,f
  3136  059B  0DF3               	rlf	___lldiv@divisor+1,f
  3137  059C  0DF4               	rlf	___lldiv@divisor+2,f
  3138  059D  0DF5               	rlf	___lldiv@divisor+3,f
  3139  059E  2D96               	goto	L10
  3140  059F                     l6233:	
  3141  059F  1003               	clrc
  3142  05A0  0DA0               	rlf	___lldiv@quotient,f
  3143  05A1  0DA1               	rlf	___lldiv@quotient+1,f
  3144  05A2  0DA2               	rlf	___lldiv@quotient+2,f
  3145  05A3  0DA3               	rlf	___lldiv@quotient+3,f
  3146  05A4  0875               	movf	___lldiv@divisor+3,w
  3147  05A5  0279               	subwf	___lldiv@dividend+3,w
  3148  05A6  1D03               	skipz
  3149  05A7  2DB2               	goto	u3875
  3150  05A8  0874               	movf	___lldiv@divisor+2,w
  3151  05A9  0278               	subwf	___lldiv@dividend+2,w
  3152  05AA  1D03               	skipz
  3153  05AB  2DB2               	goto	u3875
  3154  05AC  0873               	movf	___lldiv@divisor+1,w
  3155  05AD  0277               	subwf	___lldiv@dividend+1,w
  3156  05AE  1D03               	skipz
  3157  05AF  2DB2               	goto	u3875
  3158  05B0  0872               	movf	___lldiv@divisor,w
  3159  05B1  0276               	subwf	___lldiv@dividend,w
  3160  05B2                     u3875:	
  3161  05B2  1C03               	skipc
  3162  05B3  2DC4               	goto	L11
  3163  05B4  0872               	movf	___lldiv@divisor,w
  3164  05B5  02F6               	subwf	___lldiv@dividend,f
  3165  05B6  0873               	movf	___lldiv@divisor+1,w
  3166  05B7  1C03               	skipc
  3167  05B8  0F73               	incfsz	___lldiv@divisor+1,w
  3168  05B9  02F7               	subwf	___lldiv@dividend+1,f
  3169  05BA  0874               	movf	___lldiv@divisor+2,w
  3170  05BB  1C03               	skipc
  3171  05BC  0F74               	incfsz	___lldiv@divisor+2,w
  3172  05BD  02F8               	subwf	___lldiv@dividend+2,f
  3173  05BE  0875               	movf	___lldiv@divisor+3,w
  3174  05BF  1C03               	skipc
  3175  05C0  0F75               	incfsz	___lldiv@divisor+3,w
  3176  05C1  02F9               	subwf	___lldiv@dividend+3,f
  3177  05C2  1420               	bsf	___lldiv@quotient,0
  3178  05C3  1003               	clrc
  3179  05C4                     L11:	
  3180  05C4  0CF5               	rrf	___lldiv@divisor+3,f
  3181  05C5  0CF4               	rrf	___lldiv@divisor+2,f
  3182  05C6  0CF3               	rrf	___lldiv@divisor+1,f
  3183  05C7  0CF2               	rrf	___lldiv@divisor,f
  3184  05C8  0BA4               	decfsz	___lldiv@counter,f
  3185  05C9  2D9F               	goto	l6233
  3186  05CA                     l6245:	
  3187  05CA  0823               	movf	___lldiv@quotient+3,w
  3188  05CB  00F5               	movwf	?___lldiv+3
  3189  05CC  0822               	movf	___lldiv@quotient+2,w
  3190  05CD  00F4               	movwf	?___lldiv+2
  3191  05CE  0821               	movf	___lldiv@quotient+1,w
  3192  05CF  00F3               	movwf	?___lldiv+1
  3193  05D0  0820               	movf	___lldiv@quotient,w
  3194  05D1  00F2               	movwf	?___lldiv
  3195  05D2  0008               	return
  3196  05D3                     __end_of___lldiv:	
  3197  05D3                     __ptext798:	
  3198 ;; =============== function __div_to_l_ ends ============
  3199                           
  3200                           
  3201 ;; *************** function __tdiv_to_l_ *****************
  3202 ;; Defined at:
  3203 ;;		line 61 in file "C:\Program Files (x86)\HI-TECH Software\PICC\9.83\sources\ftdivl.c"
  3204 ;; Parameters:    Size  Location     Type
  3205 ;;  f1              3    2[COMMON] float 
  3206 ;;  f2              3    5[COMMON] float 
  3207 ;; Auto vars:     Size  Location     Type
  3208 ;;  quot            4    3[BANK0 ] unsigned long 
  3209 ;;  exp1            1    8[BANK0 ] unsigned char 
  3210 ;;  cntr            1    7[BANK0 ] unsigned char 
  3211 ;; Return value:  Size  Location     Type
  3212 ;;                  4    2[COMMON] unsigned long 
  3213 ;; Registers used:
  3214 ;;		wreg, status,2, status,0
  3215 ;; Tracked objects:
  3216 ;;		On entry : 60/20
  3217 ;;		On exit  : 60/0
  3218 ;;		Unchanged: FFF9F/0
  3219 ;; Data sizes:     COMMON   BANK0   BANK1   BANK3   BANK2
  3220 ;;      Params:         6       0       0       0       0
  3221 ;;      Locals:         0       6       0       0       0
  3222 ;;      Temps:          0       3       0       0       0
  3223 ;;      Totals:         6       9       0       0       0
  3224 ;;Total ram usage:       15 bytes
  3225 ;; Hardware stack levels used:    1
  3226 ;; Hardware stack levels required when called:    1
  3227 ;; This function calls:
  3228 ;;		Nothing
  3229 ;; This function is called by:
  3230 ;;		_sprintf
  3231 ;; This function uses a non-reentrant model
  3232 ;;
  3233  05D3                     __tdiv_to_l_:	
  3234                           
  3235                           ; Regs used in __tdiv_to_l_: [wreg+status,2+status,0]
  3236  05D3  0872               	movf	__tdiv_to_l_@f1,w
  3237  05D4  1283               	bcf	3,5	;RP0=0, select bank0
  3238  05D5  00A0               	movwf	??__tdiv_to_l_
  3239  05D6  0873               	movf	__tdiv_to_l_@f1+1,w
  3240  05D7  00A1               	movwf	??__tdiv_to_l_+1
  3241  05D8  0874               	movf	__tdiv_to_l_@f1+2,w
  3242  05D9  00A2               	movwf	??__tdiv_to_l_+2
  3243  05DA  1003               	clrc
  3244  05DB  0D21               	rlf	??__tdiv_to_l_+1,w
  3245  05DC  0D22               	rlf	??__tdiv_to_l_+2,w
  3246  05DD  00A8               	movwf	__tdiv_to_l_@exp1
  3247  05DE  08A8               	movf	__tdiv_to_l_@exp1,f
  3248  05DF  1D03               	skipz
  3249  05E0  2DE6               	goto	l5901
  3250  05E1                     l5899:	
  3251  05E1  01F2               	clrf	?__tdiv_to_l_
  3252  05E2  01F3               	clrf	?__tdiv_to_l_+1
  3253  05E3  01F4               	clrf	?__tdiv_to_l_+2
  3254  05E4  01F5               	clrf	?__tdiv_to_l_+3
  3255  05E5  0008               	return
  3256  05E6                     l5901:	
  3257  05E6  0875               	movf	__tdiv_to_l_@f2,w
  3258  05E7  00A0               	movwf	??__tdiv_to_l_
  3259  05E8  0876               	movf	__tdiv_to_l_@f2+1,w
  3260  05E9  00A1               	movwf	??__tdiv_to_l_+1
  3261  05EA  0877               	movf	__tdiv_to_l_@f2+2,w
  3262  05EB  00A2               	movwf	??__tdiv_to_l_+2
  3263  05EC  1003               	clrc
  3264  05ED  0D21               	rlf	??__tdiv_to_l_+1,w
  3265  05EE  0D22               	rlf	??__tdiv_to_l_+2,w
  3266  05EF  00A7               	movwf	__tdiv_to_l_@cntr
  3267  05F0  08A7               	movf	__tdiv_to_l_@cntr,f
  3268  05F1  1903               	btfsc	3,2
  3269  05F2  2DE1               	goto	l5899
  3270  05F3  307F               	movlw	127
  3271  05F4  17F3               	bsf	__tdiv_to_l_@f1+1,7
  3272  05F5  01F4               	clrf	__tdiv_to_l_@f1+2
  3273  05F6  17F6               	bsf	__tdiv_to_l_@f2+1,7
  3274  05F7  01F7               	clrf	__tdiv_to_l_@f2+2
  3275  05F8  01A3               	clrf	__tdiv_to_l_@quot
  3276  05F9  01A4               	clrf	__tdiv_to_l_@quot+1
  3277  05FA  01A5               	clrf	__tdiv_to_l_@quot+2
  3278  05FB  01A6               	clrf	__tdiv_to_l_@quot+3
  3279  05FC  02A8               	subwf	__tdiv_to_l_@exp1,f
  3280  05FD  3098               	movlw	152
  3281  05FE  0727               	addwf	__tdiv_to_l_@cntr,w
  3282  05FF  00A0               	movwf	??__tdiv_to_l_
  3283  0600  02A8               	subwf	__tdiv_to_l_@exp1,f
  3284  0601  3018               	movlw	24
  3285  0602  00A7               	movwf	__tdiv_to_l_@cntr
  3286  0603                     l5915:	
  3287  0603  1003               	clrc
  3288  0604  0DA3               	rlf	__tdiv_to_l_@quot,f
  3289  0605  0DA4               	rlf	__tdiv_to_l_@quot+1,f
  3290  0606  0DA5               	rlf	__tdiv_to_l_@quot+2,f
  3291  0607  0DA6               	rlf	__tdiv_to_l_@quot+3,f
  3292  0608  0877               	movf	__tdiv_to_l_@f2+2,w
  3293  0609  0274               	subwf	__tdiv_to_l_@f1+2,w
  3294  060A  1D03               	skipz
  3295  060B  2E12               	goto	u3285
  3296  060C  0876               	movf	__tdiv_to_l_@f2+1,w
  3297  060D  0273               	subwf	__tdiv_to_l_@f1+1,w
  3298  060E  1D03               	skipz
  3299  060F  2E12               	goto	u3285
  3300  0610  0875               	movf	__tdiv_to_l_@f2,w
  3301  0611  0272               	subwf	__tdiv_to_l_@f1,w
  3302  0612                     u3285:	
  3303  0612  1C03               	skipc
  3304  0613  2E20               	goto	L19
  3305  0614  0875               	movf	__tdiv_to_l_@f2,w
  3306  0615  02F2               	subwf	__tdiv_to_l_@f1,f
  3307  0616  0876               	movf	__tdiv_to_l_@f2+1,w
  3308  0617  1C03               	skipc
  3309  0618  0F76               	incfsz	__tdiv_to_l_@f2+1,w
  3310  0619  02F3               	subwf	__tdiv_to_l_@f1+1,f
  3311  061A  0877               	movf	__tdiv_to_l_@f2+2,w
  3312  061B  1C03               	skipc
  3313  061C  0A77               	incf	__tdiv_to_l_@f2+2,w
  3314  061D  02F4               	subwf	__tdiv_to_l_@f1+2,f
  3315  061E  1423               	bsf	__tdiv_to_l_@quot,0
  3316  061F  1003               	clrc
  3317  0620                     L19:	
  3318  0620  0DF2               	rlf	__tdiv_to_l_@f1,f
  3319  0621  0DF3               	rlf	__tdiv_to_l_@f1+1,f
  3320  0622  0DF4               	rlf	__tdiv_to_l_@f1+2,f
  3321  0623  0BA7               	decfsz	__tdiv_to_l_@cntr,f
  3322  0624  2E03               	goto	l5915
  3323  0625  1FA8               	btfss	__tdiv_to_l_@exp1,7
  3324  0626  2E34               	goto	l5935
  3325  0627  0828               	movf	__tdiv_to_l_@exp1,w
  3326  0628  3A80               	xorlw	128
  3327  0629  3E97               	addlw	151
  3328  062A  1C03               	btfss	3,0
  3329  062B  2DE1               	goto	l5899
  3330  062C                     l5931:	
  3331  062C  1003               	clrc
  3332  062D  0CA6               	rrf	__tdiv_to_l_@quot+3,f
  3333  062E  0CA5               	rrf	__tdiv_to_l_@quot+2,f
  3334  062F  0CA4               	rrf	__tdiv_to_l_@quot+1,f
  3335  0630  0CA3               	rrf	__tdiv_to_l_@quot,f
  3336  0631  0FA8               	incfsz	__tdiv_to_l_@exp1,f
  3337  0632  2E2C               	goto	l5931
  3338  0633  2E42               	goto	l5941
  3339  0634                     l5935:	
  3340  0634  3018               	movlw	24
  3341  0635  0228               	subwf	__tdiv_to_l_@exp1,w
  3342  0636  1803               	btfsc	3,0
  3343  0637  2DE1               	goto	l5899
  3344  0638                     l2436:	
  3345  0638  08A8               	movf	__tdiv_to_l_@exp1,f
  3346  0639  1903               	btfsc	3,2
  3347  063A  2E42               	goto	l5941
  3348  063B  1003               	clrc
  3349  063C  0DA3               	rlf	__tdiv_to_l_@quot,f
  3350  063D  0DA4               	rlf	__tdiv_to_l_@quot+1,f
  3351  063E  0DA5               	rlf	__tdiv_to_l_@quot+2,f
  3352  063F  0DA6               	rlf	__tdiv_to_l_@quot+3,f
  3353  0640  03A8               	decf	__tdiv_to_l_@exp1,f
  3354  0641  2E38               	goto	l2436
  3355  0642                     l5941:	
  3356  0642  0826               	movf	__tdiv_to_l_@quot+3,w
  3357  0643  00F5               	movwf	?__tdiv_to_l_+3
  3358  0644  0825               	movf	__tdiv_to_l_@quot+2,w
  3359  0645  00F4               	movwf	?__tdiv_to_l_+2
  3360  0646  0824               	movf	__tdiv_to_l_@quot+1,w
  3361  0647  00F3               	movwf	?__tdiv_to_l_+1
  3362  0648  0823               	movf	__tdiv_to_l_@quot,w
  3363  0649  00F2               	movwf	?__tdiv_to_l_
  3364  064A  0008               	return
  3365  064B                     __end_of__tdiv_to_l_:	
  3366  064B                     __ptext788:	
  3367 ;; =============== function ___ftge ends ============
  3368                           
  3369                           
  3370 ;; *************** function ___ftneg *****************
  3371 ;; Defined at:
  3372 ;;		line 16 in file "C:\Program Files (x86)\HI-TECH Software\PICC\9.83\sources\ftneg.c"
  3373 ;; Parameters:    Size  Location     Type
  3374 ;;  f1              3    2[COMMON] float 
  3375 ;; Auto vars:     Size  Location     Type
  3376 ;;		None
  3377 ;; Return value:  Size  Location     Type
  3378 ;;                  3    2[COMMON] float 
  3379 ;; Registers used:
  3380 ;;		wreg
  3381 ;; Tracked objects:
  3382 ;;		On entry : 160/20
  3383 ;;		On exit  : 160/20
  3384 ;;		Unchanged: FFE9F/0
  3385 ;; Data sizes:     COMMON   BANK0   BANK1   BANK3   BANK2
  3386 ;;      Params:         3       0       0       0       0
  3387 ;;      Locals:         0       0       0       0       0
  3388 ;;      Temps:          0       0       0       0       0
  3389 ;;      Totals:         3       0       0       0       0
  3390 ;;Total ram usage:        3 bytes
  3391 ;; Hardware stack levels used:    1
  3392 ;; Hardware stack levels required when called:    1
  3393 ;; This function calls:
  3394 ;;		Nothing
  3395 ;; This function is called by:
  3396 ;;		_sprintf
  3397 ;; This function uses a non-reentrant model
  3398 ;;
  3399  064B                     ___ftneg:	
  3400                           
  3401                           ; Regs used in ___ftneg: [wreg]
  3402  064B  0874               	movf	___ftneg@f1+2,w
  3403  064C  0473               	iorwf	___ftneg@f1+1,w
  3404  064D  0472               	iorwf	___ftneg@f1,w
  3405  064E  1903               	skipnz
  3406  064F  0008               	return
  3407  0650  3080               	movlw	128
  3408  0651  06F4               	xorwf	___ftneg@f1+2,f
  3409  0652  0008               	return
  3410  0653                     __end_of___ftneg:	
  3411  0653                     __ptext783:	
  3412 ;; =============== function ___ftdiv ends ============
  3413                           
  3414                           
  3415 ;; *************** function ___ftadd *****************
  3416 ;; Defined at:
  3417 ;;		line 87 in file "C:\Program Files (x86)\HI-TECH Software\PICC\9.83\sources\ftadd.c"
  3418 ;; Parameters:    Size  Location     Type
  3419 ;;  f1              3   36[BANK0 ] float 
  3420 ;;  f2              3   39[BANK0 ] float 
  3421 ;; Auto vars:     Size  Location     Type
  3422 ;;  exp1            1   47[BANK0 ] unsigned char 
  3423 ;;  exp2            1   46[BANK0 ] unsigned char 
  3424 ;;  sign            1   45[BANK0 ] unsigned char 
  3425 ;; Return value:  Size  Location     Type
  3426 ;;                  3   36[BANK0 ] float 
  3427 ;; Registers used:
  3428 ;;		wreg, status,2, status,0, pclath, cstack
  3429 ;; Tracked objects:
  3430 ;;		On entry : 60/0
  3431 ;;		On exit  : 60/0
  3432 ;;		Unchanged: FFF9F/0
  3433 ;; Data sizes:     COMMON   BANK0   BANK1   BANK3   BANK2
  3434 ;;      Params:         0       6       0       0       0
  3435 ;;      Locals:         0       3       0       0       0
  3436 ;;      Temps:          0       3       0       0       0
  3437 ;;      Totals:         0      12       0       0       0
  3438 ;;Total ram usage:       12 bytes
  3439 ;; Hardware stack levels used:    1
  3440 ;; Hardware stack levels required when called:    2
  3441 ;; This function calls:
  3442 ;;		___ftpack
  3443 ;; This function is called by:
  3444 ;;		_sprintf
  3445 ;;		___ftsub
  3446 ;; This function uses a non-reentrant model
  3447 ;;
  3448  0653                     ___ftadd:	
  3449                           
  3450                           ; Regs used in ___ftadd: [wreg+status,2+status,0+pclath+cstack]
  3451  0653  0844               	movf	___ftadd@f1,w
  3452  0654  00CA               	movwf	??___ftadd
  3453  0655  0845               	movf	___ftadd@f1+1,w
  3454  0656  00CB               	movwf	??___ftadd+1
  3455  0657  0846               	movf	___ftadd@f1+2,w
  3456  0658  00CC               	movwf	??___ftadd+2
  3457  0659  1003               	clrc
  3458  065A  0D4B               	rlf	??___ftadd+1,w
  3459  065B  0D4C               	rlf	??___ftadd+2,w
  3460  065C  00CF               	movwf	___ftadd@exp1
  3461  065D  0847               	movf	___ftadd@f2,w
  3462  065E  00CA               	movwf	??___ftadd
  3463  065F  0848               	movf	___ftadd@f2+1,w
  3464  0660  00CB               	movwf	??___ftadd+1
  3465  0661  0849               	movf	___ftadd@f2+2,w
  3466  0662  00CC               	movwf	??___ftadd+2
  3467  0663  1003               	clrc
  3468  0664  0D4B               	rlf	??___ftadd+1,w
  3469  0665  0D4C               	rlf	??___ftadd+2,w
  3470  0666  00CE               	movwf	___ftadd@exp2
  3471  0667  084F               	movf	___ftadd@exp1,w
  3472  0668  1903               	btfsc	3,2
  3473  0669  2E76               	goto	l6301
  3474  066A  084E               	movf	___ftadd@exp2,w
  3475  066B  024F               	subwf	___ftadd@exp1,w
  3476  066C  084E               	movf	___ftadd@exp2,w
  3477  066D  1803               	skipnc
  3478  066E  2E7E               	goto	L7
  3479  066F  00CA               	movwf	??___ftadd
  3480  0670  084F               	movf	___ftadd@exp1,w
  3481  0671  02CA               	subwf	??___ftadd,f
  3482  0672  3019               	movlw	25
  3483  0673  024A               	subwf	??___ftadd,w
  3484  0674  1C03               	skipc
  3485  0675  2E7D               	goto	l6305
  3486  0676                     l6301:	
  3487  0676  0847               	movf	___ftadd@f2,w
  3488  0677  00C4               	movwf	?___ftadd
  3489  0678  0848               	movf	___ftadd@f2+1,w
  3490  0679  00C5               	movwf	?___ftadd+1
  3491  067A  0849               	movf	___ftadd@f2+2,w
  3492  067B  00C6               	movwf	?___ftadd+2
  3493  067C  0008               	return
  3494  067D                     l6305:	
  3495  067D  084E               	movf	___ftadd@exp2,w
  3496  067E                     L7:	
  3497  067E  1903               	btfsc	3,2
  3498  067F  0008               	return
  3499  0680  084F               	movf	___ftadd@exp1,w
  3500  0681  024E               	subwf	___ftadd@exp2,w
  3501  0682  1803               	skipnc
  3502  0683  2E8C               	goto	l6311
  3503  0684  084F               	movf	___ftadd@exp1,w
  3504  0685  00CA               	movwf	??___ftadd
  3505  0686  084E               	movf	___ftadd@exp2,w
  3506  0687  02CA               	subwf	??___ftadd,f
  3507  0688  3019               	movlw	25
  3508  0689  024A               	subwf	??___ftadd,w
  3509  068A  1803               	btfsc	3,0
  3510  068B  0008               	return
  3511  068C                     l6311:	
  3512  068C  3006               	movlw	6
  3513  068D  00CD               	movwf	___ftadd@sign
  3514  068E  1BC6               	btfsc	___ftadd@f1+2,7
  3515  068F  17CD               	bsf	___ftadd@sign,7
  3516  0690  1BC9               	btfsc	___ftadd@f2+2,7
  3517  0691  174D               	bsf	___ftadd@sign,6
  3518  0692  17C5               	bsf	___ftadd@f1+1,7
  3519  0693  01C6               	clrf	___ftadd@f1+2
  3520  0694  17C8               	bsf	___ftadd@f2+1,7
  3521  0695  01C9               	clrf	___ftadd@f2+2
  3522  0696  084E               	movf	___ftadd@exp2,w
  3523  0697  024F               	subwf	___ftadd@exp1,w
  3524  0698  1803               	skipnc
  3525  0699  2EB3               	goto	l6333
  3526  069A                     l6323:	
  3527  069A  1003               	clrc
  3528  069B  0DC7               	rlf	___ftadd@f2,f
  3529  069C  0DC8               	rlf	___ftadd@f2+1,f
  3530  069D  0DC9               	rlf	___ftadd@f2+2,f
  3531  069E  03CE               	decf	___ftadd@exp2,f
  3532  069F  084E               	movf	___ftadd@exp2,w
  3533  06A0  064F               	xorwf	___ftadd@exp1,w
  3534  06A1  1903               	skipnz
  3535  06A2  2EAE               	goto	l6331
  3536  06A3  03CD               	decf	___ftadd@sign,f
  3537  06A4  084D               	movf	___ftadd@sign,w
  3538  06A5  3907               	andlw	7
  3539  06A6  1903               	btfsc	3,2
  3540  06A7  2EAE               	goto	l6331
  3541  06A8  2E9A               	goto	l6323
  3542  06A9                     l6329:	
  3543  06A9  1003               	clrc
  3544  06AA  0CC6               	rrf	___ftadd@f1+2,f
  3545  06AB  0CC5               	rrf	___ftadd@f1+1,f
  3546  06AC  0CC4               	rrf	___ftadd@f1,f
  3547  06AD  0ACF               	incf	___ftadd@exp1,f
  3548  06AE                     l6331:	
  3549  06AE  084F               	movf	___ftadd@exp1,w
  3550  06AF  064E               	xorwf	___ftadd@exp2,w
  3551  06B0  1903               	btfsc	3,2
  3552  06B1  2ECF               	goto	l2242
  3553  06B2  2EA9               	goto	l6329
  3554  06B3                     l6333:	
  3555  06B3  084F               	movf	___ftadd@exp1,w
  3556  06B4  024E               	subwf	___ftadd@exp2,w
  3557  06B5  1803               	skipnc
  3558  06B6  2ECF               	goto	l2242
  3559  06B7                     l6335:	
  3560  06B7  1003               	clrc
  3561  06B8  0DC4               	rlf	___ftadd@f1,f
  3562  06B9  0DC5               	rlf	___ftadd@f1+1,f
  3563  06BA  0DC6               	rlf	___ftadd@f1+2,f
  3564  06BB  03CF               	decf	___ftadd@exp1,f
  3565  06BC  084E               	movf	___ftadd@exp2,w
  3566  06BD  064F               	xorwf	___ftadd@exp1,w
  3567  06BE  1903               	skipnz
  3568  06BF  2ECB               	goto	l6343
  3569  06C0  03CD               	decf	___ftadd@sign,f
  3570  06C1  084D               	movf	___ftadd@sign,w
  3571  06C2  3907               	andlw	7
  3572  06C3  1903               	btfsc	3,2
  3573  06C4  2ECB               	goto	l6343
  3574  06C5  2EB7               	goto	l6335
  3575  06C6                     l6341:	
  3576  06C6  1003               	clrc
  3577  06C7  0CC9               	rrf	___ftadd@f2+2,f
  3578  06C8  0CC8               	rrf	___ftadd@f2+1,f
  3579  06C9  0CC7               	rrf	___ftadd@f2,f
  3580  06CA  0ACE               	incf	___ftadd@exp2,f
  3581  06CB                     l6343:	
  3582  06CB  084F               	movf	___ftadd@exp1,w
  3583  06CC  064E               	xorwf	___ftadd@exp2,w
  3584  06CD  1D03               	skipz
  3585  06CE  2EC6               	goto	l6341
  3586  06CF                     l2242:	
  3587  06CF  1FCD               	btfss	___ftadd@sign,7
  3588  06D0  2EDA               	goto	l6349
  3589  06D1  30FF               	movlw	255
  3590  06D2  06C4               	xorwf	___ftadd@f1,f
  3591  06D3  06C5               	xorwf	___ftadd@f1+1,f
  3592  06D4  06C6               	xorwf	___ftadd@f1+2,f
  3593  06D5  0AC4               	incf	___ftadd@f1,f
  3594  06D6  1903               	skipnz
  3595  06D7  0AC5               	incf	___ftadd@f1+1,f
  3596  06D8  1903               	skipnz
  3597  06D9  0AC6               	incf	___ftadd@f1+2,f
  3598  06DA                     l6349:	
  3599  06DA  1F4D               	btfss	___ftadd@sign,6
  3600  06DB  2EE5               	goto	l6355
  3601  06DC  30FF               	movlw	255
  3602  06DD  06C7               	xorwf	___ftadd@f2,f
  3603  06DE  06C8               	xorwf	___ftadd@f2+1,f
  3604  06DF  06C9               	xorwf	___ftadd@f2+2,f
  3605  06E0  0AC7               	incf	___ftadd@f2,f
  3606  06E1  1903               	skipnz
  3607  06E2  0AC8               	incf	___ftadd@f2+1,f
  3608  06E3  1903               	skipnz
  3609  06E4  0AC9               	incf	___ftadd@f2+2,f
  3610  06E5                     l6355:	
  3611  06E5  01CD               	clrf	___ftadd@sign
  3612  06E6  0844               	movf	___ftadd@f1,w
  3613  06E7  07C7               	addwf	___ftadd@f2,f
  3614  06E8  0845               	movf	___ftadd@f1+1,w
  3615  06E9  1103               	clrz
  3616  06EA  1803               	skipnc
  3617  06EB  0A45               	incf	___ftadd@f1+1,w
  3618  06EC  1D03               	btfss	3,2
  3619  06ED  07C8               	addwf	___ftadd@f2+1,f
  3620  06EE  0846               	movf	___ftadd@f1+2,w
  3621  06EF  1103               	clrz
  3622  06F0  1803               	skipnc
  3623  06F1  0A46               	incf	___ftadd@f1+2,w
  3624  06F2  1D03               	btfss	3,2
  3625  06F3  07C9               	addwf	___ftadd@f2+2,f
  3626  06F4  1FC9               	btfss	___ftadd@f2+2,7
  3627  06F5  2F01               	goto	l6367
  3628  06F6  30FF               	movlw	255
  3629  06F7  06C7               	xorwf	___ftadd@f2,f
  3630  06F8  06C8               	xorwf	___ftadd@f2+1,f
  3631  06F9  06C9               	xorwf	___ftadd@f2+2,f
  3632  06FA  0AC7               	incf	___ftadd@f2,f
  3633  06FB  1903               	skipnz
  3634  06FC  0AC8               	incf	___ftadd@f2+1,f
  3635  06FD  1903               	skipnz
  3636  06FE  0AC9               	incf	___ftadd@f2+2,f
  3637  06FF  01CD               	clrf	___ftadd@sign
  3638  0700  0ACD               	incf	___ftadd@sign,f
  3639  0701                     l6367:	
  3640  0701  0847               	movf	___ftadd@f2,w
  3641  0702  00F2               	movwf	?___ftpack
  3642  0703  0848               	movf	___ftadd@f2+1,w
  3643  0704  00F3               	movwf	?___ftpack+1
  3644  0705  0849               	movf	___ftadd@f2+2,w
  3645  0706  00F4               	movwf	?___ftpack+2
  3646  0707  084F               	movf	___ftadd@exp1,w
  3647  0708  00F5               	movwf	?___ftpack+3
  3648  0709  084D               	movf	___ftadd@sign,w
  3649  070A  00F6               	movwf	?___ftpack+4
  3650  070B  120A  158A  2769   	fcall	___ftpack
  3651  070E  0872               	movf	?___ftpack,w
  3652  070F  00C4               	movwf	?___ftadd
  3653  0710  0873               	movf	?___ftpack+1,w
  3654  0711  00C5               	movwf	?___ftadd+1
  3655  0712  0874               	movf	?___ftpack+2,w
  3656  0713  00C6               	movwf	?___ftadd+2
  3657  0714  0008               	return
  3658  0715                     __end_of___ftadd:	
  3659  0715                     __ptext776:	
  3660 ;; =============== function _sprintf ends ============
  3661                           
  3662                           
  3663 ;; *************** function ___ftsub *****************
  3664 ;; Defined at:
  3665 ;;		line 17 in file "C:\Program Files (x86)\HI-TECH Software\PICC\9.83\sources\ftsub.c"
  3666 ;; Parameters:    Size  Location     Type
  3667 ;;  f2              3   48[BANK0 ] float 
  3668 ;;  f1              3   51[BANK0 ] float 
  3669 ;; Auto vars:     Size  Location     Type
  3670 ;;		None
  3671 ;; Return value:  Size  Location     Type
  3672 ;;                  3   48[BANK0 ] float 
  3673 ;; Registers used:
  3674 ;;		wreg, status,2, status,0, pclath, cstack
  3675 ;; Tracked objects:
  3676 ;;		On entry : 60/0
  3677 ;;		On exit  : 60/0
  3678 ;;		Unchanged: FFF9F/0
  3679 ;; Data sizes:     COMMON   BANK0   BANK1   BANK3   BANK2
  3680 ;;      Params:         0       6       0       0       0
  3681 ;;      Locals:         0       0       0       0       0
  3682 ;;      Temps:          0       0       0       0       0
  3683 ;;      Totals:         0       6       0       0       0
  3684 ;;Total ram usage:        6 bytes
  3685 ;; Hardware stack levels used:    1
  3686 ;; Hardware stack levels required when called:    3
  3687 ;; This function calls:
  3688 ;;		___ftadd
  3689 ;; This function is called by:
  3690 ;;		_sprintf
  3691 ;; This function uses a non-reentrant model
  3692 ;;
  3693  0715                     ___ftsub:	
  3694                           
  3695                           ; Regs used in ___ftsub: [wreg+status,2+status,0+pclath+cstack]
  3696  0715  3080               	movlw	128
  3697  0716  06D2               	xorwf	___ftsub@f2+2,f
  3698  0717  0853               	movf	___ftsub@f1,w
  3699  0718  00C4               	movwf	?___ftadd
  3700  0719  0854               	movf	___ftsub@f1+1,w
  3701  071A  00C5               	movwf	?___ftadd+1
  3702  071B  0855               	movf	___ftsub@f1+2,w
  3703  071C  00C6               	movwf	?___ftadd+2
  3704  071D  0850               	movf	___ftsub@f2,w
  3705  071E  00C7               	movwf	?___ftadd+3
  3706  071F  0851               	movf	___ftsub@f2+1,w
  3707  0720  00C8               	movwf	?___ftadd+4
  3708  0721  0852               	movf	___ftsub@f2+2,w
  3709  0722  00C9               	movwf	?___ftadd+5
  3710  0723  2653               	fcall	___ftadd
  3711  0724  0844               	movf	?___ftadd,w
  3712  0725  00D0               	movwf	?___ftsub
  3713  0726  0845               	movf	?___ftadd+1,w
  3714  0727  00D1               	movwf	?___ftsub+1
  3715  0728  0846               	movf	?___ftadd+2,w
  3716  0729  00D2               	movwf	?___ftsub+2
  3717  072A  0008               	return
  3718  072B                     __end_of___ftsub:	
  3719  072B                     PL3:	
  3720  072B  0838               	movf	sprintf@c^(0+128),w
  3721  072C  1283               	bcf	3,5	;RP0=0, select bank0
  3722  072D  00DE               	movwf	??_sprintf
  3723  072E  1003               	clrc
  3724  072F  0DDE               	rlf	??_sprintf,f
  3725  0730  1003               	clrc
  3726  0731  0D5E               	rlf	??_sprintf,w
  3727  0732  3E4F               	addlw	low (_dpowers-__stringbase)
  3728  0733  0084               	movwf	4
  3729  0734  0008               	return
  3730  0735                     PL4:	
  3731  0735  300A               	movlw	10
  3732  0736  1283               	bcf	3,5	;RP0=0, select bank0
  3733  0737  00A5               	movwf	?___llmod
  3734  0738  01A6               	clrf	?___llmod+1
  3735  0739  01A7               	clrf	?___llmod+2
  3736  073A  01A8               	clrf	?___llmod+3
  3737  073B  1683               	bsf	3,5	;RP0=1, select bank1
  3738  073C  0008               	return
  3739  073D                     PL5:	
  3740  073D  082B               	movf	?___fttol+3,w
  3741  073E  1683               	bsf	3,5	;RP0=1, select bank1
  3742  073F  00AB               	movwf	(sprintf@_val+3)^(0+128)
  3743  0740  1283               	bcf	3,5	;RP0=0, select bank0
  3744  0741  082A               	movf	?___fttol+2,w
  3745  0742  1683               	bsf	3,5	;RP0=1, select bank1
  3746  0743  00AA               	movwf	(sprintf@_val+2)^(0+128)
  3747  0744  1283               	bcf	3,5	;RP0=0, select bank0
  3748  0745  0829               	movf	?___fttol+1,w
  3749  0746  1683               	bsf	3,5	;RP0=1, select bank1
  3750  0747  00A9               	movwf	(sprintf@_val+1)^(0+128)
  3751  0748  1283               	bcf	3,5	;RP0=0, select bank0
  3752  0749  0828               	movf	?___fttol,w
  3753  074A  0008               	return
  3754  074B                     PL10:	
  3755  074B  0844               	movf	?_scale,w
  3756  074C  1683               	bsf	3,5	;RP0=1, select bank1
  3757  074D  00A5               	movwf	sprintf@integ^(0+128)
  3758  074E  1283               	bcf	3,5	;RP0=0, select bank0
  3759  074F  0845               	movf	?_scale+1,w
  3760  0750  1683               	bsf	3,5	;RP0=1, select bank1
  3761  0751  00A6               	movwf	(sprintf@integ+1)^(0+128)
  3762  0752  1283               	bcf	3,5	;RP0=0, select bank0
  3763  0753  0846               	movf	?_scale+2,w
  3764  0754  1683               	bsf	3,5	;RP0=1, select bank1
  3765  0755  00A7               	movwf	(sprintf@integ+2)^(0+128)
  3766  0756  0833               	movf	sprintf@fval^(0+128),w
  3767  0757  0008               	return
  3768  0758                     PL12:	
  3769  0758  0772               	addwf	?___wmul,w
  3770  0759  00DE               	movwf	??_sprintf
  3771  075A  3000               	movlw	0
  3772  075B  1803               	skipnc
  3773  075C  3001               	movlw	1
  3774  075D  0773               	addwf	?___wmul+1,w
  3775  075E  00DF               	movwf	??_sprintf+1
  3776  075F  085E               	movf	??_sprintf,w
  3777  0760  3ED0               	addlw	208
  3778  0761  1683               	bsf	3,5	;RP0=1, select bank1
  3779  0762  0008               	return
  3780  0763                     PL13:	
  3781  0763  1283               	bcf	3,5	;RP0=0, select bank0
  3782  0764  00A8               	movwf	?___fttol
  3783  0765  1683               	bsf	3,5	;RP0=1, select bank1
  3784  0766  0834               	movf	(sprintf@fval+1)^(0+128),w
  3785  0767  1283               	bcf	3,5	;RP0=0, select bank0
  3786  0768  00A9               	movwf	?___fttol+1
  3787  0769  1683               	bsf	3,5	;RP0=1, select bank1
  3788  076A  0835               	movf	(sprintf@fval+2)^(0+128),w
  3789  076B  1283               	bcf	3,5	;RP0=0, select bank0
  3790  076C  00AA               	movwf	?___fttol+2
  3791  076D  0008               	return
  3792  076E                     PL14:	
  3793  076E  1283               	bcf	3,5	;RP0=0, select bank0
  3794  076F  00B5               	movwf	?___ftmul
  3795  0770  1683               	bsf	3,5	;RP0=1, select bank1
  3796  0771  0834               	movf	(sprintf@fval+1)^(0+128),w
  3797  0772  1283               	bcf	3,5	;RP0=0, select bank0
  3798  0773  00B6               	movwf	?___ftmul+1
  3799  0774  1683               	bsf	3,5	;RP0=1, select bank1
  3800  0775  0835               	movf	(sprintf@fval+2)^(0+128),w
  3801  0776  1283               	bcf	3,5	;RP0=0, select bank0
  3802  0777  00B7               	movwf	?___ftmul+2
  3803  0778  0008               	return
  3804  0779                     PL15:	
  3805  0779  00F5               	movwf	?___lldiv+3
  3806  077A  1683               	bsf	3,5	;RP0=1, select bank1
  3807  077B  082B               	movf	(sprintf@_val+3)^(0+128),w
  3808  077C  00F9               	movwf	?___lldiv+7
  3809  077D  082A               	movf	(sprintf@_val+2)^(0+128),w
  3810  077E  00F8               	movwf	?___lldiv+6
  3811  077F  0829               	movf	(sprintf@_val+1)^(0+128),w
  3812  0780  00F7               	movwf	?___lldiv+5
  3813  0781  0828               	movf	sprintf@_val^(0+128),w
  3814  0782  00F6               	movwf	?___lldiv+4
  3815  0783  0008               	return
  3816  0784                     PL17:	
  3817  0784  1283               	bcf	3,5	;RP0=0, select bank0
  3818  0785  00DE               	movwf	??_sprintf
  3819  0786  01DF               	clrf	??_sprintf+1
  3820  0787  1BDE               	btfsc	??_sprintf,7
  3821  0788  03DF               	decf	??_sprintf+1,f
  3822  0789  085F               	movf	??_sprintf+1,w
  3823  078A  3A80               	xorlw	128
  3824  078B  00E0               	movwf	??_sprintf+2
  3825  078C  1683               	bsf	3,5	;RP0=1, select bank1
  3826  078D  0008               	return
  3827  078E                     PL19:	
  3828  078E  0875               	movf	?___lldiv+3,w
  3829  078F  00AC               	movwf	?___llmod+7
  3830  0790  0874               	movf	?___lldiv+2,w
  3831  0791  00AB               	movwf	?___llmod+6
  3832  0792  0873               	movf	?___lldiv+1,w
  3833  0793  00AA               	movwf	?___llmod+5
  3834  0794  0872               	movf	?___lldiv,w
  3835  0795  00A9               	movwf	?___llmod+4
  3836  0796  0008               	return
  3837  0797                     PL20:	
  3838  0797  0825               	movf	?___llmod,w
  3839  0798  3E30               	addlw	48
  3840  0799  00DF               	movwf	??_sprintf+1
  3841  079A  1683               	bsf	3,5	;RP0=1, select bank1
  3842  079B  0832               	movf	sprintf@sp^(0+128),w
  3843  079C  0084               	movwf	4
  3844  079D  1283               	bcf	3,5	;RP0=0, select bank0
  3845  079E  085F               	movf	??_sprintf+1,w
  3846  079F  0008               	return
  3847  07A0                     PL21:	
  3848  07A0  1303               	bcf	3,6	;RP1=0, select bank1
  3849  07A1  0838               	movf	sprintf@c^(0+128),w
  3850  07A2  1283               	bcf	3,5	;RP0=0, select bank0
  3851  07A3  00DE               	movwf	??_sprintf
  3852  07A4  01DF               	clrf	??_sprintf+1
  3853  07A5  1BDE               	btfsc	??_sprintf,7
  3854  07A6  03DF               	decf	??_sprintf+1,f
  3855  07A7  1683               	bsf	3,5	;RP0=1, select bank1
  3856  07A8  0008               	return
  3857  07A9                     PL22:	
  3858  07A9  0825               	movf	sprintf@integ^(0+128),w
  3859  07AA  00F2               	movwf	?___ftge
  3860  07AB  0826               	movf	(sprintf@integ+1)^(0+128),w
  3861  07AC  00F3               	movwf	?___ftge+1
  3862  07AD  0827               	movf	(sprintf@integ+2)^(0+128),w
  3863  07AE  00F4               	movwf	?___ftge+2
  3864  07AF  0008               	return
  3865  07B0                     PL28:	
  3866  07B0  0084               	movwf	4
  3867  07B1  3030               	movlw	48
  3868  07B2  1383               	bcf	3,7	;select IRP bank0
  3869  07B3  0080               	movwf	0
  3870  07B4  30FF               	movlw	-1
  3871  07B5  0AB2               	incf	sprintf@sp^(0+128),f
  3872  07B6  0008               	return
  3873  07B7                     PL30:	
  3874  07B7  1283               	bcf	3,5	;RP0=0, select bank0
  3875  07B8  085F               	movf	??_sprintf+1,w
  3876  07B9  1803               	skipnc
  3877  07BA  3E01               	addlw	1
  3878  07BB  3EFF               	addlw	255
  3879  07BC  1683               	bsf	3,5	;RP0=1, select bank1
  3880  07BD  0008               	return
  3881  07BE                     PL31:	
  3882  07BE  0828               	movf	___fttol@f1,w
  3883  07BF  00AC               	movwf	??___fttol
  3884  07C0  0829               	movf	___fttol@f1+1,w
  3885  07C1  00AD               	movwf	??___fttol+1
  3886  07C2  082A               	movf	___fttol@f1+2,w
  3887  07C3  00AE               	movwf	??___fttol+2
  3888  07C4  0008               	return
  3889  07C5                     PL32:	
  3890  07C5  1683               	bsf	3,5	;RP0=1, select bank1
  3891  07C6  1303               	bcf	3,6	;RP1=0, select bank1
  3892  07C7  0008               	return
  3893                           
  3894                           	psect	text778
  3895  0AE5                     __ptext778:	
  3896 ;; =============== function _scale ends ============
  3897                           
  3898                           
  3899 ;; *************** function _fround *****************
  3900 ;; Defined at:
  3901 ;;		line 406 in file "C:\Program Files (x86)\HI-TECH Software\PICC\9.83\lib\doprnt.c"
  3902 ;; Parameters:    Size  Location     Type
  3903 ;;  prec            1    wreg     unsigned char 
  3904 ;; Auto vars:     Size  Location     Type
  3905 ;;  prec            1   57[BANK0 ] unsigned char 
  3906 ;; Return value:  Size  Location     Type
  3907 ;;                  3   48[BANK0 ] unsigned char 
  3908 ;; Registers used:
  3909 ;;		wreg, fsr0l, fsr0h, status,2, status,0, pclath, cstack
  3910 ;; Tracked objects:
  3911 ;;		On entry : 60/20
  3912 ;;		On exit  : 60/0
  3913 ;;		Unchanged: FFF9F/0
  3914 ;; Data sizes:     COMMON   BANK0   BANK1   BANK3   BANK2
  3915 ;;      Params:         0       3       0       0       0
  3916 ;;      Locals:         0       7       0       0       0
  3917 ;;      Temps:          0       0       0       0       0
  3918 ;;      Totals:         0      10       0       0       0
  3919 ;;Total ram usage:       10 bytes
  3920 ;; Hardware stack levels used:    1
  3921 ;; Hardware stack levels required when called:    3
  3922 ;; This function calls:
  3923 ;;		___lbmod
  3924 ;;		___bmul
  3925 ;;		___lbdiv
  3926 ;;		___ftmul
  3927 ;; This function is called by:
  3928 ;;		_sprintf
  3929 ;; This function uses a non-reentrant model
  3930 ;;
  3931  0AE5                     _fround:	
  3932                           
  3933                           ; Regs used in _fround: [wreg-fsr0h+status,2+status,0+pclath+cstack]
  3934                           ;fround@prec stored from wreg
  3935  0AE5  1283               	bcf	3,5	;RP0=0, select bank0
  3936  0AE6  00D9               	movwf	fround@prec
  3937  0AE7  306E               	movlw	110
  3938  0AE8  0259               	subwf	fround@prec,w
  3939  0AE9  1C03               	skipc
  3940  0AEA  2B70               	goto	l6503
  3941  0AEB  3003               	movlw	3
  3942  0AEC  00F8               	movwf	?___bmul
  3943  0AED  300A               	movlw	10
  3944  0AEE  00F7               	movwf	?___lbdiv
  3945  0AEF  3064               	movlw	100
  3946  0AF0  00F2               	movwf	?___lbmod
  3947  0AF1  0859               	movf	fround@prec,w
  3948  0AF2  2405  120A  158A   	fcall	___lbmod
  3949  0AF5  23EA               	fcall	___lbdiv
  3950  0AF6  120A  158A  275B   	fcall	___bmul
      +       120A  158A         
  3951  0AFB  3E1C               	addlw	low ((__npowers_-__stringbase+27))
  3952  0AFC  0084               	movwf	4
  3953  0AFD  120A  158A  2000   	fcall	stringdir
      +       120A  158A         
  3954  0B02  00B5               	movwf	?___ftmul
  3955  0B03  120A  158A  2000   	fcall	stringdir
      +       120A  158A         
  3956  0B08  00B6               	movwf	?___ftmul+1
  3957  0B09  120A  158A  2000   	fcall	stringdir
      +       120A  158A         
  3958  0B0E  00B7               	movwf	?___ftmul+2
  3959  0B0F  3003               	movlw	3
  3960  0B10  00F8               	movwf	?___bmul
  3961  0B11  3064               	movlw	100
  3962  0B12  00F7               	movwf	?___lbdiv
  3963  0B13  0859               	movf	fround@prec,w
  3964  0B14  23EA               	fcall	___lbdiv
  3965  0B15  120A  158A  275B   	fcall	___bmul
      +       120A  158A         
  3966  0B1A  3E37               	addlw	low ((__npowers_-__stringbase+54))
  3967  0B1B  0084               	movwf	4
  3968  0B1C  120A  158A  2000   	fcall	stringdir
      +       120A  158A         
  3969  0B21  00B8               	movwf	?___ftmul+3
  3970  0B22  120A  158A  2000   	fcall	stringdir
      +       120A  158A         
  3971  0B27  00B9               	movwf	?___ftmul+4
  3972  0B28  120A  158A  2000   	fcall	stringdir
      +       120A  158A         
  3973  0B2D  00BA               	movwf	?___ftmul+5
  3974  0B2E  120A  158A  26EC   	fcall	___ftmul
      +       120A  158A         
  3975  0B33  2430  120A  158A   	fcall	PL29	;call to abstracted procedure
  3976  0B36  3003               	movlw	3
  3977  0B37  00F8               	movwf	?___bmul
  3978  0B38  300A               	movlw	10
  3979  0B39  00F2               	movwf	?___lbmod
  3980  0B3A  0859               	movf	fround@prec,w
  3981  0B3B  2405               	fcall	___lbmod
  3982  0B3C  120A  158A  275B   	fcall	___bmul
      +       120A  158A         
  3983  0B41  3E01               	addlw	low (__npowers_-__stringbase)
  3984  0B42  0084               	movwf	4
  3985  0B43  120A  158A  2000   	fcall	stringdir
      +       120A  158A         
  3986  0B48  00B5               	movwf	?___ftmul
  3987  0B49  120A  158A  2000   	fcall	stringdir
      +       120A  158A         
  3988  0B4E  00B6               	movwf	?___ftmul+1
  3989  0B4F  120A  158A  2000   	fcall	stringdir
      +       120A  158A         
  3990  0B54  2428               	fcall	PL23	;call to abstracted procedure
  3991  0B55  120A  158A  26EC   	fcall	___ftmul
      +       120A  158A         
  3992  0B5A  0835               	movf	?___ftmul,w
  3993  0B5B  00D3               	movwf	_fround$2807
  3994  0B5C  0836               	movf	?___ftmul+1,w
  3995  0B5D  00D4               	movwf	_fround$2807+1
  3996  0B5E  0837               	movf	?___ftmul+2,w
  3997  0B5F  00D5               	movwf	_fround$2807+2
  3998  0B60  303F               	movlw	63
  3999  0B61  01B5               	clrf	?___ftmul
  4000  0B62  01B6               	clrf	?___ftmul+1
  4001  0B63  00B7               	movwf	?___ftmul+2
  4002  0B64  0853               	movf	_fround$2807,w
  4003  0B65  00B8               	movwf	?___ftmul+3
  4004  0B66  0854               	movf	_fround$2807+1,w
  4005  0B67  00B9               	movwf	?___ftmul+4
  4006  0B68  0855               	movf	_fround$2807+2,w
  4007  0B69  00BA               	movwf	?___ftmul+5
  4008  0B6A  120A  158A  26EC   	fcall	___ftmul
      +       120A  158A         
  4009  0B6F  2C21               	ljmp	PL16	;call to abstracted procedure
  4010  0B70                     l6503:	
  4011  0B70  300B               	movlw	11
  4012  0B71  0259               	subwf	fround@prec,w
  4013  0B72  1C03               	skipc
  4014  0B73  2BC4               	goto	l6511
  4015  0B74  3003               	movlw	3
  4016  0B75  00F8               	movwf	?___bmul
  4017  0B76  300A               	movlw	10
  4018  0B77  00F2               	movwf	?___lbmod
  4019  0B78  0859               	movf	fround@prec,w
  4020  0B79  2405               	fcall	___lbmod
  4021  0B7A  120A  158A  275B   	fcall	___bmul
      +       120A  158A         
  4022  0B7F  3E01               	addlw	low (__npowers_-__stringbase)
  4023  0B80  0084               	movwf	4
  4024  0B81  120A  158A  2000   	fcall	stringdir
      +       120A  158A         
  4025  0B86  00B5               	movwf	?___ftmul
  4026  0B87  120A  158A  2000   	fcall	stringdir
      +       120A  158A         
  4027  0B8C  00B6               	movwf	?___ftmul+1
  4028  0B8D  120A  158A  2000   	fcall	stringdir
      +       120A  158A         
  4029  0B92  00B7               	movwf	?___ftmul+2
  4030  0B93  3003               	movlw	3
  4031  0B94  00F8               	movwf	?___bmul
  4032  0B95  300A               	movlw	10
  4033  0B96  00F7               	movwf	?___lbdiv
  4034  0B97  0859               	movf	fround@prec,w
  4035  0B98  23EA               	fcall	___lbdiv
  4036  0B99  120A  158A  275B   	fcall	___bmul
      +       120A  158A         
  4037  0B9E  3E1C               	addlw	low ((__npowers_-__stringbase+27))
  4038  0B9F  0084               	movwf	4
  4039  0BA0  120A  158A  2000   	fcall	stringdir
      +       120A  158A         
  4040  0BA5  00B8               	movwf	?___ftmul+3
  4041  0BA6  120A  158A  2000   	fcall	stringdir
      +       120A  158A         
  4042  0BAB  00B9               	movwf	?___ftmul+4
  4043  0BAC  120A  158A  2000   	fcall	stringdir
      +       120A  158A         
  4044  0BB1  00BA               	movwf	?___ftmul+5
  4045  0BB2  120A  158A  26EC   	fcall	___ftmul
      +       120A  158A         
  4046  0BB7  2430  120A  158A   	fcall	PL29	;call to abstracted procedure
  4047  0BBA  303F               	movlw	63
  4048  0BBB  01B5               	clrf	?___ftmul
  4049  0BBC  01B6               	clrf	?___ftmul+1
  4050  0BBD  2428               	fcall	PL23	;call to abstracted procedure
  4051  0BBE  120A  158A  26EC   	fcall	___ftmul
      +       120A  158A         
  4052  0BC3  2C21               	ljmp	PL16	;call to abstracted procedure
  4053  0BC4                     l6511:	
  4054  0BC4  303F               	movlw	63
  4055  0BC5  01B5               	clrf	?___ftmul
  4056  0BC6  01B6               	clrf	?___ftmul+1
  4057  0BC7  00B7               	movwf	?___ftmul+2
  4058  0BC8  3003               	movlw	3
  4059  0BC9  00F8               	movwf	?___bmul
  4060  0BCA  0859               	movf	fround@prec,w
  4061  0BCB  120A  158A  275B   	fcall	___bmul
      +       120A  158A         
  4062  0BD0  3E01               	addlw	low (__npowers_-__stringbase)
  4063  0BD1  0084               	movwf	4
  4064  0BD2  120A  158A  2000   	fcall	stringdir
      +       120A  158A         
  4065  0BD7  00B8               	movwf	?___ftmul+3
  4066  0BD8  120A  158A  2000   	fcall	stringdir
      +       120A  158A         
  4067  0BDD  00B9               	movwf	?___ftmul+4
  4068  0BDE  120A  158A  2000   	fcall	stringdir
      +       120A  158A         
  4069  0BE3  00BA               	movwf	?___ftmul+5
  4070  0BE4  120A  158A  26EC   	fcall	___ftmul
      +       120A  158A         
  4071  0BE9  2C21               	ljmp	PL16	;call to abstracted procedure
  4072  0BEA                     __end_of_fround:	
  4073  0BEA                     __ptext794:	
  4074 ;; =============== function ___lbmod ends ============
  4075                           
  4076                           
  4077 ;; *************** function ___lbdiv *****************
  4078 ;; Defined at:
  4079 ;;		line 5 in file "C:\Program Files (x86)\HI-TECH Software\PICC\9.83\sources\lbdiv.c"
  4080 ;; Parameters:    Size  Location     Type
  4081 ;;  dividend        1    wreg     unsigned char 
  4082 ;;  divisor         1    7[COMMON] unsigned char 
  4083 ;; Auto vars:     Size  Location     Type
  4084 ;;  dividend        1    0[BANK0 ] unsigned char 
  4085 ;;  quotient        1    2[BANK0 ] unsigned char 
  4086 ;;  counter         1    1[BANK0 ] unsigned char 
  4087 ;; Return value:  Size  Location     Type
  4088 ;;                  1    wreg      unsigned char 
  4089 ;; Registers used:
  4090 ;;		wreg, status,2, status,0
  4091 ;; Tracked objects:
  4092 ;;		On entry : 60/0
  4093 ;;		On exit  : 60/0
  4094 ;;		Unchanged: FFF9F/0
  4095 ;; Data sizes:     COMMON   BANK0   BANK1   BANK3   BANK2
  4096 ;;      Params:         1       0       0       0       0
  4097 ;;      Locals:         0       3       0       0       0
  4098 ;;      Temps:          0       0       0       0       0
  4099 ;;      Totals:         1       3       0       0       0
  4100 ;;Total ram usage:        4 bytes
  4101 ;; Hardware stack levels used:    1
  4102 ;; Hardware stack levels required when called:    1
  4103 ;; This function calls:
  4104 ;;		Nothing
  4105 ;; This function is called by:
  4106 ;;		_fround
  4107 ;; This function uses a non-reentrant model
  4108 ;;
  4109  0BEA                     ___lbdiv:	
  4110                           
  4111                           ; Regs used in ___lbdiv: [wreg+status,2+status,0]
  4112                           ;___lbdiv@dividend stored from wreg
  4113  0BEA  00A0               	movwf	___lbdiv@dividend
  4114  0BEB  01A2               	clrf	___lbdiv@quotient
  4115  0BEC  0877               	movf	___lbdiv@divisor,w
  4116  0BED  1903               	btfsc	3,2
  4117  0BEE  2C03               	goto	l6043
  4118  0BEF  01A1               	clrf	___lbdiv@counter
  4119  0BF0                     l6029:	
  4120  0BF0  0AA1               	incf	___lbdiv@counter,f
  4121  0BF1  1BF7               	btfsc	___lbdiv@divisor,7
  4122  0BF2  2BF6               	goto	l2211
  4123  0BF3  1003               	clrc
  4124  0BF4  0DF7               	rlf	___lbdiv@divisor,f
  4125  0BF5  2BF0               	goto	l6029
  4126  0BF6                     l2211:	
  4127  0BF6  1003               	clrc
  4128  0BF7  0DA2               	rlf	___lbdiv@quotient,f
  4129  0BF8  0877               	movf	___lbdiv@divisor,w
  4130  0BF9  0220               	subwf	___lbdiv@dividend,w
  4131  0BFA  1C03               	skipc
  4132  0BFB  2C00               	goto	L18
  4133  0BFC  0877               	movf	___lbdiv@divisor,w
  4134  0BFD  02A0               	subwf	___lbdiv@dividend,f
  4135  0BFE  1422               	bsf	___lbdiv@quotient,0
  4136  0BFF  1003               	clrc
  4137  0C00                     L18:	
  4138  0C00  0CF7               	rrf	___lbdiv@divisor,f
  4139  0C01  0BA1               	decfsz	___lbdiv@counter,f
  4140  0C02  2BF6               	goto	l2211
  4141  0C03                     l6043:	
  4142  0C03  0822               	movf	___lbdiv@quotient,w
  4143  0C04  0008               	return
  4144  0C05                     __end_of___lbdiv:	
  4145  0C05                     __ptext793:	
  4146 ;; =============== function ___ftpack ends ============
  4147                           
  4148                           
  4149 ;; *************** function ___lbmod *****************
  4150 ;; Defined at:
  4151 ;;		line 5 in file "C:\Program Files (x86)\HI-TECH Software\PICC\9.83\sources\lbmod.c"
  4152 ;; Parameters:    Size  Location     Type
  4153 ;;  dividend        1    wreg     unsigned char 
  4154 ;;  divisor         1    2[COMMON] unsigned char 
  4155 ;; Auto vars:     Size  Location     Type
  4156 ;;  dividend        1    4[COMMON] unsigned char 
  4157 ;;  rem             1    6[COMMON] unsigned char 
  4158 ;;  counter         1    5[COMMON] unsigned char 
  4159 ;; Return value:  Size  Location     Type
  4160 ;;                  1    wreg      unsigned char 
  4161 ;; Registers used:
  4162 ;;		wreg, status,2, status,0
  4163 ;; Tracked objects:
  4164 ;;		On entry : 60/0
  4165 ;;		On exit  : 60/0
  4166 ;;		Unchanged: FFF9F/0
  4167 ;; Data sizes:     COMMON   BANK0   BANK1   BANK3   BANK2
  4168 ;;      Params:         1       0       0       0       0
  4169 ;;      Locals:         3       0       0       0       0
  4170 ;;      Temps:          1       0       0       0       0
  4171 ;;      Totals:         5       0       0       0       0
  4172 ;;Total ram usage:        5 bytes
  4173 ;; Hardware stack levels used:    1
  4174 ;; Hardware stack levels required when called:    1
  4175 ;; This function calls:
  4176 ;;		Nothing
  4177 ;; This function is called by:
  4178 ;;		_fround
  4179 ;; This function uses a non-reentrant model
  4180 ;;
  4181  0C05                     ___lbmod:	
  4182                           
  4183                           ; Regs used in ___lbmod: [wreg+status,2+status,0]
  4184                           ;___lbmod@dividend stored from wreg
  4185  0C05  00F4               	movwf	___lbmod@dividend
  4186  0C06  3008               	movlw	8
  4187  0C07  00F5               	movwf	___lbmod@counter
  4188  0C08  01F6               	clrf	___lbmod@rem
  4189  0C09                     l6051:	
  4190  0C09  0874               	movf	___lbmod@dividend,w
  4191  0C0A  00F3               	movwf	??___lbmod
  4192  0C0B  3007               	movlw	7
  4193  0C0C  1003               	clrc
  4194  0C0D                     L17:	
  4195  0C0D  0CF3               	rrf	??___lbmod,f
  4196  0C0E  3EFF               	addlw	-1
  4197  0C0F  1003               	clrc
  4198  0C10  1D03               	skipz
  4199  0C11  2C0D               	goto	L17
  4200  0C12  0D76               	rlf	___lbmod@rem,w
  4201  0C13  0473               	iorwf	??___lbmod,w
  4202  0C14  00F6               	movwf	___lbmod@rem
  4203  0C15  1003               	clrc
  4204  0C16  0DF4               	rlf	___lbmod@dividend,f
  4205  0C17  0872               	movf	___lbmod@divisor,w
  4206  0C18  0276               	subwf	___lbmod@rem,w
  4207  0C19  1C03               	skipc
  4208  0C1A  2C1D               	goto	l6059
  4209  0C1B  0872               	movf	___lbmod@divisor,w
  4210  0C1C  02F6               	subwf	___lbmod@rem,f
  4211  0C1D                     l6059:	
  4212  0C1D  0BF5               	decfsz	___lbmod@counter,f
  4213  0C1E  2C09               	goto	l6051
  4214  0C1F  0876               	movf	___lbmod@rem,w
  4215  0C20  0008               	return
  4216  0C21                     __end_of___lbmod:	
  4217  0C21                     PL16:	
  4218  0C21  0835               	movf	?___ftmul,w
  4219  0C22  00D0               	movwf	?_fround
  4220  0C23  0836               	movf	?___ftmul+1,w
  4221  0C24  00D1               	movwf	?_fround+1
  4222  0C25  0837               	movf	?___ftmul+2,w
  4223  0C26  00D2               	movwf	?_fround+2
  4224  0C27  0008               	return
  4225  0C28                     PL23:	
  4226  0C28  00B7               	movwf	?___ftmul+2
  4227  0C29  0856               	movf	_fround$2806,w
  4228  0C2A  00B8               	movwf	?___ftmul+3
  4229  0C2B  0857               	movf	_fround$2806+1,w
  4230  0C2C  00B9               	movwf	?___ftmul+4
  4231  0C2D  0858               	movf	_fround$2806+2,w
  4232  0C2E  00BA               	movwf	?___ftmul+5
  4233  0C2F  0008               	return
  4234  0C30                     PL29:	
  4235  0C30  0835               	movf	?___ftmul,w
  4236  0C31  00D6               	movwf	_fround$2806
  4237  0C32  0836               	movf	?___ftmul+1,w
  4238  0C33  00D7               	movwf	_fround$2806+1
  4239  0C34  0837               	movf	?___ftmul+2,w
  4240  0C35  00D8               	movwf	_fround$2806+2
  4241  0C36  0008               	return
  4242                           
  4243                           	psect	text780
  4244  0C37                     __ptext780:	
  4245 ;; =============== function ___lltoft ends ============
  4246                           
  4247                           
  4248 ;; *************** function ___awtoft *****************
  4249 ;; Defined at:
  4250 ;;		line 33 in file "C:\Program Files (x86)\HI-TECH Software\PICC\9.83\sources\awtoft.c"
  4251 ;; Parameters:    Size  Location     Type
  4252 ;;  c               2    0[BANK0 ] int 
  4253 ;; Auto vars:     Size  Location     Type
  4254 ;;  sign            1    3[BANK0 ] unsigned char 
  4255 ;; Return value:  Size  Location     Type
  4256 ;;                  3    0[BANK0 ] float 
  4257 ;; Registers used:
  4258 ;;		wreg, status,2, status,0, pclath, cstack
  4259 ;; Tracked objects:
  4260 ;;		On entry : 160/0
  4261 ;;		On exit  : 160/0
  4262 ;;		Unchanged: FFE9F/0
  4263 ;; Data sizes:     COMMON   BANK0   BANK1   BANK3   BANK2
  4264 ;;      Params:         0       3       0       0       0
  4265 ;;      Locals:         0       1       0       0       0
  4266 ;;      Temps:          0       0       0       0       0
  4267 ;;      Totals:         0       4       0       0       0
  4268 ;;Total ram usage:        4 bytes
  4269 ;; Hardware stack levels used:    1
  4270 ;; Hardware stack levels required when called:    2
  4271 ;; This function calls:
  4272 ;;		___ftpack
  4273 ;; This function is called by:
  4274 ;;		_main
  4275 ;; This function uses a non-reentrant model
  4276 ;;
  4277  0C37                     ___awtoft:	
  4278                           
  4279                           ; Regs used in ___awtoft: [wreg+status,2+status,0+pclath+cstack]
  4280  0C37  01A3               	clrf	___awtoft@sign
  4281  0C38  1FA1               	btfss	___awtoft@c+1,7
  4282  0C39  2C41               	goto	l6479
  4283  0C3A  09A0               	comf	___awtoft@c,f
  4284  0C3B  09A1               	comf	___awtoft@c+1,f
  4285  0C3C  0AA0               	incf	___awtoft@c,f
  4286  0C3D  1903               	skipnz
  4287  0C3E  0AA1               	incf	___awtoft@c+1,f
  4288  0C3F  01A3               	clrf	___awtoft@sign
  4289  0C40  0AA3               	incf	___awtoft@sign,f
  4290  0C41                     l6479:	
  4291  0C41  0820               	movf	___awtoft@c,w
  4292  0C42  00F2               	movwf	?___ftpack
  4293  0C43  0821               	movf	___awtoft@c+1,w
  4294  0C44  00F3               	movwf	?___ftpack+1
  4295  0C45  308E               	movlw	142
  4296  0C46  01F4               	clrf	?___ftpack+2
  4297  0C47  00F5               	movwf	?___ftpack+3
  4298  0C48  0823               	movf	___awtoft@sign,w
  4299  0C49  00F6               	movwf	?___ftpack+4
  4300  0C4A  2769               	fcall	___ftpack
  4301  0C4B  0872               	movf	?___ftpack,w
  4302  0C4C  00A0               	movwf	?___awtoft
  4303  0C4D  0873               	movf	?___ftpack+1,w
  4304  0C4E  00A1               	movwf	?___awtoft+1
  4305  0C4F  0874               	movf	?___ftpack+2,w
  4306  0C50  00A2               	movwf	?___awtoft+2
  4307  0C51  0008               	return
  4308  0C52                     __end_of___awtoft:	
  4309  0C52                     __ptext779:	
  4310 ;; =============== function _fround ends ============
  4311                           
  4312                           
  4313 ;; *************** function ___lltoft *****************
  4314 ;; Defined at:
  4315 ;;		line 36 in file "C:\Program Files (x86)\HI-TECH Software\PICC\9.83\sources\lltoft.c"
  4316 ;; Parameters:    Size  Location     Type
  4317 ;;  c               4    0[BANK0 ] unsigned long 
  4318 ;; Auto vars:     Size  Location     Type
  4319 ;;  exp             1    4[BANK0 ] unsigned char 
  4320 ;; Return value:  Size  Location     Type
  4321 ;;                  3    0[BANK0 ] float 
  4322 ;; Registers used:
  4323 ;;		wreg, status,2, status,0, pclath, cstack
  4324 ;; Tracked objects:
  4325 ;;		On entry : 60/0
  4326 ;;		On exit  : 60/0
  4327 ;;		Unchanged: FFF9F/0
  4328 ;; Data sizes:     COMMON   BANK0   BANK1   BANK3   BANK2
  4329 ;;      Params:         0       4       0       0       0
  4330 ;;      Locals:         0       1       0       0       0
  4331 ;;      Temps:          0       0       0       0       0
  4332 ;;      Totals:         0       5       0       0       0
  4333 ;;Total ram usage:        5 bytes
  4334 ;; Hardware stack levels used:    1
  4335 ;; Hardware stack levels required when called:    2
  4336 ;; This function calls:
  4337 ;;		___ftpack
  4338 ;; This function is called by:
  4339 ;;		_sprintf
  4340 ;; This function uses a non-reentrant model
  4341 ;;
  4342  0C52                     ___lltoft:	
  4343                           
  4344                           ; Regs used in ___lltoft: [wreg+status,2+status,0+pclath+cstack]
  4345  0C52  308E               	movlw	142
  4346  0C53  00A4               	movwf	___lltoft@exp
  4347  0C54                     l6487:	
  4348  0C54  30FF               	movlw	255
  4349  0C55  0523               	andwf	___lltoft@c+3,w
  4350  0C56  1903               	btfsc	3,2
  4351  0C57  2C5F               	goto	l6489
  4352  0C58  1003               	clrc
  4353  0C59  0CA3               	rrf	___lltoft@c+3,f
  4354  0C5A  0CA2               	rrf	___lltoft@c+2,f
  4355  0C5B  0CA1               	rrf	___lltoft@c+1,f
  4356  0C5C  0CA0               	rrf	___lltoft@c,f
  4357  0C5D  0AA4               	incf	___lltoft@exp,f
  4358  0C5E  2C54               	goto	l6487
  4359  0C5F                     l6489:	
  4360  0C5F  0820               	movf	___lltoft@c,w
  4361  0C60  00F2               	movwf	?___ftpack
  4362  0C61  0821               	movf	___lltoft@c+1,w
  4363  0C62  00F3               	movwf	?___ftpack+1
  4364  0C63  0822               	movf	___lltoft@c+2,w
  4365  0C64  00F4               	movwf	?___ftpack+2
  4366  0C65  0824               	movf	___lltoft@exp,w
  4367  0C66  00F5               	movwf	?___ftpack+3
  4368  0C67  01F6               	clrf	?___ftpack+4
  4369  0C68  2769               	fcall	___ftpack
  4370  0C69  0872               	movf	?___ftpack,w
  4371  0C6A  00A0               	movwf	?___lltoft
  4372  0C6B  0873               	movf	?___ftpack+1,w
  4373  0C6C  00A1               	movwf	?___lltoft+1
  4374  0C6D  0874               	movf	?___ftpack+2,w
  4375  0C6E  00A2               	movwf	?___lltoft+2
  4376  0C6F  0008               	return
  4377  0C70                     __end_of___lltoft:	
  4378  0C70                     __ptext782:	
  4379 ;; =============== function ___ftmul ends ============
  4380                           
  4381                           
  4382 ;; *************** function ___ftdiv *****************
  4383 ;; Defined at:
  4384 ;;		line 50 in file "C:\Program Files (x86)\HI-TECH Software\PICC\9.83\sources\ftdiv.c"
  4385 ;; Parameters:    Size  Location     Type
  4386 ;;  f2              3    4[BANK0 ] float 
  4387 ;;  f1              3    7[BANK0 ] float 
  4388 ;; Auto vars:     Size  Location     Type
  4389 ;;  f3              3   14[BANK0 ] float 
  4390 ;;  sign            1   18[BANK0 ] unsigned char 
  4391 ;;  exp             1   17[BANK0 ] unsigned char 
  4392 ;;  cntr            1   13[BANK0 ] unsigned char 
  4393 ;; Return value:  Size  Location     Type
  4394 ;;                  3    4[BANK0 ] float 
  4395 ;; Registers used:
  4396 ;;		wreg, status,2, status,0, pclath, cstack
  4397 ;; Tracked objects:
  4398 ;;		On entry : 160/0
  4399 ;;		On exit  : 160/0
  4400 ;;		Unchanged: FFE9F/0
  4401 ;; Data sizes:     COMMON   BANK0   BANK1   BANK3   BANK2
  4402 ;;      Params:         0       6       0       0       0
  4403 ;;      Locals:         0       6       0       0       0
  4404 ;;      Temps:          0       3       0       0       0
  4405 ;;      Totals:         0      15       0       0       0
  4406 ;;Total ram usage:       15 bytes
  4407 ;; Hardware stack levels used:    1
  4408 ;; Hardware stack levels required when called:    2
  4409 ;; This function calls:
  4410 ;;		___ftpack
  4411 ;; This function is called by:
  4412 ;;		_main
  4413 ;; This function uses a non-reentrant model
  4414 ;;
  4415  0C70                     ___ftdiv:	
  4416                           
  4417                           ; Regs used in ___ftdiv: [wreg+status,2+status,0+pclath+cstack]
  4418  0C70  0827               	movf	___ftdiv@f1,w
  4419  0C71  00AA               	movwf	??___ftdiv
  4420  0C72  0828               	movf	___ftdiv@f1+1,w
  4421  0C73  00AB               	movwf	??___ftdiv+1
  4422  0C74  0829               	movf	___ftdiv@f1+2,w
  4423  0C75  00AC               	movwf	??___ftdiv+2
  4424  0C76  1003               	clrc
  4425  0C77  0D2B               	rlf	??___ftdiv+1,w
  4426  0C78  0D2C               	rlf	??___ftdiv+2,w
  4427  0C79  00B1               	movwf	___ftdiv@exp
  4428  0C7A  08B1               	movf	___ftdiv@exp,f
  4429  0C7B  1D03               	skipz
  4430  0C7C  2C81               	goto	l6377
  4431  0C7D  01A4               	clrf	?___ftdiv
  4432  0C7E  01A5               	clrf	?___ftdiv+1
  4433  0C7F  01A6               	clrf	?___ftdiv+2
  4434  0C80  0008               	return
  4435  0C81                     l6377:	
  4436  0C81  0824               	movf	___ftdiv@f2,w
  4437  0C82  00AA               	movwf	??___ftdiv
  4438  0C83  0825               	movf	___ftdiv@f2+1,w
  4439  0C84  00AB               	movwf	??___ftdiv+1
  4440  0C85  0826               	movf	___ftdiv@f2+2,w
  4441  0C86  00AC               	movwf	??___ftdiv+2
  4442  0C87  1003               	clrc
  4443  0C88  0D2B               	rlf	??___ftdiv+1,w
  4444  0C89  0D2C               	rlf	??___ftdiv+2,w
  4445  0C8A  00B2               	movwf	___ftdiv@sign
  4446  0C8B  08B2               	movf	___ftdiv@sign,f
  4447  0C8C  1D03               	skipz
  4448  0C8D  2C92               	goto	l2271
  4449  0C8E  01A4               	clrf	?___ftdiv
  4450  0C8F  01A5               	clrf	?___ftdiv+1
  4451  0C90  01A6               	clrf	?___ftdiv+2
  4452  0C91  0008               	return
  4453  0C92                     l2271:	
  4454  0C92  3089               	movlw	137
  4455  0C93  01AE               	clrf	___ftdiv@f3
  4456  0C94  01AF               	clrf	___ftdiv@f3+1
  4457  0C95  01B0               	clrf	___ftdiv@f3+2
  4458  0C96  0732               	addwf	___ftdiv@sign,w
  4459  0C97  00AA               	movwf	??___ftdiv
  4460  0C98  02B1               	subwf	___ftdiv@exp,f
  4461  0C99  0829               	movf	___ftdiv@f1+2,w
  4462  0C9A  00B2               	movwf	___ftdiv@sign
  4463  0C9B  0826               	movf	___ftdiv@f2+2,w
  4464  0C9C  06B2               	xorwf	___ftdiv@sign,f
  4465  0C9D  3080               	movlw	128
  4466  0C9E  05B2               	andwf	___ftdiv@sign,f
  4467  0C9F  3018               	movlw	24
  4468  0CA0  17A8               	bsf	___ftdiv@f1+1,7
  4469  0CA1  01A9               	clrf	___ftdiv@f1+2
  4470  0CA2  17A5               	bsf	___ftdiv@f2+1,7
  4471  0CA3  01A6               	clrf	___ftdiv@f2+2
  4472  0CA4  00AD               	movwf	___ftdiv@cntr
  4473  0CA5                     l6401:	
  4474  0CA5  1003               	clrc
  4475  0CA6  0DAE               	rlf	___ftdiv@f3,f
  4476  0CA7  0DAF               	rlf	___ftdiv@f3+1,f
  4477  0CA8  0DB0               	rlf	___ftdiv@f3+2,f
  4478  0CA9  0826               	movf	___ftdiv@f2+2,w
  4479  0CAA  0229               	subwf	___ftdiv@f1+2,w
  4480  0CAB  1D03               	skipz
  4481  0CAC  2CB3               	goto	u4195
  4482  0CAD  0825               	movf	___ftdiv@f2+1,w
  4483  0CAE  0228               	subwf	___ftdiv@f1+1,w
  4484  0CAF  1D03               	skipz
  4485  0CB0  2CB3               	goto	u4195
  4486  0CB1  0824               	movf	___ftdiv@f2,w
  4487  0CB2  0227               	subwf	___ftdiv@f1,w
  4488  0CB3                     u4195:	
  4489  0CB3  1C03               	skipc
  4490  0CB4  2CC1               	goto	L6
  4491  0CB5  0824               	movf	___ftdiv@f2,w
  4492  0CB6  02A7               	subwf	___ftdiv@f1,f
  4493  0CB7  0825               	movf	___ftdiv@f2+1,w
  4494  0CB8  1C03               	skipc
  4495  0CB9  0F25               	incfsz	___ftdiv@f2+1,w
  4496  0CBA  02A8               	subwf	___ftdiv@f1+1,f
  4497  0CBB  0826               	movf	___ftdiv@f2+2,w
  4498  0CBC  1C03               	skipc
  4499  0CBD  0A26               	incf	___ftdiv@f2+2,w
  4500  0CBE  02A9               	subwf	___ftdiv@f1+2,f
  4501  0CBF  142E               	bsf	___ftdiv@f3,0
  4502  0CC0  1003               	clrc
  4503  0CC1                     L6:	
  4504  0CC1  0DA7               	rlf	___ftdiv@f1,f
  4505  0CC2  0DA8               	rlf	___ftdiv@f1+1,f
  4506  0CC3  0DA9               	rlf	___ftdiv@f1+2,f
  4507  0CC4  0BAD               	decfsz	___ftdiv@cntr,f
  4508  0CC5  2CA5               	goto	l6401
  4509  0CC6  082E               	movf	___ftdiv@f3,w
  4510  0CC7  00F2               	movwf	?___ftpack
  4511  0CC8  082F               	movf	___ftdiv@f3+1,w
  4512  0CC9  00F3               	movwf	?___ftpack+1
  4513  0CCA  0830               	movf	___ftdiv@f3+2,w
  4514  0CCB  00F4               	movwf	?___ftpack+2
  4515  0CCC  0831               	movf	___ftdiv@exp,w
  4516  0CCD  00F5               	movwf	?___ftpack+3
  4517  0CCE  0832               	movf	___ftdiv@sign,w
  4518  0CCF  00F6               	movwf	?___ftpack+4
  4519  0CD0  2769               	fcall	___ftpack
  4520  0CD1  0872               	movf	?___ftpack,w
  4521  0CD2  00A4               	movwf	?___ftdiv
  4522  0CD3  0873               	movf	?___ftpack+1,w
  4523  0CD4  00A5               	movwf	?___ftdiv+1
  4524  0CD5  0874               	movf	?___ftpack+2,w
  4525  0CD6  00A6               	movwf	?___ftdiv+2
  4526  0CD7  0008               	return
  4527  0CD8                     __end_of___ftdiv:	
  4528  0CD8                     __ptext777:	
  4529 ;; =============== function ___ftsub ends ============
  4530                           
  4531                           
  4532 ;; *************** function _scale *****************
  4533 ;; Defined at:
  4534 ;;		line 422 in file "C:\Program Files (x86)\HI-TECH Software\PICC\9.83\lib\doprnt.c"
  4535 ;; Parameters:    Size  Location     Type
  4536 ;;  scl             1    wreg     char 
  4537 ;; Auto vars:     Size  Location     Type
  4538 ;;  scl             1   46[BANK0 ] char 
  4539 ;; Return value:  Size  Location     Type
  4540 ;;                  3   36[BANK0 ] char 
  4541 ;; Registers used:
  4542 ;;		wreg, fsr0l, fsr0h, status,2, status,0, pclath, cstack
  4543 ;; Tracked objects:
  4544 ;;		On entry : 60/20
  4545 ;;		On exit  : 60/0
  4546 ;;		Unchanged: FFF9F/0
  4547 ;; Data sizes:     COMMON   BANK0   BANK1   BANK3   BANK2
  4548 ;;      Params:         0       3       0       0       0
  4549 ;;      Locals:         0       4       0       0       0
  4550 ;;      Temps:          0       4       0       0       0
  4551 ;;      Totals:         0      11       0       0       0
  4552 ;;Total ram usage:       11 bytes
  4553 ;; Hardware stack levels used:    1
  4554 ;; Hardware stack levels required when called:    3
  4555 ;; This function calls:
  4556 ;;		___awmod
  4557 ;;		___awdiv
  4558 ;;		___ftmul
  4559 ;;		___bmul
  4560 ;; This function is called by:
  4561 ;;		_sprintf
  4562 ;; This function uses a non-reentrant model
  4563 ;;
  4564  0CD8                     _scale:	
  4565                           
  4566                           ; Regs used in _scale: [wreg-fsr0h+status,2+status,0+pclath+cstack]
  4567                           ;scale@scl stored from wreg
  4568  0CD8  1283               	bcf	3,5	;RP0=0, select bank0
  4569  0CD9  00CE               	movwf	scale@scl
  4570  0CDA  1FCE               	btfss	scale@scl,7
  4571  0CDB  2DA4               	goto	l6537
  4572  0CDC  09CE               	comf	scale@scl,f
  4573  0CDD  0ACE               	incf	scale@scl,f
  4574  0CDE  084E               	movf	scale@scl,w
  4575  0CDF  3A80               	xorlw	128
  4576  0CE0  3E12               	addlw	-238
  4577  0CE1  1C03               	skipc
  4578  0CE2  2D48               	goto	l6527
  4579  0CE3  300A               	movlw	10
  4580  0CE4  27CB  120A  158A   	fcall	PL11	;call to abstracted procedure
  4581  0CE7  26AF  120A  158A   	fcall	___awmod
  4582  0CEA  0873               	movf	?___awmod+1,w
  4583  0CEB  00A3               	movwf	?___awdiv+3
  4584  0CEC  0872               	movf	?___awmod,w
  4585  0CED  00A2               	movwf	?___awdiv+2
  4586  0CEE  266A  120A  158A   	fcall	___awdiv
  4587  0CF1  27F0               	fcall	PL26	;call to abstracted procedure
  4588  0CF2  3E1C               	addlw	low ((__npowers_-__stringbase+27))
  4589  0CF3  0084               	movwf	4
  4590  0CF4  120A  158A  2000   	fcall	stringdir
      +       120A  158A         
  4591  0CF9  00B5               	movwf	?___ftmul
  4592  0CFA  120A  158A  2000   	fcall	stringdir
      +       120A  158A         
  4593  0CFF  00B6               	movwf	?___ftmul+1
  4594  0D00  120A  158A  2000   	fcall	stringdir
      +       120A  158A         
  4595  0D05  27F8  120A  158A   	fcall	PL27	;call to abstracted procedure
  4596  0D08  1BA2               	btfsc	?___awdiv+2,7
  4597  0D09  03A3               	decf	?___awdiv+3,f
  4598  0D0A  266A  120A  158A   	fcall	___awdiv
  4599  0D0D  27BC               	fcall	PL8	;call to abstracted procedure
  4600  0D0E  3E37               	addlw	low ((__npowers_-__stringbase+54))
  4601  0D0F  0084               	movwf	4
  4602  0D10  120A  158A  2000   	fcall	stringdir
      +       120A  158A         
  4603  0D15  00B8               	movwf	?___ftmul+3
  4604  0D16  120A  158A  2000   	fcall	stringdir
      +       120A  158A         
  4605  0D1B  00B9               	movwf	?___ftmul+4
  4606  0D1C  120A  158A  2000   	fcall	stringdir
      +       120A  158A         
  4607  0D21  00BA               	movwf	?___ftmul+5
  4608  0D22  26EC  120A  158A   	fcall	___ftmul
  4609  0D25  27A7  120A  158A   	fcall	PL6	;call to abstracted procedure
  4610  0D28  1BF4               	btfsc	?___awmod+2,7
  4611  0D29  03F5               	decf	?___awmod+3,f
  4612  0D2A  26AF  120A  158A   	fcall	___awmod
  4613  0D2D  27B4               	fcall	PL7	;call to abstracted procedure
  4614  0D2E  3E01               	addlw	low (__npowers_-__stringbase)
  4615  0D2F  0084               	movwf	4
  4616  0D30  120A  158A  2000   	fcall	stringdir
      +       120A  158A         
  4617  0D35  00B5               	movwf	?___ftmul
  4618  0D36  120A  158A  2000   	fcall	stringdir
      +       120A  158A         
  4619  0D3B  00B6               	movwf	?___ftmul+1
  4620  0D3C  120A  158A  2000   	fcall	stringdir
      +       120A  158A         
  4621  0D41  27E0  120A  158A   	fcall	PL24	;call to abstracted procedure
  4622  0D44  26EC  120A  158A   	fcall	___ftmul
  4623  0D47  2FC4               	ljmp	PL9	;call to abstracted procedure
  4624  0D48                     l6527:	
  4625  0D48  084E               	movf	scale@scl,w
  4626  0D49  3A80               	xorlw	128
  4627  0D4A  3E75               	addlw	-139
  4628  0D4B  1C03               	skipc
  4629  0D4C  2D8D               	goto	l6533
  4630  0D4D  300A               	movlw	10
  4631  0D4E  00F2               	movwf	?___awmod
  4632  0D4F  01F3               	clrf	?___awmod+1
  4633  0D50  084E               	movf	scale@scl,w
  4634  0D51  00F4               	movwf	?___awmod+2
  4635  0D52  01F5               	clrf	?___awmod+3
  4636  0D53  1BF4               	btfsc	?___awmod+2,7
  4637  0D54  03F5               	decf	?___awmod+3,f
  4638  0D55  26AF  120A  158A   	fcall	___awmod
  4639  0D58  27B4               	fcall	PL7	;call to abstracted procedure
  4640  0D59  3E01               	addlw	low (__npowers_-__stringbase)
  4641  0D5A  0084               	movwf	4
  4642  0D5B  120A  158A  2000   	fcall	stringdir
      +       120A  158A         
  4643  0D60  00B5               	movwf	?___ftmul
  4644  0D61  120A  158A  2000   	fcall	stringdir
      +       120A  158A         
  4645  0D66  00B6               	movwf	?___ftmul+1
  4646  0D67  120A  158A  2000   	fcall	stringdir
      +       120A  158A         
  4647  0D6C  27E8  120A  158A   	fcall	PL25	;call to abstracted procedure
  4648  0D6F  1BA2               	btfsc	?___awdiv+2,7
  4649  0D70  03A3               	decf	?___awdiv+3,f
  4650  0D71  266A  120A  158A   	fcall	___awdiv
  4651  0D74  27BC               	fcall	PL8	;call to abstracted procedure
  4652  0D75  3E1C               	addlw	low ((__npowers_-__stringbase+27))
  4653  0D76  0084               	movwf	4
  4654  0D77  120A  158A  2000   	fcall	stringdir
      +       120A  158A         
  4655  0D7C  00B8               	movwf	?___ftmul+3
  4656  0D7D  120A  158A  2000   	fcall	stringdir
      +       120A  158A         
  4657  0D82  00B9               	movwf	?___ftmul+4
  4658  0D83  120A  158A  2000   	fcall	stringdir
      +       120A  158A         
  4659  0D88  00BA               	movwf	?___ftmul+5
  4660  0D89  26EC  120A  158A   	fcall	___ftmul
  4661  0D8C  2FC4               	ljmp	PL9	;call to abstracted procedure
  4662  0D8D                     l6533:	
  4663  0D8D  3003               	movlw	3
  4664  0D8E  00F8               	movwf	?___bmul
  4665  0D8F  084E               	movf	scale@scl,w
  4666  0D90  275B               	fcall	___bmul
  4667  0D91  3E01               	addlw	low (__npowers_-__stringbase)
  4668  0D92  0084               	movwf	4
  4669  0D93  120A  158A  2000   	fcall	stringdir
      +       120A  158A         
  4670  0D98  00C4               	movwf	?_scale
  4671  0D99  120A  158A  2000   	fcall	stringdir
      +       120A  158A         
  4672  0D9E  00C5               	movwf	?_scale+1
  4673  0D9F  120A  158A  2000   	fcall	stringdir
  4674  0DA2  00C6               	movwf	?_scale+2
  4675  0DA3  0008               	return
  4676  0DA4                     l6537:	
  4677  0DA4  084E               	movf	scale@scl,w
  4678  0DA5  3A80               	xorlw	128
  4679  0DA6  3E12               	addlw	-238
  4680  0DA7  1C03               	skipc
  4681  0DA8  2E0E               	goto	l6545
  4682  0DA9  300A               	movlw	10
  4683  0DAA  27CB  120A  158A   	fcall	PL11	;call to abstracted procedure
  4684  0DAD  26AF  120A  158A   	fcall	___awmod
  4685  0DB0  0873               	movf	?___awmod+1,w
  4686  0DB1  00A3               	movwf	?___awdiv+3
  4687  0DB2  0872               	movf	?___awmod,w
  4688  0DB3  00A2               	movwf	?___awdiv+2
  4689  0DB4  266A  120A  158A   	fcall	___awdiv
  4690  0DB7  27F0               	fcall	PL26	;call to abstracted procedure
  4691  0DB8  3E43               	addlw	low ((__powers_-__stringbase+27))
  4692  0DB9  0084               	movwf	4
  4693  0DBA  120A  158A  2000   	fcall	stringdir
      +       120A  158A         
  4694  0DBF  00B5               	movwf	?___ftmul
  4695  0DC0  120A  158A  2000   	fcall	stringdir
      +       120A  158A         
  4696  0DC5  00B6               	movwf	?___ftmul+1
  4697  0DC6  120A  158A  2000   	fcall	stringdir
      +       120A  158A         
  4698  0DCB  27F8  120A  158A   	fcall	PL27	;call to abstracted procedure
  4699  0DCE  1BA2               	btfsc	?___awdiv+2,7
  4700  0DCF  03A3               	decf	?___awdiv+3,f
  4701  0DD0  266A  120A  158A   	fcall	___awdiv
  4702  0DD3  27BC               	fcall	PL8	;call to abstracted procedure
  4703  0DD4  3E5E               	addlw	low ((__powers_-__stringbase+54))
  4704  0DD5  0084               	movwf	4
  4705  0DD6  120A  158A  2000   	fcall	stringdir
      +       120A  158A         
  4706  0DDB  00B8               	movwf	?___ftmul+3
  4707  0DDC  120A  158A  2000   	fcall	stringdir
      +       120A  158A         
  4708  0DE1  00B9               	movwf	?___ftmul+4
  4709  0DE2  120A  158A  2000   	fcall	stringdir
      +       120A  158A         
  4710  0DE7  00BA               	movwf	?___ftmul+5
  4711  0DE8  26EC  120A  158A   	fcall	___ftmul
  4712  0DEB  27A7  120A  158A   	fcall	PL6	;call to abstracted procedure
  4713  0DEE  1BF4               	btfsc	?___awmod+2,7
  4714  0DEF  03F5               	decf	?___awmod+3,f
  4715  0DF0  26AF  120A  158A   	fcall	___awmod
  4716  0DF3  27B4               	fcall	PL7	;call to abstracted procedure
  4717  0DF4  3E28               	addlw	low (__powers_-__stringbase)
  4718  0DF5  0084               	movwf	4
  4719  0DF6  120A  158A  2000   	fcall	stringdir
      +       120A  158A         
  4720  0DFB  00B5               	movwf	?___ftmul
  4721  0DFC  120A  158A  2000   	fcall	stringdir
      +       120A  158A         
  4722  0E01  00B6               	movwf	?___ftmul+1
  4723  0E02  120A  158A  2000   	fcall	stringdir
      +       120A  158A         
  4724  0E07  27E0  120A  158A   	fcall	PL24	;call to abstracted procedure
  4725  0E0A  26EC  120A  158A   	fcall	___ftmul
  4726  0E0D  2FC4               	ljmp	PL9	;call to abstracted procedure
  4727  0E0E                     l6545:	
  4728  0E0E  084E               	movf	scale@scl,w
  4729  0E0F  3A80               	xorlw	128
  4730  0E10  3E75               	addlw	-139
  4731  0E11  1C03               	skipc
  4732  0E12  2E53               	goto	l6551
  4733  0E13  300A               	movlw	10
  4734  0E14  00F2               	movwf	?___awmod
  4735  0E15  01F3               	clrf	?___awmod+1
  4736  0E16  084E               	movf	scale@scl,w
  4737  0E17  00F4               	movwf	?___awmod+2
  4738  0E18  01F5               	clrf	?___awmod+3
  4739  0E19  1BF4               	btfsc	?___awmod+2,7
  4740  0E1A  03F5               	decf	?___awmod+3,f
  4741  0E1B  26AF  120A  158A   	fcall	___awmod
  4742  0E1E  27B4               	fcall	PL7	;call to abstracted procedure
  4743  0E1F  3E28               	addlw	low (__powers_-__stringbase)
  4744  0E20  0084               	movwf	4
  4745  0E21  120A  158A  2000   	fcall	stringdir
      +       120A  158A         
  4746  0E26  00B5               	movwf	?___ftmul
  4747  0E27  120A  158A  2000   	fcall	stringdir
      +       120A  158A         
  4748  0E2C  00B6               	movwf	?___ftmul+1
  4749  0E2D  120A  158A  2000   	fcall	stringdir
      +       120A  158A         
  4750  0E32  27E8  120A  158A   	fcall	PL25	;call to abstracted procedure
  4751  0E35  1BA2               	btfsc	?___awdiv+2,7
  4752  0E36  03A3               	decf	?___awdiv+3,f
  4753  0E37  266A  120A  158A   	fcall	___awdiv
  4754  0E3A  27BC               	fcall	PL8	;call to abstracted procedure
  4755  0E3B  3E43               	addlw	low ((__powers_-__stringbase+27))
  4756  0E3C  0084               	movwf	4
  4757  0E3D  120A  158A  2000   	fcall	stringdir
      +       120A  158A         
  4758  0E42  00B8               	movwf	?___ftmul+3
  4759  0E43  120A  158A  2000   	fcall	stringdir
      +       120A  158A         
  4760  0E48  00B9               	movwf	?___ftmul+4
  4761  0E49  120A  158A  2000   	fcall	stringdir
      +       120A  158A         
  4762  0E4E  00BA               	movwf	?___ftmul+5
  4763  0E4F  26EC  120A  158A   	fcall	___ftmul
  4764  0E52  2FC4               	ljmp	PL9	;call to abstracted procedure
  4765  0E53                     l6551:	
  4766  0E53  3003               	movlw	3
  4767  0E54  00F8               	movwf	?___bmul
  4768  0E55  084E               	movf	scale@scl,w
  4769  0E56  275B               	fcall	___bmul
  4770  0E57  3E28               	addlw	low (__powers_-__stringbase)
  4771  0E58  0084               	movwf	4
  4772  0E59  120A  158A  2000   	fcall	stringdir
      +       120A  158A         
  4773  0E5E  00C4               	movwf	?_scale
  4774  0E5F  120A  158A  2000   	fcall	stringdir
      +       120A  158A         
  4775  0E64  00C5               	movwf	?_scale+1
  4776  0E65  120A  158A  2000   	fcall	stringdir
  4777  0E68  00C6               	movwf	?_scale+2
  4778  0E69  0008               	return
  4779  0E6A                     __end_of_scale:	
  4780  0E6A                     __ptext790:	
  4781 ;; =============== function ___llmod ends ============
  4782                           
  4783                           
  4784 ;; *************** function ___awdiv *****************
  4785 ;; Defined at:
  4786 ;;		line 5 in file "C:\Program Files (x86)\HI-TECH Software\PICC\9.83\sources\awdiv.c"
  4787 ;; Parameters:    Size  Location     Type
  4788 ;;  divisor         2    0[BANK0 ] int 
  4789 ;;  dividend        2    2[BANK0 ] int 
  4790 ;; Auto vars:     Size  Location     Type
  4791 ;;  quotient        2    6[BANK0 ] int 
  4792 ;;  sign            1    5[BANK0 ] unsigned char 
  4793 ;;  counter         1    4[BANK0 ] unsigned char 
  4794 ;; Return value:  Size  Location     Type
  4795 ;;                  2    0[BANK0 ] int 
  4796 ;; Registers used:
  4797 ;;		wreg, status,2, status,0
  4798 ;; Tracked objects:
  4799 ;;		On entry : 60/0
  4800 ;;		On exit  : 60/0
  4801 ;;		Unchanged: FFF9F/0
  4802 ;; Data sizes:     COMMON   BANK0   BANK1   BANK3   BANK2
  4803 ;;      Params:         0       4       0       0       0
  4804 ;;      Locals:         0       4       0       0       0
  4805 ;;      Temps:          0       0       0       0       0
  4806 ;;      Totals:         0       8       0       0       0
  4807 ;;Total ram usage:        8 bytes
  4808 ;; Hardware stack levels used:    1
  4809 ;; Hardware stack levels required when called:    1
  4810 ;; This function calls:
  4811 ;;		Nothing
  4812 ;; This function is called by:
  4813 ;;		_scale
  4814 ;;		_sprintf
  4815 ;; This function uses a non-reentrant model
  4816 ;;
  4817  0E6A                     ___awdiv:	
  4818                           
  4819                           ; Regs used in ___awdiv: [wreg+status,2+status,0]
  4820  0E6A  01A5               	clrf	___awdiv@sign
  4821  0E6B  1FA1               	btfss	___awdiv@divisor+1,7
  4822  0E6C  2E74               	goto	l6139
  4823  0E6D  09A0               	comf	___awdiv@divisor,f
  4824  0E6E  09A1               	comf	___awdiv@divisor+1,f
  4825  0E6F  0AA0               	incf	___awdiv@divisor,f
  4826  0E70  1903               	skipnz
  4827  0E71  0AA1               	incf	___awdiv@divisor+1,f
  4828  0E72  01A5               	clrf	___awdiv@sign
  4829  0E73  0AA5               	incf	___awdiv@sign,f
  4830  0E74                     l6139:	
  4831  0E74  1FA3               	btfss	___awdiv@dividend+1,7
  4832  0E75  2E7D               	goto	l6145
  4833  0E76  09A2               	comf	___awdiv@dividend,f
  4834  0E77  09A3               	comf	___awdiv@dividend+1,f
  4835  0E78  0AA2               	incf	___awdiv@dividend,f
  4836  0E79  1903               	skipnz
  4837  0E7A  0AA3               	incf	___awdiv@dividend+1,f
  4838  0E7B  3001               	movlw	1
  4839  0E7C  06A5               	xorwf	___awdiv@sign,f
  4840  0E7D                     l6145:	
  4841  0E7D  01A6               	clrf	___awdiv@quotient
  4842  0E7E  01A7               	clrf	___awdiv@quotient+1
  4843  0E7F  0821               	movf	___awdiv@divisor+1,w
  4844  0E80  0420               	iorwf	___awdiv@divisor,w
  4845  0E81  1903               	skipnz
  4846  0E82  2EA2               	goto	l6167
  4847  0E83  01A4               	clrf	___awdiv@counter
  4848  0E84                     L15:	
  4849  0E84  0AA4               	incf	___awdiv@counter,f
  4850  0E85  1BA1               	btfsc	___awdiv@divisor+1,7
  4851  0E86  2E8B               	goto	l6155
  4852  0E87  1003               	clrc
  4853  0E88  0DA0               	rlf	___awdiv@divisor,f
  4854  0E89  0DA1               	rlf	___awdiv@divisor+1,f
  4855  0E8A  2E84               	goto	L15
  4856  0E8B                     l6155:	
  4857  0E8B  1003               	clrc
  4858  0E8C  0DA6               	rlf	___awdiv@quotient,f
  4859  0E8D  0DA7               	rlf	___awdiv@quotient+1,f
  4860  0E8E  0821               	movf	___awdiv@divisor+1,w
  4861  0E8F  0223               	subwf	___awdiv@dividend+1,w
  4862  0E90  1D03               	skipz
  4863  0E91  2E94               	goto	u3745
  4864  0E92  0820               	movf	___awdiv@divisor,w
  4865  0E93  0222               	subwf	___awdiv@dividend,w
  4866  0E94                     u3745:	
  4867  0E94  1C03               	skipc
  4868  0E95  2E9E               	goto	L16
  4869  0E96  0820               	movf	___awdiv@divisor,w
  4870  0E97  02A2               	subwf	___awdiv@dividend,f
  4871  0E98  0821               	movf	___awdiv@divisor+1,w
  4872  0E99  1C03               	skipc
  4873  0E9A  03A3               	decf	___awdiv@dividend+1,f
  4874  0E9B  02A3               	subwf	___awdiv@dividend+1,f
  4875  0E9C  1426               	bsf	___awdiv@quotient,0
  4876  0E9D  1003               	clrc
  4877  0E9E                     L16:	
  4878  0E9E  0CA1               	rrf	___awdiv@divisor+1,f
  4879  0E9F  0CA0               	rrf	___awdiv@divisor,f
  4880  0EA0  0BA4               	decfsz	___awdiv@counter,f
  4881  0EA1  2E8B               	goto	l6155
  4882  0EA2                     l6167:	
  4883  0EA2  0825               	movf	___awdiv@sign,w
  4884  0EA3  1903               	btfsc	3,2
  4885  0EA4  2EAA               	goto	l6171
  4886  0EA5  09A6               	comf	___awdiv@quotient,f
  4887  0EA6  09A7               	comf	___awdiv@quotient+1,f
  4888  0EA7  0AA6               	incf	___awdiv@quotient,f
  4889  0EA8  1903               	skipnz
  4890  0EA9  0AA7               	incf	___awdiv@quotient+1,f
  4891  0EAA                     l6171:	
  4892  0EAA  0827               	movf	___awdiv@quotient+1,w
  4893  0EAB  00A1               	movwf	?___awdiv+1
  4894  0EAC  0826               	movf	___awdiv@quotient,w
  4895  0EAD  00A0               	movwf	?___awdiv
  4896  0EAE  0008               	return
  4897  0EAF                     __end_of___awdiv:	
  4898  0EAF                     __ptext785:	
  4899 ;; =============== function _send_string ends ============
  4900                           
  4901                           
  4902 ;; *************** function ___awmod *****************
  4903 ;; Defined at:
  4904 ;;		line 5 in file "C:\Program Files (x86)\HI-TECH Software\PICC\9.83\sources\awmod.c"
  4905 ;; Parameters:    Size  Location     Type
  4906 ;;  divisor         2    2[COMMON] int 
  4907 ;;  dividend        2    4[COMMON] int 
  4908 ;; Auto vars:     Size  Location     Type
  4909 ;;  sign            1    7[COMMON] unsigned char 
  4910 ;;  counter         1    6[COMMON] unsigned char 
  4911 ;; Return value:  Size  Location     Type
  4912 ;;                  2    2[COMMON] int 
  4913 ;; Registers used:
  4914 ;;		wreg, status,2, status,0
  4915 ;; Tracked objects:
  4916 ;;		On entry : 60/0
  4917 ;;		On exit  : 60/0
  4918 ;;		Unchanged: FFF9F/0
  4919 ;; Data sizes:     COMMON   BANK0   BANK1   BANK3   BANK2
  4920 ;;      Params:         4       0       0       0       0
  4921 ;;      Locals:         2       0       0       0       0
  4922 ;;      Temps:          0       0       0       0       0
  4923 ;;      Totals:         6       0       0       0       0
  4924 ;;Total ram usage:        6 bytes
  4925 ;; Hardware stack levels used:    1
  4926 ;; Hardware stack levels required when called:    1
  4927 ;; This function calls:
  4928 ;;		Nothing
  4929 ;; This function is called by:
  4930 ;;		_scale
  4931 ;; This function uses a non-reentrant model
  4932 ;;
  4933  0EAF                     ___awmod:	
  4934                           
  4935                           ; Regs used in ___awmod: [wreg+status,2+status,0]
  4936  0EAF  01F7               	clrf	___awmod@sign
  4937  0EB0  1FF5               	btfss	___awmod@dividend+1,7
  4938  0EB1  2EB9               	goto	l6257
  4939  0EB2  09F4               	comf	___awmod@dividend,f
  4940  0EB3  09F5               	comf	___awmod@dividend+1,f
  4941  0EB4  0AF4               	incf	___awmod@dividend,f
  4942  0EB5  1903               	skipnz
  4943  0EB6  0AF5               	incf	___awmod@dividend+1,f
  4944  0EB7  01F7               	clrf	___awmod@sign
  4945  0EB8  0AF7               	incf	___awmod@sign,f
  4946  0EB9                     l6257:	
  4947  0EB9  1FF3               	btfss	___awmod@divisor+1,7
  4948  0EBA  2EC0               	goto	l6261
  4949  0EBB  09F2               	comf	___awmod@divisor,f
  4950  0EBC  09F3               	comf	___awmod@divisor+1,f
  4951  0EBD  0AF2               	incf	___awmod@divisor,f
  4952  0EBE  1903               	skipnz
  4953  0EBF  0AF3               	incf	___awmod@divisor+1,f
  4954  0EC0                     l6261:	
  4955  0EC0  0873               	movf	___awmod@divisor+1,w
  4956  0EC1  0472               	iorwf	___awmod@divisor,w
  4957  0EC2  1903               	skipnz
  4958  0EC3  2EDF               	goto	l6277
  4959  0EC4  01F6               	clrf	___awmod@counter
  4960  0EC5                     L8:	
  4961  0EC5  0AF6               	incf	___awmod@counter,f
  4962  0EC6  1BF3               	btfsc	___awmod@divisor+1,7
  4963  0EC7  2ECC               	goto	l6269
  4964  0EC8  1003               	clrc
  4965  0EC9  0DF2               	rlf	___awmod@divisor,f
  4966  0ECA  0DF3               	rlf	___awmod@divisor+1,f
  4967  0ECB  2EC5               	goto	L8
  4968  0ECC                     l6269:	
  4969  0ECC  0873               	movf	___awmod@divisor+1,w
  4970  0ECD  0275               	subwf	___awmod@dividend+1,w
  4971  0ECE  1D03               	skipz
  4972  0ECF  2ED2               	goto	u3935
  4973  0ED0  0872               	movf	___awmod@divisor,w
  4974  0ED1  0274               	subwf	___awmod@dividend,w
  4975  0ED2                     u3935:	
  4976  0ED2  1C03               	skipc
  4977  0ED3  2EDB               	goto	L9
  4978  0ED4  0872               	movf	___awmod@divisor,w
  4979  0ED5  02F4               	subwf	___awmod@dividend,f
  4980  0ED6  0873               	movf	___awmod@divisor+1,w
  4981  0ED7  1C03               	skipc
  4982  0ED8  03F5               	decf	___awmod@dividend+1,f
  4983  0ED9  02F5               	subwf	___awmod@dividend+1,f
  4984  0EDA  1003               	clrc
  4985  0EDB                     L9:	
  4986  0EDB  0CF3               	rrf	___awmod@divisor+1,f
  4987  0EDC  0CF2               	rrf	___awmod@divisor,f
  4988  0EDD  0BF6               	decfsz	___awmod@counter,f
  4989  0EDE  2ECC               	goto	l6269
  4990  0EDF                     l6277:	
  4991  0EDF  0877               	movf	___awmod@sign,w
  4992  0EE0  1903               	btfsc	3,2
  4993  0EE1  2EE7               	goto	l6281
  4994  0EE2  09F4               	comf	___awmod@dividend,f
  4995  0EE3  09F5               	comf	___awmod@dividend+1,f
  4996  0EE4  0AF4               	incf	___awmod@dividend,f
  4997  0EE5  1903               	skipnz
  4998  0EE6  0AF5               	incf	___awmod@dividend+1,f
  4999  0EE7                     l6281:	
  5000  0EE7  0875               	movf	___awmod@dividend+1,w
  5001  0EE8  00F3               	movwf	?___awmod+1
  5002  0EE9  0874               	movf	___awmod@dividend,w
  5003  0EEA  00F2               	movwf	?___awmod
  5004  0EEB  0008               	return
  5005  0EEC                     __end_of___awmod:	
  5006  0EEC                     __ptext781:	
  5007 ;; =============== function ___awtoft ends ============
  5008                           
  5009                           
  5010 ;; *************** function ___ftmul *****************
  5011 ;; Defined at:
  5012 ;;		line 52 in file "C:\Program Files (x86)\HI-TECH Software\PICC\9.83\sources\ftmul.c"
  5013 ;; Parameters:    Size  Location     Type
  5014 ;;  f1              3   21[BANK0 ] float 
  5015 ;;  f2              3   24[BANK0 ] float 
  5016 ;; Auto vars:     Size  Location     Type
  5017 ;;  f3_as_produc    3   31[BANK0 ] unsigned um
  5018 ;;  sign            1   35[BANK0 ] unsigned char 
  5019 ;;  cntr            1   34[BANK0 ] unsigned char 
  5020 ;;  exp             1   30[BANK0 ] unsigned char 
  5021 ;; Return value:  Size  Location     Type
  5022 ;;                  3   21[BANK0 ] float 
  5023 ;; Registers used:
  5024 ;;		wreg, status,2, status,0, pclath, cstack
  5025 ;; Tracked objects:
  5026 ;;		On entry : 60/0
  5027 ;;		On exit  : 60/0
  5028 ;;		Unchanged: FFF9F/0
  5029 ;; Data sizes:     COMMON   BANK0   BANK1   BANK3   BANK2
  5030 ;;      Params:         0       6       0       0       0
  5031 ;;      Locals:         0       6       0       0       0
  5032 ;;      Temps:          0       3       0       0       0
  5033 ;;      Totals:         0      15       0       0       0
  5034 ;;Total ram usage:       15 bytes
  5035 ;; Hardware stack levels used:    1
  5036 ;; Hardware stack levels required when called:    2
  5037 ;; This function calls:
  5038 ;;		___ftpack
  5039 ;; This function is called by:
  5040 ;;		_main
  5041 ;;		_fround
  5042 ;;		_scale
  5043 ;;		_sprintf
  5044 ;; This function uses a non-reentrant model
  5045 ;;
  5046  0EEC                     ___ftmul:	
  5047                           
  5048                           ; Regs used in ___ftmul: [wreg+status,2+status,0+pclath+cstack]
  5049  0EEC  0835               	movf	___ftmul@f1,w
  5050  0EED  00BB               	movwf	??___ftmul
  5051  0EEE  0836               	movf	___ftmul@f1+1,w
  5052  0EEF  00BC               	movwf	??___ftmul+1
  5053  0EF0  0837               	movf	___ftmul@f1+2,w
  5054  0EF1  00BD               	movwf	??___ftmul+2
  5055  0EF2  1003               	clrc
  5056  0EF3  0D3C               	rlf	??___ftmul+1,w
  5057  0EF4  0D3D               	rlf	??___ftmul+2,w
  5058  0EF5  00BE               	movwf	___ftmul@exp
  5059  0EF6  08BE               	movf	___ftmul@exp,f
  5060  0EF7  1D03               	skipz
  5061  0EF8  2EFD               	goto	l6421
  5062  0EF9  01B5               	clrf	?___ftmul
  5063  0EFA  01B6               	clrf	?___ftmul+1
  5064  0EFB  01B7               	clrf	?___ftmul+2
  5065  0EFC  0008               	return
  5066  0EFD                     l6421:	
  5067  0EFD  0838               	movf	___ftmul@f2,w
  5068  0EFE  00BB               	movwf	??___ftmul
  5069  0EFF  0839               	movf	___ftmul@f2+1,w
  5070  0F00  00BC               	movwf	??___ftmul+1
  5071  0F01  083A               	movf	___ftmul@f2+2,w
  5072  0F02  00BD               	movwf	??___ftmul+2
  5073  0F03  1003               	clrc
  5074  0F04  0D3C               	rlf	??___ftmul+1,w
  5075  0F05  0D3D               	rlf	??___ftmul+2,w
  5076  0F06  00C3               	movwf	___ftmul@sign
  5077  0F07  08C3               	movf	___ftmul@sign,f
  5078  0F08  1D03               	skipz
  5079  0F09  2F0E               	goto	l6427
  5080  0F0A  01B5               	clrf	?___ftmul
  5081  0F0B  01B6               	clrf	?___ftmul+1
  5082  0F0C  01B7               	clrf	?___ftmul+2
  5083  0F0D  0008               	return
  5084  0F0E                     l6427:	
  5085  0F0E  0843               	movf	___ftmul@sign,w
  5086  0F0F  3E7B               	addlw	123
  5087  0F10  07BE               	addwf	___ftmul@exp,f
  5088  0F11  0837               	movf	___ftmul@f1+2,w
  5089  0F12  00C3               	movwf	___ftmul@sign
  5090  0F13  083A               	movf	___ftmul@f2+2,w
  5091  0F14  06C3               	xorwf	___ftmul@sign,f
  5092  0F15  3080               	movlw	128
  5093  0F16  05C3               	andwf	___ftmul@sign,f
  5094  0F17  3007               	movlw	7
  5095  0F18  17B6               	bsf	___ftmul@f1+1,7
  5096  0F19  17B9               	bsf	___ftmul@f2+1,7
  5097  0F1A  01BA               	clrf	___ftmul@f2+2
  5098  0F1B  01BF               	clrf	___ftmul@f3_as_product
  5099  0F1C  01C0               	clrf	___ftmul@f3_as_product+1
  5100  0F1D  01C1               	clrf	___ftmul@f3_as_product+2
  5101  0F1E  00C2               	movwf	___ftmul@cntr
  5102  0F1F                     l6445:	
  5103  0F1F  1C35               	btfss	___ftmul@f1,0
  5104  0F20  2F29               	goto	l6449
  5105  0F21  0838               	movf	___ftmul@f2,w
  5106  0F22  27D6  120A  158A   	fcall	PL18	;call to abstracted procedure
  5107  0F25  1803               	skipnc
  5108  0F26  0A3A               	incf	___ftmul@f2+2,w
  5109  0F27  1D03               	btfss	3,2
  5110  0F28  07C1               	addwf	___ftmul@f3_as_product+2,f
  5111  0F29                     l6449:	
  5112  0F29  1003               	clrc
  5113  0F2A  0CB7               	rrf	___ftmul@f1+2,f
  5114  0F2B  0CB6               	rrf	___ftmul@f1+1,f
  5115  0F2C  0CB5               	rrf	___ftmul@f1,f
  5116  0F2D  1003               	clrc
  5117  0F2E  0DB8               	rlf	___ftmul@f2,f
  5118  0F2F  0DB9               	rlf	___ftmul@f2+1,f
  5119  0F30  0DBA               	rlf	___ftmul@f2+2,f
  5120  0F31  0BC2               	decfsz	___ftmul@cntr,f
  5121  0F32  2F1F               	goto	l6445
  5122  0F33  3009               	movlw	9
  5123  0F34  00C2               	movwf	___ftmul@cntr
  5124  0F35                     l6457:	
  5125  0F35  1C35               	btfss	___ftmul@f1,0
  5126  0F36  2F3F               	goto	l6461
  5127  0F37  0838               	movf	___ftmul@f2,w
  5128  0F38  27D6  120A  158A   	fcall	PL18	;call to abstracted procedure
  5129  0F3B  1803               	skipnc
  5130  0F3C  0A3A               	incf	___ftmul@f2+2,w
  5131  0F3D  1D03               	btfss	3,2
  5132  0F3E  07C1               	addwf	___ftmul@f3_as_product+2,f
  5133  0F3F                     l6461:	
  5134  0F3F  1003               	clrc
  5135  0F40  0CB7               	rrf	___ftmul@f1+2,f
  5136  0F41  0CB6               	rrf	___ftmul@f1+1,f
  5137  0F42  0CB5               	rrf	___ftmul@f1,f
  5138  0F43  1003               	clrc
  5139  0F44  0CC1               	rrf	___ftmul@f3_as_product+2,f
  5140  0F45  0CC0               	rrf	___ftmul@f3_as_product+1,f
  5141  0F46  0CBF               	rrf	___ftmul@f3_as_product,f
  5142  0F47  0BC2               	decfsz	___ftmul@cntr,f
  5143  0F48  2F35               	goto	l6457
  5144  0F49  083F               	movf	___ftmul@f3_as_product,w
  5145  0F4A  00F2               	movwf	?___ftpack
  5146  0F4B  0840               	movf	___ftmul@f3_as_product+1,w
  5147  0F4C  00F3               	movwf	?___ftpack+1
  5148  0F4D  0841               	movf	___ftmul@f3_as_product+2,w
  5149  0F4E  00F4               	movwf	?___ftpack+2
  5150  0F4F  083E               	movf	___ftmul@exp,w
  5151  0F50  00F5               	movwf	?___ftpack+3
  5152  0F51  0843               	movf	___ftmul@sign,w
  5153  0F52  00F6               	movwf	?___ftpack+4
  5154  0F53  2769               	fcall	___ftpack
  5155  0F54  0872               	movf	?___ftpack,w
  5156  0F55  00B5               	movwf	?___ftmul
  5157  0F56  0873               	movf	?___ftpack+1,w
  5158  0F57  00B6               	movwf	?___ftmul+1
  5159  0F58  0874               	movf	?___ftpack+2,w
  5160  0F59  00B7               	movwf	?___ftmul+2
  5161  0F5A  0008               	return
  5162  0F5B                     __end_of___ftmul:	
  5163  0F5B                     __ptext796:	
  5164 ;; =============== function ___wmul ends ============
  5165                           
  5166                           
  5167 ;; *************** function ___bmul *****************
  5168 ;; Defined at:
  5169 ;;		line 3 in file "C:\Program Files (x86)\HI-TECH Software\PICC\9.83\sources\bmul.c"
  5170 ;; Parameters:    Size  Location     Type
  5171 ;;  multiplier      1    wreg     unsigned char 
  5172 ;;  multiplicand    1    8[COMMON] unsigned char 
  5173 ;; Auto vars:     Size  Location     Type
  5174 ;;  multiplier      1    4[BANK0 ] unsigned char 
  5175 ;;  product         1    3[BANK0 ] unsigned char 
  5176 ;; Return value:  Size  Location     Type
  5177 ;;                  1    wreg      unsigned char 
  5178 ;; Registers used:
  5179 ;;		wreg, status,2, status,0
  5180 ;; Tracked objects:
  5181 ;;		On entry : 60/0
  5182 ;;		On exit  : 60/0
  5183 ;;		Unchanged: FFF9F/0
  5184 ;; Data sizes:     COMMON   BANK0   BANK1   BANK3   BANK2
  5185 ;;      Params:         1       0       0       0       0
  5186 ;;      Locals:         0       2       0       0       0
  5187 ;;      Temps:          0       0       0       0       0
  5188 ;;      Totals:         1       2       0       0       0
  5189 ;;Total ram usage:        3 bytes
  5190 ;; Hardware stack levels used:    1
  5191 ;; Hardware stack levels required when called:    1
  5192 ;; This function calls:
  5193 ;;		Nothing
  5194 ;; This function is called by:
  5195 ;;		_fround
  5196 ;;		_scale
  5197 ;; This function uses a non-reentrant model
  5198 ;;
  5199  0F5B                     ___bmul:	
  5200                           
  5201                           ; Regs used in ___bmul: [wreg+status,2+status,0]
  5202                           ;___bmul@multiplier stored from wreg
  5203  0F5B  00A4               	movwf	___bmul@multiplier
  5204  0F5C  01A3               	clrf	___bmul@product
  5205  0F5D                     l5993:	
  5206  0F5D  0878               	movf	___bmul@multiplicand,w
  5207  0F5E  1824               	btfsc	___bmul@multiplier,0
  5208  0F5F  07A3               	addwf	___bmul@product,f
  5209  0F60  1003               	clrc
  5210  0F61  0DF8               	rlf	___bmul@multiplicand,f
  5211  0F62  1003               	clrc
  5212  0F63  0CA4               	rrf	___bmul@multiplier,f
  5213  0F64  08A4               	movf	___bmul@multiplier,f
  5214  0F65  1D03               	skipz
  5215  0F66  2F5D               	goto	l5993
  5216  0F67  0823               	movf	___bmul@product,w
  5217  0F68  0008               	return
  5218  0F69                     __end_of___bmul:	
  5219  0F69                     __ptext792:	
  5220 ;; =============== function ___fttol ends ============
  5221                           
  5222                           
  5223 ;; *************** function ___ftpack *****************
  5224 ;; Defined at:
  5225 ;;		line 63 in file "C:\Program Files (x86)\HI-TECH Software\PICC\9.83\sources\float.c"
  5226 ;; Parameters:    Size  Location     Type
  5227 ;;  arg             3    2[COMMON] unsigned um
  5228 ;;  exp             1    5[COMMON] unsigned char 
  5229 ;;  sign            1    6[COMMON] unsigned char 
  5230 ;; Auto vars:     Size  Location     Type
  5231 ;;		None
  5232 ;; Return value:  Size  Location     Type
  5233 ;;                  3    2[COMMON] float 
  5234 ;; Registers used:
  5235 ;;		wreg, status,2, status,0
  5236 ;; Tracked objects:
  5237 ;;		On entry : 60/0
  5238 ;;		On exit  : 60/0
  5239 ;;		Unchanged: FFF9F/0
  5240 ;; Data sizes:     COMMON   BANK0   BANK1   BANK3   BANK2
  5241 ;;      Params:         5       0       0       0       0
  5242 ;;      Locals:         0       0       0       0       0
  5243 ;;      Temps:          3       0       0       0       0
  5244 ;;      Totals:         8       0       0       0       0
  5245 ;;Total ram usage:        8 bytes
  5246 ;; Hardware stack levels used:    1
  5247 ;; Hardware stack levels required when called:    1
  5248 ;; This function calls:
  5249 ;;		Nothing
  5250 ;; This function is called by:
  5251 ;;		___ftadd
  5252 ;;		___ftdiv
  5253 ;;		___ftmul
  5254 ;;		___awtoft
  5255 ;;		___lltoft
  5256 ;; This function uses a non-reentrant model
  5257 ;;
  5258  0F69                     ___ftpack:	
  5259                           
  5260                           ; Regs used in ___ftpack: [wreg+status,2+status,0]
  5261  0F69  0875               	movf	___ftpack@exp,w
  5262  0F6A  1903               	btfsc	3,2
  5263  0F6B  2F71               	goto	l6069
  5264  0F6C  0874               	movf	___ftpack@arg+2,w
  5265  0F6D  0473               	iorwf	___ftpack@arg+1,w
  5266  0F6E  0472               	iorwf	___ftpack@arg,w
  5267  0F6F  1D03               	skipz
  5268  0F70  2F7A               	goto	l6075
  5269  0F71                     l6069:	
  5270  0F71  01F2               	clrf	?___ftpack
  5271  0F72  01F3               	clrf	?___ftpack+1
  5272  0F73  01F4               	clrf	?___ftpack+2
  5273  0F74  0008               	return
  5274  0F75                     l6073:	
  5275  0F75  0AF5               	incf	___ftpack@exp,f
  5276  0F76  1003               	clrc
  5277  0F77  0CF4               	rrf	___ftpack@arg+2,f
  5278  0F78  0CF3               	rrf	___ftpack@arg+1,f
  5279  0F79  0CF2               	rrf	___ftpack@arg,f
  5280  0F7A                     l6075:	
  5281  0F7A  30FE               	movlw	254
  5282  0F7B  0574               	andwf	___ftpack@arg+2,w
  5283  0F7C  1903               	btfsc	3,2
  5284  0F7D  2F89               	goto	l6079
  5285  0F7E  2F75               	goto	l6073
  5286  0F7F                     l6077:	
  5287  0F7F  0AF5               	incf	___ftpack@exp,f
  5288  0F80  0AF2               	incf	___ftpack@arg,f
  5289  0F81  1903               	skipnz
  5290  0F82  0AF3               	incf	___ftpack@arg+1,f
  5291  0F83  1903               	skipnz
  5292  0F84  0AF4               	incf	___ftpack@arg+2,f
  5293  0F85  1003               	clrc
  5294  0F86  0CF4               	rrf	___ftpack@arg+2,f
  5295  0F87  0CF3               	rrf	___ftpack@arg+1,f
  5296  0F88  0CF2               	rrf	___ftpack@arg,f
  5297  0F89                     l6079:	
  5298  0F89  30FF               	movlw	255
  5299  0F8A  0574               	andwf	___ftpack@arg+2,w
  5300  0F8B  1903               	btfsc	3,2
  5301  0F8C  2F93               	goto	l6083
  5302  0F8D  2F7F               	goto	l6077
  5303  0F8E                     l6081:	
  5304  0F8E  03F5               	decf	___ftpack@exp,f
  5305  0F8F  1003               	clrc
  5306  0F90  0DF2               	rlf	___ftpack@arg,f
  5307  0F91  0DF3               	rlf	___ftpack@arg+1,f
  5308  0F92  0DF4               	rlf	___ftpack@arg+2,f
  5309  0F93                     l6083:	
  5310  0F93  1FF3               	btfss	___ftpack@arg+1,7
  5311  0F94  2F8E               	goto	l6081
  5312  0F95  1C75               	btfss	___ftpack@exp,0
  5313  0F96  13F3               	bcf	___ftpack@arg+1,7
  5314  0F97  1003               	clrc
  5315  0F98  0CF5               	rrf	___ftpack@exp,f
  5316  0F99  0875               	movf	___ftpack@exp,w
  5317  0F9A  00F9               	movwf	??___ftpack+2
  5318  0F9B  01F8               	clrf	??___ftpack+1
  5319  0F9C  01F7               	clrf	??___ftpack
  5320  0F9D  0877               	movf	??___ftpack,w
  5321  0F9E  04F2               	iorwf	___ftpack@arg,f
  5322  0F9F  0878               	movf	??___ftpack+1,w
  5323  0FA0  04F3               	iorwf	___ftpack@arg+1,f
  5324  0FA1  0879               	movf	??___ftpack+2,w
  5325  0FA2  04F4               	iorwf	___ftpack@arg+2,f
  5326  0FA3  0876               	movf	___ftpack@sign,w
  5327  0FA4  1D03               	skipz
  5328  0FA5  17F4               	bsf	___ftpack@arg+2,7
  5329  0FA6  0008               	return
  5330  0FA7                     __end_of___ftpack:	
  5331  0FA7                     PL6:	
  5332  0FA7  0835               	movf	?___ftmul,w
  5333  0FA8  00CB               	movwf	_scale$2808
  5334  0FA9  0836               	movf	?___ftmul+1,w
  5335  0FAA  00CC               	movwf	_scale$2808+1
  5336  0FAB  0837               	movf	?___ftmul+2,w
  5337  0FAC  00CD               	movwf	_scale$2808+2
  5338  0FAD  300A               	movlw	10
  5339  0FAE  00F2               	movwf	?___awmod
  5340  0FAF  01F3               	clrf	?___awmod+1
  5341  0FB0  084E               	movf	scale@scl,w
  5342  0FB1  00F4               	movwf	?___awmod+2
  5343  0FB2  01F5               	clrf	?___awmod+3
  5344  0FB3  0008               	return
  5345  0FB4                     PL7:	
  5346  0FB4  0872               	movf	?___awmod,w
  5347  0FB5  00C7               	movwf	??_scale
  5348  0FB6  0873               	movf	?___awmod+1,w
  5349  0FB7  00C8               	movwf	??_scale+1
  5350  0FB8  0847               	movf	??_scale,w
  5351  0FB9  0747               	addwf	??_scale,w
  5352  0FBA  0747               	addwf	??_scale,w
  5353  0FBB  0008               	return
  5354  0FBC                     PL8:	
  5355  0FBC  0820               	movf	?___awdiv,w
  5356  0FBD  00C9               	movwf	??_scale+2
  5357  0FBE  0821               	movf	?___awdiv+1,w
  5358  0FBF  00CA               	movwf	??_scale+3
  5359  0FC0  0849               	movf	??_scale+2,w
  5360  0FC1  0749               	addwf	??_scale+2,w
  5361  0FC2  0749               	addwf	??_scale+2,w
  5362  0FC3  0008               	return
  5363  0FC4                     PL9:	
  5364  0FC4  0835               	movf	?___ftmul,w
  5365  0FC5  00C4               	movwf	?_scale
  5366  0FC6  0836               	movf	?___ftmul+1,w
  5367  0FC7  00C5               	movwf	?_scale+1
  5368  0FC8  0837               	movf	?___ftmul+2,w
  5369  0FC9  00C6               	movwf	?_scale+2
  5370  0FCA  0008               	return
  5371  0FCB                     PL11:	
  5372  0FCB  00A0               	movwf	?___awdiv
  5373  0FCC  01A1               	clrf	?___awdiv+1
  5374  0FCD  084E               	movf	scale@scl,w
  5375  0FCE  00F4               	movwf	?___awmod+2
  5376  0FCF  01F5               	clrf	?___awmod+3
  5377  0FD0  1BF4               	btfsc	?___awmod+2,7
  5378  0FD1  03F5               	decf	?___awmod+3,f
  5379  0FD2  3064               	movlw	100
  5380  0FD3  00F2               	movwf	?___awmod
  5381  0FD4  01F3               	clrf	?___awmod+1
  5382  0FD5  0008               	return
  5383  0FD6                     PL18:	
  5384  0FD6  07BF               	addwf	___ftmul@f3_as_product,f
  5385  0FD7  0839               	movf	___ftmul@f2+1,w
  5386  0FD8  1103               	clrz
  5387  0FD9  1803               	skipnc
  5388  0FDA  0A39               	incf	___ftmul@f2+1,w
  5389  0FDB  1D03               	btfss	3,2
  5390  0FDC  07C0               	addwf	___ftmul@f3_as_product+1,f
  5391  0FDD  083A               	movf	___ftmul@f2+2,w
  5392  0FDE  1103               	clrz
  5393  0FDF  0008               	return
  5394  0FE0                     PL24:	
  5395  0FE0  00B7               	movwf	?___ftmul+2
  5396  0FE1  084B               	movf	_scale$2808,w
  5397  0FE2  00B8               	movwf	?___ftmul+3
  5398  0FE3  084C               	movf	_scale$2808+1,w
  5399  0FE4  00B9               	movwf	?___ftmul+4
  5400  0FE5  084D               	movf	_scale$2808+2,w
  5401  0FE6  00BA               	movwf	?___ftmul+5
  5402  0FE7  0008               	return
  5403  0FE8                     PL25:	
  5404  0FE8  00B7               	movwf	?___ftmul+2
  5405  0FE9  300A               	movlw	10
  5406  0FEA  00A0               	movwf	?___awdiv
  5407  0FEB  01A1               	clrf	?___awdiv+1
  5408  0FEC  084E               	movf	scale@scl,w
  5409  0FED  00A2               	movwf	?___awdiv+2
  5410  0FEE  01A3               	clrf	?___awdiv+3
  5411  0FEF  0008               	return
  5412  0FF0                     PL26:	
  5413  0FF0  0820               	movf	?___awdiv,w
  5414  0FF1  00C7               	movwf	??_scale
  5415  0FF2  0821               	movf	?___awdiv+1,w
  5416  0FF3  00C8               	movwf	??_scale+1
  5417  0FF4  0847               	movf	??_scale,w
  5418  0FF5  0747               	addwf	??_scale,w
  5419  0FF6  0747               	addwf	??_scale,w
  5420  0FF7  0008               	return
  5421  0FF8                     PL27:	
  5422  0FF8  00B7               	movwf	?___ftmul+2
  5423  0FF9  3064               	movlw	100
  5424  0FFA  00A0               	movwf	?___awdiv
  5425  0FFB  01A1               	clrf	?___awdiv+1
  5426  0FFC  084E               	movf	scale@scl,w
  5427  0FFD  00A2               	movwf	?___awdiv+2
  5428  0FFE  01A3               	clrf	?___awdiv+3
  5429  0FFF  0008               	return
  5430                           
  5431                           	psect	text784
  5432  07E6                     __ptext784:	
  5433 ;; =============== function ___ftadd ends ============
  5434                           
  5435                           
  5436 ;; *************** function _send_string *****************
  5437 ;; Defined at:
  5438 ;;		line 74 in file "D:\TTVXL\Project TTVXL\BT n Thi 02\BT n Thi 02.c"
  5439 ;; Parameters:    Size  Location     Type
  5440 ;;  s               1    wreg     PTR const unsigned char 
  5441 ;;		 -> main@data_tx(10), 
  5442 ;; Auto vars:     Size  Location     Type
  5443 ;;  s               1    3[COMMON] PTR const unsigned char 
  5444 ;;		 -> main@data_tx(10), 
  5445 ;; Return value:  Size  Location     Type
  5446 ;;		None               void
  5447 ;; Registers used:
  5448 ;;		wreg, fsr0l, fsr0h, status,2, status,0, pclath, cstack
  5449 ;; Tracked objects:
  5450 ;;		On entry : 160/20
  5451 ;;		On exit  : 140/0
  5452 ;;		Unchanged: FFE9F/0
  5453 ;; Data sizes:     COMMON   BANK0   BANK1   BANK3   BANK2
  5454 ;;      Params:         0       0       0       0       0
  5455 ;;      Locals:         1       0       0       0       0
  5456 ;;      Temps:          0       0       0       0       0
  5457 ;;      Totals:         1       0       0       0       0
  5458 ;;Total ram usage:        1 bytes
  5459 ;; Hardware stack levels used:    1
  5460 ;; Hardware stack levels required when called:    2
  5461 ;; This function calls:
  5462 ;;		_send_char
  5463 ;; This function is called by:
  5464 ;;		_main
  5465 ;; This function uses a non-reentrant model
  5466 ;;
  5467  07E6                     _send_string:	
  5468                           
  5469                           ; Regs used in _send_string: [wreg-fsr0h+status,2+status,0+pclath+cstack]
  5470                           ;send_string@s stored from wreg
  5471  07E6  00F3               	movwf	send_string@s
  5472  07E7                     l6291:	
  5473                           ;BT n Thi 02.c: 75: while(*s) {send_char(*s++);}
  5474                           
  5475  07E7  0873               	movf	send_string@s,w
  5476  07E8  0084               	movwf	4
  5477  07E9  0880               	movf	0,f
  5478  07EA  1903               	btfsc	3,2
  5479  07EB  0008               	return
  5480  07EC  0873               	movf	send_string@s,w
  5481  07ED  0084               	movwf	4
  5482  07EE  0800               	movf	0,w
  5483  07EF  27F4  120A  118A   	fcall	_send_char
  5484  07F2  0AF3               	incf	send_string@s,f
  5485  07F3  2FE7               	goto	l6291
  5486  07F4                     __end_of_send_string:	
  5487  07F4                     __ptext800:	
  5488 ;; =============== function _isdigit ends ============
  5489                           
  5490                           
  5491 ;; *************** function _send_char *****************
  5492 ;; Defined at:
  5493 ;;		line 70 in file "D:\TTVXL\Project TTVXL\BT n Thi 02\BT n Thi 02.c"
  5494 ;; Parameters:    Size  Location     Type
  5495 ;;  data            1    wreg     unsigned char 
  5496 ;; Auto vars:     Size  Location     Type
  5497 ;;  data            1    2[COMMON] unsigned char 
  5498 ;; Return value:  Size  Location     Type
  5499 ;;		None               void
  5500 ;; Registers used:
  5501 ;;		wreg
  5502 ;; Tracked objects:
  5503 ;;		On entry : 140/20
  5504 ;;		On exit  : 160/0
  5505 ;;		Unchanged: FFE9F/0
  5506 ;; Data sizes:     COMMON   BANK0   BANK1   BANK3   BANK2
  5507 ;;      Params:         0       0       0       0       0
  5508 ;;      Locals:         1       0       0       0       0
  5509 ;;      Temps:          0       0       0       0       0
  5510 ;;      Totals:         1       0       0       0       0
  5511 ;;Total ram usage:        1 bytes
  5512 ;; Hardware stack levels used:    1
  5513 ;; Hardware stack levels required when called:    1
  5514 ;; This function calls:
  5515 ;;		Nothing
  5516 ;; This function is called by:
  5517 ;;		_send_string
  5518 ;; This function uses a non-reentrant model
  5519 ;;
  5520  07F4                     _send_char:	
  5521                           
  5522                           ; Regs used in _send_char: [wreg]
  5523                           ;send_char@data stored from wreg
  5524  07F4  00F2               	movwf	send_char@data
  5525  07F5                     l1058:	
  5526                           ;BT n Thi 02.c: 71: while (TXIF==0){}
  5527                           
  5528  07F5  1283               	bcf	3,5	;RP0=0, select bank0
  5529  07F6  1E0C               	btfss	12,4
  5530  07F7  2FF5               	goto	l1058
  5531                           
  5532                           ;BT n Thi 02.c: 72: TXREG = data;
  5533  07F8  0872               	movf	send_char@data,w
  5534  07F9  0099               	movwf	25	;volatile
  5535  07FA  0008               	return
  5536  07FB                     __end_of_send_char:	
  5537                           
  5538                           	psect	text797
  5539  0A1A                     __ptext797:	
  5540 ;; =============== function ___bmul ends ============
  5541                           
  5542                           
  5543 ;; *************** function __div_to_l_ *****************
  5544 ;; Defined at:
  5545 ;;		line 61 in file "C:\Program Files (x86)\HI-TECH Software\PICC\9.83\sources\fldivl.c"
  5546 ;; Parameters:    Size  Location     Type
  5547 ;;  f1              3    2[COMMON] unsigned char 
  5548 ;;  f2              3    5[COMMON] unsigned char 
  5549 ;; Auto vars:     Size  Location     Type
  5550 ;;  quot            4    8[BANK0 ] unsigned long 
  5551 ;;  exp1            1   13[BANK0 ] unsigned char 
  5552 ;;  cntr            1   12[BANK0 ] unsigned char 
  5553 ;; Return value:  Size  Location     Type
  5554 ;;                  4    2[COMMON] unsigned long 
  5555 ;; Registers used:
  5556 ;;		wreg, fsr0l, fsr0h, status,2, status,0
  5557 ;; Tracked objects:
  5558 ;;		On entry : 0/0
  5559 ;;		On exit  : 60/0
  5560 ;;		Unchanged: FFF9F/0
  5561 ;; Data sizes:     COMMON   BANK0   BANK1   BANK3   BANK2
  5562 ;;      Params:         6       0       0       0       0
  5563 ;;      Locals:         0       6       0       0       0
  5564 ;;      Temps:          0       8       0       0       0
  5565 ;;      Totals:         6      14       0       0       0
  5566 ;;Total ram usage:       20 bytes
  5567 ;; Hardware stack levels used:    1
  5568 ;; Hardware stack levels required when called:    1
  5569 ;; This function calls:
  5570 ;;		Nothing
  5571 ;; This function is called by:
  5572 ;;		_sprintf
  5573 ;; This function uses a non-reentrant model
  5574 ;;
  5575  0A1A                     __div_to_l_:	
  5576                           
  5577                           ; Regs used in __div_to_l_: [wreg-fsr0h+status,2+status,0]
  5578  0A1A  3072               	movlw	low __div_to_l_@f1
  5579  0A1B  0084               	movwf	4
  5580  0A1C  0800               	movf	0,w
  5581  0A1D  1283               	bcf	3,5	;RP0=0, select bank0
  5582  0A1E  1303               	bcf	3,6	;RP1=0, select bank0
  5583  0A1F  00A0               	movwf	??__div_to_l_
  5584  0A20  0A84               	incf	4,f
  5585  0A21  0800               	movf	0,w
  5586  0A22  00A1               	movwf	??__div_to_l_+1
  5587  0A23  0A84               	incf	4,f
  5588  0A24  0800               	movf	0,w
  5589  0A25  00A2               	movwf	??__div_to_l_+2
  5590  0A26  0A84               	incf	4,f
  5591  0A27  0800               	movf	0,w
  5592  0A28  00A3               	movwf	??__div_to_l_+3
  5593  0A29  1003               	clrc
  5594  0A2A  0D22               	rlf	??__div_to_l_+2,w
  5595  0A2B  0D23               	rlf	??__div_to_l_+3,w
  5596  0A2C  00AD               	movwf	__div_to_l_@exp1
  5597  0A2D  08AD               	movf	__div_to_l_@exp1,f
  5598  0A2E  1D03               	skipz
  5599  0A2F  2A35               	goto	l5949
  5600  0A30                     l5947:	
  5601  0A30  01F2               	clrf	?__div_to_l_
  5602  0A31  01F3               	clrf	?__div_to_l_+1
  5603  0A32  01F4               	clrf	?__div_to_l_+2
  5604  0A33  01F5               	clrf	?__div_to_l_+3
  5605  0A34  0008               	return
  5606  0A35                     l5949:	
  5607  0A35  3075               	movlw	low __div_to_l_@f2
  5608  0A36  22D8  120A  158A   	fcall	PL2	;call to abstracted procedure
  5609  0A39  1003               	clrc
  5610  0A3A  0D22               	rlf	??__div_to_l_+2,w
  5611  0A3B  0D23               	rlf	??__div_to_l_+3,w
  5612  0A3C  00AC               	movwf	__div_to_l_@cntr
  5613  0A3D  08AC               	movf	__div_to_l_@cntr,f
  5614  0A3E  1903               	btfsc	3,2
  5615  0A3F  2A30               	goto	l5947
  5616  0A40  3072               	movlw	low __div_to_l_@f1
  5617  0A41  0084               	movwf	4
  5618  0A42  3080               	movlw	128
  5619  0A43  0A84               	incf	4,f
  5620  0A44  0A84               	incf	4,f
  5621  0A45  0480               	iorwf	0,f
  5622  0A46  3072               	movlw	low __div_to_l_@f1
  5623  0A47  0A84               	incf	4,f
  5624  0A48  0084               	movwf	4
  5625  0A49  3075               	movlw	low __div_to_l_@f2
  5626  0A4A  0A84               	incf	4,f
  5627  0A4B  0A84               	incf	4,f
  5628  0A4C  0A84               	incf	4,f
  5629  0A4D  0180               	clrf	0
  5630  0A4E  0084               	movwf	4
  5631  0A4F  3080               	movlw	128
  5632  0A50  0A84               	incf	4,f
  5633  0A51  0A84               	incf	4,f
  5634  0A52  0480               	iorwf	0,f
  5635  0A53  3075               	movlw	low __div_to_l_@f2
  5636  0A54  0A84               	incf	4,f
  5637  0A55  0084               	movwf	4
  5638  0A56  307F               	movlw	127
  5639  0A57  0A84               	incf	4,f
  5640  0A58  0A84               	incf	4,f
  5641  0A59  0A84               	incf	4,f
  5642  0A5A  0180               	clrf	0
  5643  0A5B  01A8               	clrf	__div_to_l_@quot
  5644  0A5C  01A9               	clrf	__div_to_l_@quot+1
  5645  0A5D  01AA               	clrf	__div_to_l_@quot+2
  5646  0A5E  01AB               	clrf	__div_to_l_@quot+3
  5647  0A5F  02AD               	subwf	__div_to_l_@exp1,f
  5648  0A60  30A0               	movlw	160
  5649  0A61  072C               	addwf	__div_to_l_@cntr,w
  5650  0A62  00A0               	movwf	??__div_to_l_
  5651  0A63  02AD               	subwf	__div_to_l_@exp1,f
  5652  0A64  3020               	movlw	32
  5653  0A65  00AC               	movwf	__div_to_l_@cntr
  5654  0A66                     l5963:	
  5655  0A66  3075               	movlw	low __div_to_l_@f2
  5656  0A67  1003               	clrc
  5657  0A68  0DA8               	rlf	__div_to_l_@quot,f
  5658  0A69  0DA9               	rlf	__div_to_l_@quot+1,f
  5659  0A6A  0DAA               	rlf	__div_to_l_@quot+2,f
  5660  0A6B  0DAB               	rlf	__div_to_l_@quot+3,f
  5661  0A6C  22D8  120A  158A   	fcall	PL2	;call to abstracted procedure
  5662  0A6F  3072               	movlw	low __div_to_l_@f1
  5663  0A70  0084               	movwf	4
  5664  0A71  0800               	movf	0,w
  5665  0A72  00A4               	movwf	??__div_to_l_+4
  5666  0A73  0A84               	incf	4,f
  5667  0A74  0800               	movf	0,w
  5668  0A75  00A5               	movwf	??__div_to_l_+5
  5669  0A76  0A84               	incf	4,f
  5670  0A77  0800               	movf	0,w
  5671  0A78  00A6               	movwf	??__div_to_l_+6
  5672  0A79  0A84               	incf	4,f
  5673  0A7A  0800               	movf	0,w
  5674  0A7B  00A7               	movwf	??__div_to_l_+7
  5675  0A7C  0823               	movf	??__div_to_l_+3,w
  5676  0A7D  0227               	subwf	??__div_to_l_+7,w
  5677  0A7E  1D03               	skipz
  5678  0A7F  2A8A               	goto	u3375
  5679  0A80  0822               	movf	??__div_to_l_+2,w
  5680  0A81  0226               	subwf	??__div_to_l_+6,w
  5681  0A82  1D03               	skipz
  5682  0A83  2A8A               	goto	u3375
  5683  0A84  0821               	movf	??__div_to_l_+1,w
  5684  0A85  0225               	subwf	??__div_to_l_+5,w
  5685  0A86  1D03               	skipz
  5686  0A87  2A8A               	goto	u3375
  5687  0A88  0820               	movf	??__div_to_l_,w
  5688  0A89  0224               	subwf	??__div_to_l_+4,w
  5689  0A8A                     u3375:	
  5690  0A8A  1C03               	skipc
  5691  0A8B  2AA6               	goto	l2471
  5692  0A8C  3075               	movlw	low __div_to_l_@f2
  5693  0A8D  22D8  120A  158A   	fcall	PL2	;call to abstracted procedure
  5694  0A90  3072               	movlw	low __div_to_l_@f1
  5695  0A91  0084               	movwf	4
  5696  0A92  0820               	movf	??__div_to_l_,w
  5697  0A93  0280               	subwf	0,f
  5698  0A94  0A84               	incf	4,f
  5699  0A95  0821               	movf	??__div_to_l_+1,w
  5700  0A96  1C03               	skipc
  5701  0A97  0F21               	incfsz	??__div_to_l_+1,w
  5702  0A98  0280               	subwf	0,f
  5703  0A99  0A84               	incf	4,f
  5704  0A9A  0822               	movf	??__div_to_l_+2,w
  5705  0A9B  1C03               	skipc
  5706  0A9C  0F22               	incfsz	??__div_to_l_+2,w
  5707  0A9D  0280               	subwf	0,f
  5708  0A9E  0A84               	incf	4,f
  5709  0A9F  0823               	movf	??__div_to_l_+3,w
  5710  0AA0  1C03               	skipc
  5711  0AA1  0A23               	incf	??__div_to_l_+3,w
  5712  0AA2  0280               	subwf	0,f
  5713  0AA3  3003               	movlw	3
  5714  0AA4  0284               	subwf	4,f
  5715  0AA5  1428               	bsf	__div_to_l_@quot,0
  5716  0AA6                     l2471:	
  5717  0AA6  3072               	movlw	low __div_to_l_@f1
  5718  0AA7  0084               	movwf	4
  5719  0AA8  1003               	clrc
  5720  0AA9  0D80               	rlf	0,f
  5721  0AAA  0A84               	incf	4,f
  5722  0AAB  0D80               	rlf	0,f
  5723  0AAC  0A84               	incf	4,f
  5724  0AAD  0D80               	rlf	0,f
  5725  0AAE  0A84               	incf	4,f
  5726  0AAF  0D80               	rlf	0,f
  5727  0AB0  0BAC               	decfsz	__div_to_l_@cntr,f
  5728  0AB1  2A66               	goto	l5963
  5729  0AB2  1FAD               	btfss	__div_to_l_@exp1,7
  5730  0AB3  2AC1               	goto	l5981
  5731  0AB4  082D               	movf	__div_to_l_@exp1,w
  5732  0AB5  3A80               	xorlw	128
  5733  0AB6  3E9F               	addlw	159
  5734  0AB7  1C03               	btfss	3,0
  5735  0AB8  2A30               	goto	l5947
  5736  0AB9                     l5977:	
  5737  0AB9  1003               	clrc
  5738  0ABA  0CAB               	rrf	__div_to_l_@quot+3,f
  5739  0ABB  0CAA               	rrf	__div_to_l_@quot+2,f
  5740  0ABC  0CA9               	rrf	__div_to_l_@quot+1,f
  5741  0ABD  0CA8               	rrf	__div_to_l_@quot,f
  5742  0ABE  0FAD               	incfsz	__div_to_l_@exp1,f
  5743  0ABF  2AB9               	goto	l5977
  5744  0AC0  2ACF               	goto	l5987
  5745  0AC1                     l5981:	
  5746  0AC1  3020               	movlw	32
  5747  0AC2  022D               	subwf	__div_to_l_@exp1,w
  5748  0AC3  1803               	btfsc	3,0
  5749  0AC4  2A30               	goto	l5947
  5750  0AC5                     l2479:	
  5751  0AC5  08AD               	movf	__div_to_l_@exp1,f
  5752  0AC6  1903               	btfsc	3,2
  5753  0AC7  2ACF               	goto	l5987
  5754  0AC8  1003               	clrc
  5755  0AC9  0DA8               	rlf	__div_to_l_@quot,f
  5756  0ACA  0DA9               	rlf	__div_to_l_@quot+1,f
  5757  0ACB  0DAA               	rlf	__div_to_l_@quot+2,f
  5758  0ACC  0DAB               	rlf	__div_to_l_@quot+3,f
  5759  0ACD  03AD               	decf	__div_to_l_@exp1,f
  5760  0ACE  2AC5               	goto	l2479
  5761  0ACF                     l5987:	
  5762  0ACF  082B               	movf	__div_to_l_@quot+3,w
  5763  0AD0  00F5               	movwf	?__div_to_l_+3
  5764  0AD1  082A               	movf	__div_to_l_@quot+2,w
  5765  0AD2  00F4               	movwf	?__div_to_l_+2
  5766  0AD3  0829               	movf	__div_to_l_@quot+1,w
  5767  0AD4  00F3               	movwf	?__div_to_l_+1
  5768  0AD5  0828               	movf	__div_to_l_@quot,w
  5769  0AD6  00F2               	movwf	?__div_to_l_
  5770  0AD7  0008               	return
  5771  0AD8                     __end_of__div_to_l_:	
  5772  0AD8                     PL2:	
  5773  0AD8  0084               	movwf	4
  5774  0AD9  0800               	movf	0,w
  5775  0ADA  00A0               	movwf	??__div_to_l_
  5776  0ADB  0A84               	incf	4,f
  5777  0ADC  0800               	movf	0,w
  5778  0ADD  00A1               	movwf	??__div_to_l_+1
  5779  0ADE  0A84               	incf	4,f
  5780  0ADF  0800               	movf	0,w
  5781  0AE0  00A2               	movwf	??__div_to_l_+2
  5782  0AE1  0A84               	incf	4,f
  5783  0AE2  0800               	movf	0,w
  5784  0AE3  00A3               	movwf	??__div_to_l_+3
  5785  0AE4  0008               	return
  5786                           
  5787                           	psect	text801
  5788  0999                     __ptext801:	
  5789 ;; =============== function _send_char ends ============
  5790                           
  5791                           
  5792 ;; *************** function _rx *****************
  5793 ;; Defined at:
  5794 ;;		line 85 in file "D:\TTVXL\Project TTVXL\BT n Thi 02\BT n Thi 02.c"
  5795 ;; Parameters:    Size  Location     Type
  5796 ;;		None
  5797 ;; Auto vars:     Size  Location     Type
  5798 ;;		None
  5799 ;; Return value:  Size  Location     Type
  5800 ;;		None               void
  5801 ;; Registers used:
  5802 ;;		wreg
  5803 ;; Tracked objects:
  5804 ;;		On entry : 17F/0
  5805 ;;		On exit  : 17F/0
  5806 ;;		Unchanged: FFE80/0
  5807 ;; Data sizes:     COMMON   BANK0   BANK1   BANK3   BANK2
  5808 ;;      Params:         0       0       0       0       0
  5809 ;;      Locals:         0       0       0       0       0
  5810 ;;      Temps:          0       0       0       0       0
  5811 ;;      Totals:         0       0       0       0       0
  5812 ;;Total ram usage:        0 bytes
  5813 ;; Hardware stack levels used:    1
  5814 ;; Hardware stack levels required when called:    1
  5815 ;; This function calls:
  5816 ;;		Nothing
  5817 ;; This function is called by:
  5818 ;;		_main
  5819 ;; This function uses a non-reentrant model
  5820 ;;
  5821  0999                     _rx:	
  5822                           
  5823                           ;BT n Thi 02.c: 86: SYNC = 0; BRGH = 1; BRG16 = 1;
  5824                           
  5825                           ; Regs used in _rx: [wreg]
  5826  0999  1683               	bsf	3,5	;RP0=1, select bank1
  5827  099A  1218               	bcf	24,4
  5828  099B  1518               	bsf	24,2
  5829  099C  1703               	bsf	3,6	;RP1=1, select bank3
  5830  099D  3002               	movlw	2
  5831  099E  1587               	bsf	7,3
  5832                           
  5833                           ;BT n Thi 02.c: 87: SPBRGH = 0x02;
  5834  099F  1303               	bcf	3,6	;RP1=0, select bank1
  5835  09A0  009A               	movwf	26	;volatile
  5836                           
  5837                           ;BT n Thi 02.c: 88: SPBRG = 0x08;
  5838  09A1  3008               	movlw	8
  5839  09A2  0099               	movwf	25	;volatile
  5840                           
  5841                           ;BT n Thi 02.c: 89: CREN = 1; RX9 = 0; SPEN = 1;
  5842  09A3  1283               	bcf	3,5	;RP0=0, select bank0
  5843  09A4  1618               	bsf	24,4
  5844  09A5  1318               	bcf	24,6
  5845  09A6  1798               	bsf	24,7
  5846                           
  5847                           ;BT n Thi 02.c: 90: RCIE=1; RCIF=0; PEIE=1; GIE=1;
  5848  09A7  1683               	bsf	3,5	;RP0=1, select bank1
  5849  09A8  168C               	bsf	12,5
  5850  09A9  1283               	bcf	3,5	;RP0=0, select bank0
  5851  09AA  128C               	bcf	12,5
  5852  09AB  170B               	bsf	11,6
  5853  09AC  178B               	bsf	11,7
  5854  09AD  0008               	return
  5855  09AE                     __end_of_rx:	
  5856                           
  5857                           	psect	text802
  5858  098A                     __ptext802:	
  5859 ;; =============== function _rx ends ============
  5860                           
  5861                           
  5862 ;; *************** function _tx *****************
  5863 ;; Defined at:
  5864 ;;		line 78 in file "D:\TTVXL\Project TTVXL\BT n Thi 02\BT n Thi 02.c"
  5865 ;; Parameters:    Size  Location     Type
  5866 ;;		None
  5867 ;; Auto vars:     Size  Location     Type
  5868 ;;		None
  5869 ;; Return value:  Size  Location     Type
  5870 ;;		None               void
  5871 ;; Registers used:
  5872 ;;		wreg
  5873 ;; Tracked objects:
  5874 ;;		On entry : 17F/0
  5875 ;;		On exit  : 17F/0
  5876 ;;		Unchanged: FFE80/0
  5877 ;; Data sizes:     COMMON   BANK0   BANK1   BANK3   BANK2
  5878 ;;      Params:         0       0       0       0       0
  5879 ;;      Locals:         0       0       0       0       0
  5880 ;;      Temps:          0       0       0       0       0
  5881 ;;      Totals:         0       0       0       0       0
  5882 ;;Total ram usage:        0 bytes
  5883 ;; Hardware stack levels used:    1
  5884 ;; Hardware stack levels required when called:    1
  5885 ;; This function calls:
  5886 ;;		Nothing
  5887 ;; This function is called by:
  5888 ;;		_main
  5889 ;; This function uses a non-reentrant model
  5890 ;;
  5891  098A                     _tx:	
  5892                           
  5893                           ;BT n Thi 02.c: 79: SYNC = 0; BRGH = 1; BRG16 = 1;
  5894                           
  5895                           ; Regs used in _tx: [wreg]
  5896  098A  1683               	bsf	3,5	;RP0=1, select bank1
  5897  098B  1218               	bcf	24,4
  5898  098C  1518               	bsf	24,2
  5899  098D  1703               	bsf	3,6	;RP1=1, select bank3
  5900  098E  3002               	movlw	2
  5901  098F  1587               	bsf	7,3
  5902                           
  5903                           ;BT n Thi 02.c: 80: SPBRGH = 0x02;
  5904  0990  1303               	bcf	3,6	;RP1=0, select bank1
  5905  0991  009A               	movwf	26	;volatile
  5906                           
  5907                           ;BT n Thi 02.c: 81: SPBRG = 0x08;
  5908  0992  3008               	movlw	8
  5909  0993  0099               	movwf	25	;volatile
  5910                           
  5911                           ;BT n Thi 02.c: 82: TXEN = 1; TX9 = 0; SPEN = 1;
  5912  0994  1698               	bsf	24,5
  5913  0995  1318               	bcf	24,6
  5914  0996  1283               	bcf	3,5	;RP0=0, select bank0
  5915  0997  1798               	bsf	24,7
  5916  0998  0008               	return
  5917  0999                     __end_of_tx:	
  5918                           
  5919                           	psect	text803
  5920  07C8                     __ptext803:	
  5921 ;; =============== function _tx ends ============
  5922                           
  5923                           
  5924 ;; *************** function _ngat *****************
  5925 ;; Defined at:
  5926 ;;		line 54 in file "D:\TTVXL\Project TTVXL\BT n Thi 02\BT n Thi 02.c"
  5927 ;; Parameters:    Size  Location     Type
  5928 ;;		None
  5929 ;; Auto vars:     Size  Location     Type
  5930 ;;		None
  5931 ;; Return value:  Size  Location     Type
  5932 ;;		None               void
  5933 ;; Registers used:
  5934 ;;		wreg, status,2, status,0
  5935 ;; Tracked objects:
  5936 ;;		On entry : 0/0
  5937 ;;		On exit  : 0/0
  5938 ;;		Unchanged: FFF9F/0
  5939 ;; Data sizes:     COMMON   BANK0   BANK1   BANK3   BANK2
  5940 ;;      Params:         0       0       0       0       0
  5941 ;;      Locals:         0       0       0       0       0
  5942 ;;      Temps:          2       0       0       0       0
  5943 ;;      Totals:         2       0       0       0       0
  5944 ;;Total ram usage:        2 bytes
  5945 ;; Hardware stack levels used:    1
  5946 ;; This function calls:
  5947 ;;		Nothing
  5948 ;; This function is called by:
  5949 ;;		Interrupt level 1
  5950 ;; This function uses a non-reentrant model
  5951 ;;
  5952  07C8                     _ngat:	
  5953                           
  5954                           ;BT n Thi 02.c: 55: if(T0IF)
  5955  07C8  1D0B               	btfss	11,2
  5956  07C9  2FDF               	goto	L20
  5957                           
  5958                           ;BT n Thi 02.c: 56: { TMR0 = 6;
  5959  07CA  3006               	movlw	6
  5960  07CB  1283               	bcf	3,5	;RP0=0, select bank0
  5961  07CC  1303               	bcf	3,6	;RP1=0, select bank0
  5962  07CD  0081               	movwf	1	;volatile
  5963                           
  5964                           ;BT n Thi 02.c: 57: dem++;
  5965  07CE  0AFA               	incf	_dem,f
  5966  07CF  1903               	skipnz
  5967  07D0  0AFB               	incf	_dem+1,f
  5968                           
  5969                           ;BT n Thi 02.c: 58: if(dem == 250)
  5970  07D1  087A               	movf	_dem,w
  5971  07D2  3AFA               	xorlw	250
  5972  07D3  047B               	iorwf	_dem+1,w
  5973  07D4  1D03               	skipz
  5974  07D5  2FDE               	goto	i1l4735
  5975                           
  5976                           ;BT n Thi 02.c: 59: {
  5977                           ;BT n Thi 02.c: 60: dem = 0;
  5978  07D6  01FA               	clrf	_dem
  5979  07D7  01FB               	clrf	_dem+1
  5980                           
  5981                           ;BT n Thi 02.c: 61: xung = TMR1;
  5982  07D8  080F               	movf	15,w	;volatile
  5983  07D9  00E7               	movwf	_xung+1	;volatile
  5984  07DA  080E               	movf	14,w	;volatile
  5985  07DB  00E6               	movwf	_xung	;volatile
  5986                           
  5987                           ;BT n Thi 02.c: 62: TMR1 = 0;
  5988  07DC  018E               	clrf	14	;volatile
  5989  07DD  018F               	clrf	15	;volatile
  5990  07DE                     i1l4735:	
  5991                           
  5992                           ;BT n Thi 02.c: 63: }
  5993                           ;BT n Thi 02.c: 64: }
  5994                           ;BT n Thi 02.c: 65: T0IF = 0;
  5995  07DE  110B               	bcf	11,2
  5996  07DF                     L20:	
  5997  07DF  0871               	movf	??_ngat+1,w
  5998  07E0  008A               	movwf	10
  5999  07E1  0E70               	swapf	??_ngat^(0+-128),w
  6000  07E2  0083               	movwf	3
  6001  07E3  0EFE               	swapf	126,f
  6002  07E4  0E7E               	swapf	126,w
  6003  07E5  0009               	retfie
  6004  07E6                     __end_of_ngat:	
  6005                           
  6006                           	psect	intentry
  6007  0004                     __pintentry:	
  6008                           ; Regs used in _ngat: [wreg+status,2+status,0]
  6009                           
  6010  0004                     interrupt_function:	
  6011  007E                     saved_w	set	btemp
  6012  0004  00FE               	movwf	btemp
  6013  0005  0E03               	swapf	3,w
  6014  0006  00F0               	movwf	??_ngat
  6015  0007  080A               	movf	10,w
  6016  0008  00F1               	movwf	??_ngat+1
  6017  0009  120A  118A  2FC8   	ljmp	_ngat
  6018                           
  6019                           	psect	text804
  6020  0000                     __ptext804:	
  6021 ;; =============== function _ngat ends ============
  6022                           
  6023  007E                     btemp	set	126	;btemp
  6024  007E                     wtemp0	set	126


HI-TECH Software PICC Macro Assembler V9.83 build 10920 
Symbol Table                                                                                   Sun Dec 25 11:10:26 2022

                    _v 0063                      pc 0002         ___bmul@product 0023           ___awdiv@sign 0025  
                   _rx 0999                     _tx 098A                     fsr 0004    ___wmul@multiplicand 0074  
         ___ftadd@exp1 004F           ___ftadd@exp2 004E           ___ftadd@sign 004D                    ?_rx 0070  
                  ?_tx 0070                    _GIE 005F                    _RE0 0048                    _PS0 0408  
                  _PS1 0409                    _PS2 040A                    _PSA 040B                    _RX9 00C6  
                  _TX9 04C6                    _dem 007A                    fsr0 0004                    indf 0000  
         ___awmod@sign 0077            main@data_tx 00B9                   ??_rx 0072                   ??_tx 0072  
         ___ftdiv@cntr 002D           ___ftdiv@sign 0032                   l1122 00A1                   l1061 0000  
                 l1070 0000                   l1073 0000                   l1058 07F5                   l2211 0BF6  
                 l1067 0000                   l2220 0000                   l2214 0000                   l1183 0000  
                 l2242 06CF                   l2331 0000                   l2341 0000                   l2421 0000  
                 l2318 0000                   l2271 0C92                   l2168 0000                   l2184 0000  
                 l2360 0000                   l2264 0000                   l2345 0000                   l2178 0000  
                 l2436 0638                   l2429 0000                   l2471 0AA6                   l2472 0000  
                 l6001 0000                   l2298 052B                   l6013 04E2                   l6101 0000  
                 l2479 0AC5                   l6015 0000                   l6007 0000                   l6023 0000  
                 l6103 0000                   l2399 0000                   l6017 0000                   l6009 04DA  
                 l6041 0000                   l6033 0000                   l6025 0000                   l6113 051F  
                 l6105 0000                   l6027 0000                   l6043 0C03                   l6051 0C09  
                 l6123 0535                   l6115 0000                   l6107 0000                   l6131 0000  
                 l6211 04BC                   l6203 0000                   l6037 0000                   l6029 0BF0  
                 l6061 0000                   l6053 0000                   l6125 0000                   l6117 0527  
                 l6133 0000                   l6213 0000                   l6301 0676                   l6055 0000  
                 l6047 0000                   l6127 0543                   l6143 0000                   l6215 0000  
                 l6207 04AD                   l6223 0000                   l6311 068C                   l6049 0000  
                 l6081 0F8E                   l6073 0F75                   l6065 0000                   l6161 0000  
                 l6145 0E7D                   l6137 0000                   l6233 059F                   l6225 0000  
                 l6321 0000                   l6313 0000                   l6305 067D                   l6401 0CA5  
                 l6059 0C1D                   l6091 0000                   l6083 0F93                   l6075 0F7A  
                 l6067 0000                   l6171 0EAA                   l6155 0E8B                   l6147 0000  
                 l6139 0E74                   l6243 0000                   l6235 0000                   l6251 0000  
                 l6331 06AE                   l6323 069A                   l6307 0000                   l6411 0000  
                 l6077 0F7F                   l6069 0F71                   l6093 0000                   l6165 0000  
                 l6157 0000                   l6245 05CA                   l6261 0EC0                   l6341 06C6  
                 l6325 0000                   l6333 06B3                   l6405 0000                   l6421 0EFD  
                 l6087 0000                   l6079 0F89                   l6095 04FB                   l6167 0EA2  
                 l6183 055C                   l6191 0581                   l6175 0000                   l6239 0000  
                 l6255 0000                   l6343 06CB                   l6335 06B7                   l6319 0000  
                 l6431 0000                   l6415 0000                   l6511 0BC4                   l6503 0B70  
                 l6089 0000                   l6097 0500                   l6169 0000                   l6281 0EE7  
                 l6257 0EB9                   l6249 0000                   l6353 0000                   l6337 0000  
                 l6329 06A9                   l6409 0000                   l6441 0000                   l6433 0000  
                 l6601 00A3                   l6099 0000                   l6195 0000                   l6275 0000  
                 l6291 07E7                   l6363 0000                   l6355 06E5                   l6347 0000  
                 l6371 0000                   l6451 0000                   l6443 0000                   l6435 0000  
                 l6427 0F0E                   l6507 0000                   l6515 0000                   l6611 0000  
                 l6603 00B5                   l5901 05E6                   l6189 0000                   l6269 0ECC  
                 l6277 0EDF                   l6285 0000                   l6365 0000                   l6357 0000  
                 l6349 06DA                   l6293 0000                   l6461 0F3F                   l6453 0000  
                 l6445 0F1F                   l6437 0000                   l6429 0000                   l6533 0D8D  
                 l6621 0000                   l6613 0000                   l5911 0000                   l6279 0000  
                 l6367 0701                   l6359 0000                   l6295 0000                   l6391 0000  
                 l6383 0000                   l6463 0000                   l6455 0000                   l6439 0000  
                 l6471 0000                   l6551 0E53                   l6527 0D48                   l6519 0000  
                 l6703 02D0                   l6631 0000                   l5921 0000                   l5913 0000  
                 l5905 0000                   l6289 0000                   l6297 0000                   l6393 0000  
                 l6385 0000                   l6377 0C81                   l6465 0000                   l6457 0F35  
                 l6449 0F29                   l6473 0000                   l6545 0E0E                   l6537 0DA4  
                 l6801 0000                   l6721 02F4                   l6705 02E6                   l6713 02D4  
                 l6641 0000                   l6633 0000                   l6625 0000                   l6617 0000  
                 l6609 00C5                   l6561 0000                   l5931 062C                   l5915 0603  
                 l5907 0000                   l6395 0000                   l6387 0000                   l6467 0000  
                 l6483 0000                   l6555 0000                   l6803 0000                   l6731 0000  
                 l6715 02EB                   l6643 0000                   l6635 0000                   l6627 0000  
                 l6651 0192                   l6619 00F1                   l6571 0000                   l6811 0013  
                 l5861 0000                   l5853 0000                   l5941 0642                   l5933 0000  
                 l5925 0000                   l5917 0000                   l5909 0000                   l6397 0000  
                 l6389 0000                   l6477 0000                   l6493 0000                   l6557 0000  
                 l6805 048E                   l6741 0000                   l6733 0325                   l6725 0322  
                 l6709 0000                   l6629 0000                   l6813 0499                   l6581 0062  
                 l6821 0000                   l5855 0000                   l5871 0000                   l5863 0000  
                 l5935 0634                   l6399 0000                   l6479 0C41                   l6487 0C54  
                 l6751 0000                   l6743 0000                   l6735 0339                   l6663 01EF  
                 l6655 01C4                   l6647 0182                   l6639 0149                   l6591 0000  
                 l6575 003D                   l6831 0000                   l6823 0000                   l5857 0000  
                 l5873 0000                   l5865 0000                   l5881 0000                   l5961 0000  
                 l5945 0000                   l6489 0C5F                   l6497 0000                   l6761 03EE  
                 l6745 0361                   l6729 0000                   l6681 0000                   l6673 0000  
                 l6593 0073                   l6585 0000                   l6577 0000                   l6569 0029  
                 l6841 0000                   l6833 0000                   l6825 0000                   l6817 0000  
                 l5859 0000                   l5875 0000                   l5867 0000                   l5971 0000  
                 l5963 0A66                   l5955 0000                   l5947 0A30                   l6747 0382  
                 l6739 0348                   l6683 0271                   l6675 0000                   l6667 0200  
                 l6763 03FA                   l6587 0000                   l6595 009C                   l6579 0000  
                 l6851 0000                   l6843 0000                   l6835 0000                   l6827 0000  
                 l6819 0000                   l5877 0000                   l5869 0000                   l5893 04D6  
                 l5885 0000                   l5981 0AC1                   l5965 0000                   l5957 0000  
                 l5949 0A35                   l6773 041B                   l6757 0000                   l6749 0000  
                 l6677 0000                   l6597 0000                   l6861 09D5                   l6853 0000  
                 l6845 0000                   l6837 0000                   l6829 0000                   l5879 0000  
                 l5887 0000                   l5959 0000                   l5991 0000                   l6791 045D  
                 l6783 0440                   l6759 0000                   l6695 0000                   l6679 0230  
                 l6863 0000                   l6855 0000                   l6847 0000                   l6839 0000  
                 l5897 0000                   l5977 0AB9                   l5969 0000                   l5993 0F5D  
                 l6777 0433                   l6769 0407                   l6697 02A7                   l6689 0273  
                 l6865 0000                   l6857 0000                   l6849 0000                   l5899 05E1  
                 l5987 0ACF                   l5979 0000                   l6795 0479                   l6699 0000  
                 l6859 0000                   l6797 047C                   l6789 045A                   l5999 0000  
                 l6799 0480                   STR_1 087C                   _BRGH 04C2                   _T0IE 005D  
                 _T0IF 005A                   _CREN 00C4                   _T0CS 040D                   u3285 0612  
                 u3630 0000                   u3375 0A8A                   u3635 0504                   u4195 0CB3  
                 u4515 019B                   _PEIE 005E                   u4525 01CE                   u4470 0000  
                 u4615 02DD                   u3745 0E94                   u4715 0415                   u4555 01ED  
                 u4475 0107                   _RCIE 0465                   _RCIF 0065                   u4725 042B  
                 u4645 032E                   u3935 0ED2                   u4655 0343                   u4575 02A0  
                 u3795 056A                   u3875 05B2                   u4765 0450                   u4775 046B  
                 _TMR0 0001                   _TMR1 000E                   _SPEN 00C7                   _TXEN 04C5  
                 _TXIF 0064                   _SYNC 04C4                   _main 09AE                   _ngat 07C8  
         ___ftpack@arg 0072           ___ftpack@exp 0075                   btemp 007E                   _xung 0066  
                 start 000C           _sprintf$1873 00A0      ___bmul@multiplier 0024           ___ftmul@cntr 0042  
         ___ftmul@sign 0043           ___fttol@exp1 0034           ___fttol@lval 0030                  ?_main 0070  
                ?_ngat 0070        __end_of___awdiv 0EAF        __end_of___lbdiv 0C05        __end_of___ftadd 0715  
                _BRG16 0C3B        __end_of___awmod 0EEC        __end_of___lbmod 0C21        __end_of___ftdiv 0CD8  
      __end_of___ftneg 0653                  _ANSEL 0188        __end_of___lldiv 05D3        __end_of___ftmul 0F5B  
      ___awdiv@divisor 0020        __end_of___llmod 058A        __end_of___ftsub 072B        __end_of___fttol 054C  
      ___awdiv@counter 0024                  _SPBRG 0099                  _TXREG 0019           ___lltoft@exp 0024  
        ___awtoft@sign 0023                  _scale 0CD8        __end_of_isdigit 04D8          ___ftpack@sign 0076  
                pclath 000A                  status 0003                  wtemp0 007E        __end_of_sprintf 049E  
      ___lbdiv@divisor 0077        ___lbdiv@counter 0021           __end_of_main 0A1A           __end_of_ngat 07E6  
               ??_main 007A          ___fttol@sign1 002F                 ??_ngat 0070   __size_of__tdiv_to_l_ 0078  
     ___llmod@dividend 0029                 ?_scale 0044       ___awdiv@dividend 0022       __end_of___awtoft 0C52  
     __end_of___ftpack 0FA7                 _ANSELH 0189       __end_of___lltoft 0C70                 i1l1055 0000  
               _T1SYNC 0082                 i1l4721 0000                 i1l4731 0000                 i1l4733 0000  
               i1l4725 0000                 i1l4727 0000                 i1l4735 07DE           ?_send_string 0070  
               _TMR1GE 0086                 _TMR1CS 0081                 _SPBRGH 009A                 _TMR1ON 0080  
               _TRISE0 0448                 ___bmul 0F5B                 ___ftge 049E                 ___wmul 04D8  
            ??___awdiv 0078              ??___lbdiv 0078              ??___ftadd 004A              ??___awmod 0076  
            ??___lbmod 0073              ??___ftdiv 002A              ??___ftneg 0075              ??___lldiv 007A  
            ??___ftmul 003B              ??___llmod 007A              ??___ftsub 007A              ??___fttol 002C  
               _fround 0AE5       ___awdiv@quotient 0026        ___awmod@divisor 0072        ___awmod@counter 0076  
___ftmul@f3_as_product 003F              ??_isdigit 0072                 saved_w 007E              ??_sprintf 005E  
     ___lbdiv@dividend 0020        ___lbmod@divisor 0072        ___lbmod@counter 0075             ___ftadd@f1 0044  
           ___ftadd@f2 0047             ___ftge@ff1 0072             ___ftge@ff2 0075             ___ftdiv@f1 0027  
           ___ftdiv@f2 0024             ___ftdiv@f3 002E             ___ftneg@f1 0072             ___awtoft@c 0020  
  ___bmul@multiplicand 0078             ___ftmul@f1 0035             ___ftmul@f2 0038             ___ftsub@f1 0053  
           ___ftsub@f2 0050             ___fttol@f1 0028         __pcstackCOMMON 0070             ___lltoft@c 0020  
        __end_of_scale 0E6A       ___lbdiv@quotient 0022             __end_of_rx 09AE             __end_of_tx 0999  
           __div_to_l_ 0A1A        __div_to_l_@exp1 002D        __div_to_l_@cntr 002C           sprintf@integ 00A5  
              ??_scale 0047        __div_to_l_@quot 0028           sprintf@width 00AE             __pbssBANK0 0066  
        __div_to_l_@f1 0072          __div_to_l_@f2 0075             __pmaintext 09AE                ?___bmul 0078  
              ?___ftge 0072                ?___wmul 0072             __pintentry 0004     __size_of_send_char 0007  
              ?_fround 0050              ?___awtoft 0020              ?___ftpack 0072              ?___lltoft 0020  
              _T1CKPS0 0084                _T1CKPS1 0085   __size_of_send_string 000E             _scale$2808 004B  
      __size_of___bmul 000E        __size_of___ftge 002C                ___awdiv 0E6A                ___lbdiv 0BEA  
              ___ftadd 0653                ___awmod 0EAF                ___lbmod 0C05                ___ftdiv 0C70  
              ___ftneg 064B                ___lldiv 058A        __size_of___wmul 0019                ___ftmul 0EEC  
              ___llmod 054C                ___ftsub 0715                ___fttol 04F1             ??___awtoft 007A  
           ??___ftpack 0077        __size_of_fround 0105             ??___lltoft 007A            ?__div_to_l_ 0072  
              _dpowers 0854                _isdigit 04CA       ___awmod@dividend 0074                _sprintf 000F  
 end_of_initialization 0986      __end_of_send_char 07FB        ___lldiv@divisor 0072        ___lldiv@counter 0024  
       __tdiv_to_l_@f1 0072         __tdiv_to_l_@f2 0075          send_char@data 0072          ??__tdiv_to_l_ 0020  
     ___lbmod@dividend 0074            ___lbmod@rem 0076            ___ftdiv@exp 0031    __size_of__div_to_l_ 00BE  
          ___ftmul@exp 003E         __end_of___bmul 0F69         __end_of___ftge 04CA         __end_of___wmul 04F1  
       __end_of_fround 0BEA    start_initialization 0982    __end_of__tdiv_to_l_ 064B        ___llmod@divisor 0025  
      ___llmod@counter 002D               ??___bmul 0079               ??___ftge 0078               ??___wmul 0076  
             ??_fround 007A             fround@prec 0059      __size_of___awtoft 001B      __size_of___ftpack 003E  
    __size_of___lltoft 001E            __pbssCOMMON 007A          __pcstackBANK0 0020          __pcstackBANK1 00A0  
         _isdigit$2381 0072            sprintf@_val 00A8            sprintf@flag 00AC            sprintf@fval 00B3  
          sprintf@prec 00B6              __pnvBANK0 0063               ?___awdiv 0020               ?___lbdiv 0077  
             ?___ftadd 0044               ?___awmod 0072              __ptext800 07F4              __ptext801 0999  
            __ptext802 098A              __ptext803 07C8               ?___lbmod 0072              __ptext804 0000  
            __ptext780 0C37              __ptext781 0EEC              __ptext790 0E6A              __ptext782 0C70  
            __ptext791 04F1              __ptext783 0653              __ptext775 000F              __ptext792 0F69  
            __ptext784 07E6              __ptext776 0715              __ptext793 0C05              __ptext785 0EAF  
            __ptext777 0CD8              __ptext794 0BEA              __ptext786 058A              __ptext778 0AE5  
            __ptext795 04D8              __ptext787 049E              __ptext779 0C52              __ptext796 0F5B  
            __ptext788 064B              __ptext797 0A1A              __ptext789 054C               ?___ftdiv 0024  
            __ptext798 05D3              __ptext799 04CA               ?___ftneg 0072               ?___lldiv 0072  
             ?___ftmul 0035               ?___llmod 0025               ?___ftsub 0050              __npowers_ 0806  
             ?___fttol 0028              __pstrings 0800            __tdiv_to_l_ 05D3           ??__div_to_l_ 0020  
             ?_isdigit 0070               ?_sprintf 005A         __size_of_scale 0192          ??_send_string 0073  
          __size_of_rx 0015            __size_of_tx 000F      interrupt_function 0004         ___wmul@product 0076  
            _send_char 07F4     __end_of__div_to_l_ 0AD8            __stringbase 0805      ___wmul@multiplier 0072  
           ?_send_char 0070           send_string@s 0073    __end_of_send_string 07F4       __size_of___awdiv 0045  
     __size_of___lbdiv 001B       __size_of___ftadd 00C2       __size_of___awmod 003D       __size_of___lbmod 001C  
     __size_of___ftdiv 0068       __size_of___ftneg 0008       __size_of___lldiv 0049       __size_of___ftmul 006F  
     __size_of___llmod 003E       __size_of___ftsub 0016       __size_of___fttol 005B               ___awtoft 0C37  
             ___ftpack 0F69            _fround$2806 0056            _fround$2807 0053               ___lltoft 0C52  
           sprintf@exp 00B0       __size_of_isdigit 000E               __powers_ 082D       __size_of_sprintf 048F  
        __size_of_main 006C          __size_of_ngat 001E               isdigit@c 0073               scale@scl 004E  
             intlevel1 0000              sprintf@ap 00A4       __tdiv_to_l_@exp1 0028       __tdiv_to_l_@cntr 0027  
            sprintf@sp 00B2       __tdiv_to_l_@quot 0023            _send_string 07E6       ___lldiv@dividend 0076  
          ??_send_char 0072              stringcode 0800           ?__tdiv_to_l_ 0072               sprintf@c 00B8  
             sprintf@f 005A       ___lldiv@quotient 0020               stringdir 0800               stringtab 0800  
